ARM GAS  /tmp/ccnfAKrW.s 			page 1


   1              		.cpu cortex-m4
   2              		.eabi_attribute 27, 1
   3              		.eabi_attribute 28, 1
   4              		.eabi_attribute 20, 1
   5              		.eabi_attribute 21, 1
   6              		.eabi_attribute 23, 3
   7              		.eabi_attribute 24, 1
   8              		.eabi_attribute 25, 1
   9              		.eabi_attribute 26, 1
  10              		.eabi_attribute 30, 1
  11              		.eabi_attribute 34, 1
  12              		.eabi_attribute 18, 4
  13              		.file	"stm32l4xx_hal_dac.c"
  14              		.text
  15              	.Ltext0:
  16              		.cfi_sections	.debug_frame
  17              		.section	.text.HAL_DAC_MspInit,"ax",%progbits
  18              		.align	1
  19              		.weak	HAL_DAC_MspInit
  20              		.syntax unified
  21              		.thumb
  22              		.thumb_func
  23              		.fpu fpv4-sp-d16
  25              	HAL_DAC_MspInit:
  26              	.LFB132:
  27              		.file 1 "Drivers/STM32L4xx_HAL_Driver/Src/stm32l4xx_hal_dac.c"
   1:Drivers/STM32L4xx_HAL_Driver/Src/stm32l4xx_hal_dac.c **** /**
   2:Drivers/STM32L4xx_HAL_Driver/Src/stm32l4xx_hal_dac.c ****   ******************************************************************************
   3:Drivers/STM32L4xx_HAL_Driver/Src/stm32l4xx_hal_dac.c ****   * @file    stm32l4xx_hal_dac.c
   4:Drivers/STM32L4xx_HAL_Driver/Src/stm32l4xx_hal_dac.c ****   * @author  MCD Application Team
   5:Drivers/STM32L4xx_HAL_Driver/Src/stm32l4xx_hal_dac.c ****   * @brief   DAC HAL module driver.
   6:Drivers/STM32L4xx_HAL_Driver/Src/stm32l4xx_hal_dac.c ****   *         This file provides firmware functions to manage the following
   7:Drivers/STM32L4xx_HAL_Driver/Src/stm32l4xx_hal_dac.c ****   *         functionalities of the Digital to Analog Converter (DAC) peripheral:
   8:Drivers/STM32L4xx_HAL_Driver/Src/stm32l4xx_hal_dac.c ****   *           + Initialization and de-initialization functions
   9:Drivers/STM32L4xx_HAL_Driver/Src/stm32l4xx_hal_dac.c ****   *           + IO operation functions
  10:Drivers/STM32L4xx_HAL_Driver/Src/stm32l4xx_hal_dac.c ****   *           + Peripheral Control functions
  11:Drivers/STM32L4xx_HAL_Driver/Src/stm32l4xx_hal_dac.c ****   *           + Peripheral State and Errors functions
  12:Drivers/STM32L4xx_HAL_Driver/Src/stm32l4xx_hal_dac.c ****   *
  13:Drivers/STM32L4xx_HAL_Driver/Src/stm32l4xx_hal_dac.c ****   *
  14:Drivers/STM32L4xx_HAL_Driver/Src/stm32l4xx_hal_dac.c ****   @verbatim
  15:Drivers/STM32L4xx_HAL_Driver/Src/stm32l4xx_hal_dac.c ****   ==============================================================================
  16:Drivers/STM32L4xx_HAL_Driver/Src/stm32l4xx_hal_dac.c ****                       ##### DAC Peripheral features #####
  17:Drivers/STM32L4xx_HAL_Driver/Src/stm32l4xx_hal_dac.c ****   ==============================================================================
  18:Drivers/STM32L4xx_HAL_Driver/Src/stm32l4xx_hal_dac.c ****     [..]
  19:Drivers/STM32L4xx_HAL_Driver/Src/stm32l4xx_hal_dac.c ****       *** DAC Channels ***
  20:Drivers/STM32L4xx_HAL_Driver/Src/stm32l4xx_hal_dac.c ****       ====================
  21:Drivers/STM32L4xx_HAL_Driver/Src/stm32l4xx_hal_dac.c ****     [..]
  22:Drivers/STM32L4xx_HAL_Driver/Src/stm32l4xx_hal_dac.c ****     STM32L4 devices integrate one or two 12-bit Digital Analog Converters
  23:Drivers/STM32L4xx_HAL_Driver/Src/stm32l4xx_hal_dac.c ****     (i.e. one or 2 channel(s))
  24:Drivers/STM32L4xx_HAL_Driver/Src/stm32l4xx_hal_dac.c ****     1 channel : STM32L451xx STM32L452xx STM32L462xx
  25:Drivers/STM32L4xx_HAL_Driver/Src/stm32l4xx_hal_dac.c ****     2 channels: STM32L431xx STM32L432xx STM32L433xx STM32L442xx STM32L443xx
  26:Drivers/STM32L4xx_HAL_Driver/Src/stm32l4xx_hal_dac.c ****                 STM32L471xx STM32L475xx STM32L476xx STM32L485xx STM32L486xx STM32L496xx STM32L4A6xx
  27:Drivers/STM32L4xx_HAL_Driver/Src/stm32l4xx_hal_dac.c ****                 STM32L4R5xx STM32L4R7xx STM32L4R9xx STM32L4S5xx STM32L4S7xx STM32L4S9xx
  28:Drivers/STM32L4xx_HAL_Driver/Src/stm32l4xx_hal_dac.c **** 
  29:Drivers/STM32L4xx_HAL_Driver/Src/stm32l4xx_hal_dac.c ****     When 2 channels are available, the 2 converters (i.e. channel1 & channel2)
  30:Drivers/STM32L4xx_HAL_Driver/Src/stm32l4xx_hal_dac.c ****     can be used independently or simultaneously (dual mode):
  31:Drivers/STM32L4xx_HAL_Driver/Src/stm32l4xx_hal_dac.c ****       (#) DAC channel1 with DAC_OUT1 (PA4) as output or connected to on-chip
ARM GAS  /tmp/ccnfAKrW.s 			page 2


  32:Drivers/STM32L4xx_HAL_Driver/Src/stm32l4xx_hal_dac.c ****           peripherals.
  33:Drivers/STM32L4xx_HAL_Driver/Src/stm32l4xx_hal_dac.c ****       (#) Whenever present, DAC channel2 with DAC_OUT2 (PA5) as output
  34:Drivers/STM32L4xx_HAL_Driver/Src/stm32l4xx_hal_dac.c ****           or connected to on-chip peripherals.
  35:Drivers/STM32L4xx_HAL_Driver/Src/stm32l4xx_hal_dac.c **** 
  36:Drivers/STM32L4xx_HAL_Driver/Src/stm32l4xx_hal_dac.c ****       *** DAC Triggers ***
  37:Drivers/STM32L4xx_HAL_Driver/Src/stm32l4xx_hal_dac.c ****       ====================
  38:Drivers/STM32L4xx_HAL_Driver/Src/stm32l4xx_hal_dac.c ****     [..]
  39:Drivers/STM32L4xx_HAL_Driver/Src/stm32l4xx_hal_dac.c ****     Digital to Analog conversion can be non-triggered using DAC_TRIGGER_NONE
  40:Drivers/STM32L4xx_HAL_Driver/Src/stm32l4xx_hal_dac.c ****     and DAC_OUT1/DAC_OUT2 is available once writing to DHRx register.
  41:Drivers/STM32L4xx_HAL_Driver/Src/stm32l4xx_hal_dac.c ****     [..]
  42:Drivers/STM32L4xx_HAL_Driver/Src/stm32l4xx_hal_dac.c ****     Digital to Analog conversion can be triggered by:
  43:Drivers/STM32L4xx_HAL_Driver/Src/stm32l4xx_hal_dac.c ****       (#) External event: EXTI Line 9 (any GPIOx_PIN_9) using DAC_TRIGGER_EXT_IT9.
  44:Drivers/STM32L4xx_HAL_Driver/Src/stm32l4xx_hal_dac.c ****           The used pin (GPIOx_PIN_9) must be configured in input mode.
  45:Drivers/STM32L4xx_HAL_Driver/Src/stm32l4xx_hal_dac.c **** 
  46:Drivers/STM32L4xx_HAL_Driver/Src/stm32l4xx_hal_dac.c ****       (#) Timers TRGO: TIM2, TIM3, TIM4, TIM5, TIM6 and TIM7
  47:Drivers/STM32L4xx_HAL_Driver/Src/stm32l4xx_hal_dac.c ****           (DAC_TRIGGER_T2_TRGO, DAC_TRIGGER_T3_TRGO...)
  48:Drivers/STM32L4xx_HAL_Driver/Src/stm32l4xx_hal_dac.c **** 
  49:Drivers/STM32L4xx_HAL_Driver/Src/stm32l4xx_hal_dac.c ****       (#) Software using DAC_TRIGGER_SOFTWARE
  50:Drivers/STM32L4xx_HAL_Driver/Src/stm32l4xx_hal_dac.c **** 
  51:Drivers/STM32L4xx_HAL_Driver/Src/stm32l4xx_hal_dac.c ****       *** DAC Buffer mode feature ***
  52:Drivers/STM32L4xx_HAL_Driver/Src/stm32l4xx_hal_dac.c ****       ===============================
  53:Drivers/STM32L4xx_HAL_Driver/Src/stm32l4xx_hal_dac.c ****       [..]
  54:Drivers/STM32L4xx_HAL_Driver/Src/stm32l4xx_hal_dac.c ****       Each DAC channel integrates an output buffer that can be used to
  55:Drivers/STM32L4xx_HAL_Driver/Src/stm32l4xx_hal_dac.c ****       reduce the output impedance, and to drive external loads directly
  56:Drivers/STM32L4xx_HAL_Driver/Src/stm32l4xx_hal_dac.c ****       without having to add an external operational amplifier.
  57:Drivers/STM32L4xx_HAL_Driver/Src/stm32l4xx_hal_dac.c ****       To enable, the output buffer use
  58:Drivers/STM32L4xx_HAL_Driver/Src/stm32l4xx_hal_dac.c ****       sConfig.DAC_OutputBuffer = DAC_OUTPUTBUFFER_ENABLE;
  59:Drivers/STM32L4xx_HAL_Driver/Src/stm32l4xx_hal_dac.c ****       [..]
  60:Drivers/STM32L4xx_HAL_Driver/Src/stm32l4xx_hal_dac.c ****       (@) Refer to the device datasheet for more details about output
  61:Drivers/STM32L4xx_HAL_Driver/Src/stm32l4xx_hal_dac.c ****           impedance value with and without output buffer.
  62:Drivers/STM32L4xx_HAL_Driver/Src/stm32l4xx_hal_dac.c **** 
  63:Drivers/STM32L4xx_HAL_Driver/Src/stm32l4xx_hal_dac.c ****       *** DAC connect feature ***
  64:Drivers/STM32L4xx_HAL_Driver/Src/stm32l4xx_hal_dac.c ****       ===============================
  65:Drivers/STM32L4xx_HAL_Driver/Src/stm32l4xx_hal_dac.c ****       [..]
  66:Drivers/STM32L4xx_HAL_Driver/Src/stm32l4xx_hal_dac.c ****       Each DAC channel can be connected internally.
  67:Drivers/STM32L4xx_HAL_Driver/Src/stm32l4xx_hal_dac.c ****       To connect, use
  68:Drivers/STM32L4xx_HAL_Driver/Src/stm32l4xx_hal_dac.c ****       sConfig.DAC_ConnectOnChipPeripheral = DAC_CHIPCONNECT_ENABLE;
  69:Drivers/STM32L4xx_HAL_Driver/Src/stm32l4xx_hal_dac.c **** 
  70:Drivers/STM32L4xx_HAL_Driver/Src/stm32l4xx_hal_dac.c ****       *** GPIO configurations guidelines ***
  71:Drivers/STM32L4xx_HAL_Driver/Src/stm32l4xx_hal_dac.c ****       =====================
  72:Drivers/STM32L4xx_HAL_Driver/Src/stm32l4xx_hal_dac.c ****       [..]
  73:Drivers/STM32L4xx_HAL_Driver/Src/stm32l4xx_hal_dac.c ****       When a DAC channel is used (ex channel1 on PA4) and the other is not
  74:Drivers/STM32L4xx_HAL_Driver/Src/stm32l4xx_hal_dac.c ****       (ex channel2 on PA5 is configured in Analog and disabled).
  75:Drivers/STM32L4xx_HAL_Driver/Src/stm32l4xx_hal_dac.c ****       Channel1 may disturb channel2 as coupling effect.
  76:Drivers/STM32L4xx_HAL_Driver/Src/stm32l4xx_hal_dac.c ****       Note that there is no coupling on channel2 as soon as channel2 is turned on.
  77:Drivers/STM32L4xx_HAL_Driver/Src/stm32l4xx_hal_dac.c ****       Coupling on adjacent channel could be avoided as follows:
  78:Drivers/STM32L4xx_HAL_Driver/Src/stm32l4xx_hal_dac.c ****       when unused PA5 is configured as INPUT PULL-UP or DOWN.
  79:Drivers/STM32L4xx_HAL_Driver/Src/stm32l4xx_hal_dac.c ****       PA5 is configured in ANALOG just before it is turned on.
  80:Drivers/STM32L4xx_HAL_Driver/Src/stm32l4xx_hal_dac.c **** 
  81:Drivers/STM32L4xx_HAL_Driver/Src/stm32l4xx_hal_dac.c ****       *** DAC Sample and Hold feature ***
  82:Drivers/STM32L4xx_HAL_Driver/Src/stm32l4xx_hal_dac.c ****       ========================
  83:Drivers/STM32L4xx_HAL_Driver/Src/stm32l4xx_hal_dac.c ****       [..]
  84:Drivers/STM32L4xx_HAL_Driver/Src/stm32l4xx_hal_dac.c ****       For each converter, 2 modes are supported: normal mode and
  85:Drivers/STM32L4xx_HAL_Driver/Src/stm32l4xx_hal_dac.c ****       "sample and hold" mode (i.e. low power mode).
  86:Drivers/STM32L4xx_HAL_Driver/Src/stm32l4xx_hal_dac.c ****       In the sample and hold mode, the DAC core converts data, then holds the
  87:Drivers/STM32L4xx_HAL_Driver/Src/stm32l4xx_hal_dac.c ****       converted voltage on a capacitor. When not converting, the DAC cores and
  88:Drivers/STM32L4xx_HAL_Driver/Src/stm32l4xx_hal_dac.c ****       buffer are completely turned off between samples and the DAC output is
ARM GAS  /tmp/ccnfAKrW.s 			page 3


  89:Drivers/STM32L4xx_HAL_Driver/Src/stm32l4xx_hal_dac.c ****       tri-stated, therefore  reducing the overall power consumption. A new
  90:Drivers/STM32L4xx_HAL_Driver/Src/stm32l4xx_hal_dac.c ****       stabilization period is needed before each new conversion.
  91:Drivers/STM32L4xx_HAL_Driver/Src/stm32l4xx_hal_dac.c **** 
  92:Drivers/STM32L4xx_HAL_Driver/Src/stm32l4xx_hal_dac.c ****       The sample and hold allow setting internal or external voltage @
  93:Drivers/STM32L4xx_HAL_Driver/Src/stm32l4xx_hal_dac.c ****       low power consumption cost (output value can be at any given rate either
  94:Drivers/STM32L4xx_HAL_Driver/Src/stm32l4xx_hal_dac.c ****       by CPU or DMA).
  95:Drivers/STM32L4xx_HAL_Driver/Src/stm32l4xx_hal_dac.c **** 
  96:Drivers/STM32L4xx_HAL_Driver/Src/stm32l4xx_hal_dac.c ****       The Sample and hold block and registers uses either LSI & run in
  97:Drivers/STM32L4xx_HAL_Driver/Src/stm32l4xx_hal_dac.c ****       several power modes: run mode, sleep mode, low power run, low power sleep
  98:Drivers/STM32L4xx_HAL_Driver/Src/stm32l4xx_hal_dac.c ****       mode & stop1 mode.
  99:Drivers/STM32L4xx_HAL_Driver/Src/stm32l4xx_hal_dac.c **** 
 100:Drivers/STM32L4xx_HAL_Driver/Src/stm32l4xx_hal_dac.c ****       Low power stop1 mode allows only static conversion.
 101:Drivers/STM32L4xx_HAL_Driver/Src/stm32l4xx_hal_dac.c **** 
 102:Drivers/STM32L4xx_HAL_Driver/Src/stm32l4xx_hal_dac.c ****       To enable Sample and Hold mode
 103:Drivers/STM32L4xx_HAL_Driver/Src/stm32l4xx_hal_dac.c ****       Enable LSI using HAL_RCC_OscConfig with RCC_OSCILLATORTYPE_LSI &
 104:Drivers/STM32L4xx_HAL_Driver/Src/stm32l4xx_hal_dac.c ****       RCC_LSI_ON parameters.
 105:Drivers/STM32L4xx_HAL_Driver/Src/stm32l4xx_hal_dac.c **** 
 106:Drivers/STM32L4xx_HAL_Driver/Src/stm32l4xx_hal_dac.c ****       Use DAC_InitStructure.DAC_SampleAndHold = DAC_SAMPLEANDHOLD_ENABLE;
 107:Drivers/STM32L4xx_HAL_Driver/Src/stm32l4xx_hal_dac.c ****          & DAC_ChannelConfTypeDef.DAC_SampleAndHoldConfig.DAC_SampleTime,
 108:Drivers/STM32L4xx_HAL_Driver/Src/stm32l4xx_hal_dac.c ****            DAC_HoldTime & DAC_RefreshTime;
 109:Drivers/STM32L4xx_HAL_Driver/Src/stm32l4xx_hal_dac.c **** 
 110:Drivers/STM32L4xx_HAL_Driver/Src/stm32l4xx_hal_dac.c ****        *** DAC calibration feature ***
 111:Drivers/STM32L4xx_HAL_Driver/Src/stm32l4xx_hal_dac.c ****        ===================================
 112:Drivers/STM32L4xx_HAL_Driver/Src/stm32l4xx_hal_dac.c ****       [..]
 113:Drivers/STM32L4xx_HAL_Driver/Src/stm32l4xx_hal_dac.c ****        (#)  The 2 converters (channel1 & channel2) provide calibration capabilities.
 114:Drivers/STM32L4xx_HAL_Driver/Src/stm32l4xx_hal_dac.c ****        (++) Calibration aims at correcting some offset of output buffer.
 115:Drivers/STM32L4xx_HAL_Driver/Src/stm32l4xx_hal_dac.c ****        (++) The DAC uses either factory calibration settings OR user defined
 116:Drivers/STM32L4xx_HAL_Driver/Src/stm32l4xx_hal_dac.c ****            calibration (trimming) settings (i.e. trimming mode).
 117:Drivers/STM32L4xx_HAL_Driver/Src/stm32l4xx_hal_dac.c ****        (++) The user defined settings can be figured out using self calibration
 118:Drivers/STM32L4xx_HAL_Driver/Src/stm32l4xx_hal_dac.c ****            handled by HAL_DACEx_SelfCalibrate.
 119:Drivers/STM32L4xx_HAL_Driver/Src/stm32l4xx_hal_dac.c ****        (++) HAL_DACEx_SelfCalibrate:
 120:Drivers/STM32L4xx_HAL_Driver/Src/stm32l4xx_hal_dac.c ****        (+++) Runs automatically the calibration.
 121:Drivers/STM32L4xx_HAL_Driver/Src/stm32l4xx_hal_dac.c ****        (+++) Enables the user trimming mode
 122:Drivers/STM32L4xx_HAL_Driver/Src/stm32l4xx_hal_dac.c ****        (+++) Updates a structure with trimming values with fresh calibration
 123:Drivers/STM32L4xx_HAL_Driver/Src/stm32l4xx_hal_dac.c ****             results.
 124:Drivers/STM32L4xx_HAL_Driver/Src/stm32l4xx_hal_dac.c ****             The user may store the calibration results for larger
 125:Drivers/STM32L4xx_HAL_Driver/Src/stm32l4xx_hal_dac.c ****             (ex monitoring the trimming as a function of temperature
 126:Drivers/STM32L4xx_HAL_Driver/Src/stm32l4xx_hal_dac.c ****             for instance)
 127:Drivers/STM32L4xx_HAL_Driver/Src/stm32l4xx_hal_dac.c **** 
 128:Drivers/STM32L4xx_HAL_Driver/Src/stm32l4xx_hal_dac.c ****        *** DAC wave generation feature ***
 129:Drivers/STM32L4xx_HAL_Driver/Src/stm32l4xx_hal_dac.c ****        ===================================
 130:Drivers/STM32L4xx_HAL_Driver/Src/stm32l4xx_hal_dac.c ****        [..]
 131:Drivers/STM32L4xx_HAL_Driver/Src/stm32l4xx_hal_dac.c ****        Both DAC channels can be used to generate
 132:Drivers/STM32L4xx_HAL_Driver/Src/stm32l4xx_hal_dac.c ****          (#) Noise wave
 133:Drivers/STM32L4xx_HAL_Driver/Src/stm32l4xx_hal_dac.c ****          (#) Triangle wave
 134:Drivers/STM32L4xx_HAL_Driver/Src/stm32l4xx_hal_dac.c **** 
 135:Drivers/STM32L4xx_HAL_Driver/Src/stm32l4xx_hal_dac.c ****        *** DAC data format ***
 136:Drivers/STM32L4xx_HAL_Driver/Src/stm32l4xx_hal_dac.c ****        =======================
 137:Drivers/STM32L4xx_HAL_Driver/Src/stm32l4xx_hal_dac.c ****        [..]
 138:Drivers/STM32L4xx_HAL_Driver/Src/stm32l4xx_hal_dac.c ****        The DAC data format can be:
 139:Drivers/STM32L4xx_HAL_Driver/Src/stm32l4xx_hal_dac.c ****          (#) 8-bit right alignment using DAC_ALIGN_8B_R
 140:Drivers/STM32L4xx_HAL_Driver/Src/stm32l4xx_hal_dac.c ****          (#) 12-bit left alignment using DAC_ALIGN_12B_L
 141:Drivers/STM32L4xx_HAL_Driver/Src/stm32l4xx_hal_dac.c ****          (#) 12-bit right alignment using DAC_ALIGN_12B_R
 142:Drivers/STM32L4xx_HAL_Driver/Src/stm32l4xx_hal_dac.c **** 
 143:Drivers/STM32L4xx_HAL_Driver/Src/stm32l4xx_hal_dac.c ****        *** DAC data value to voltage correspondence ***
 144:Drivers/STM32L4xx_HAL_Driver/Src/stm32l4xx_hal_dac.c ****        ================================================
 145:Drivers/STM32L4xx_HAL_Driver/Src/stm32l4xx_hal_dac.c ****        [..]
ARM GAS  /tmp/ccnfAKrW.s 			page 4


 146:Drivers/STM32L4xx_HAL_Driver/Src/stm32l4xx_hal_dac.c ****        The analog output voltage on each DAC channel pin is determined
 147:Drivers/STM32L4xx_HAL_Driver/Src/stm32l4xx_hal_dac.c ****        by the following equation:
 148:Drivers/STM32L4xx_HAL_Driver/Src/stm32l4xx_hal_dac.c ****        [..]
 149:Drivers/STM32L4xx_HAL_Driver/Src/stm32l4xx_hal_dac.c ****        DAC_OUTx = VREF+ * DOR / 4095
 150:Drivers/STM32L4xx_HAL_Driver/Src/stm32l4xx_hal_dac.c ****        (+) with  DOR is the Data Output Register
 151:Drivers/STM32L4xx_HAL_Driver/Src/stm32l4xx_hal_dac.c ****        [..]
 152:Drivers/STM32L4xx_HAL_Driver/Src/stm32l4xx_hal_dac.c ****           VEF+ is the input voltage reference (refer to the device datasheet)
 153:Drivers/STM32L4xx_HAL_Driver/Src/stm32l4xx_hal_dac.c ****        [..]
 154:Drivers/STM32L4xx_HAL_Driver/Src/stm32l4xx_hal_dac.c ****         e.g. To set DAC_OUT1 to 0.7V, use
 155:Drivers/STM32L4xx_HAL_Driver/Src/stm32l4xx_hal_dac.c ****        (+) Assuming that VREF+ = 3.3V, DAC_OUT1 = (3.3 * 868) / 4095 = 0.7V
 156:Drivers/STM32L4xx_HAL_Driver/Src/stm32l4xx_hal_dac.c **** 
 157:Drivers/STM32L4xx_HAL_Driver/Src/stm32l4xx_hal_dac.c ****        *** DMA requests ***
 158:Drivers/STM32L4xx_HAL_Driver/Src/stm32l4xx_hal_dac.c ****        =====================
 159:Drivers/STM32L4xx_HAL_Driver/Src/stm32l4xx_hal_dac.c ****        [..]
 160:Drivers/STM32L4xx_HAL_Driver/Src/stm32l4xx_hal_dac.c ****        A DMA1 request can be generated when an external trigger (but not a software trigger)
 161:Drivers/STM32L4xx_HAL_Driver/Src/stm32l4xx_hal_dac.c ****        occurs if DMA1 requests are enabled using HAL_DAC_Start_DMA().
 162:Drivers/STM32L4xx_HAL_Driver/Src/stm32l4xx_hal_dac.c ****        DMA requests are mapped as following:
 163:Drivers/STM32L4xx_HAL_Driver/Src/stm32l4xx_hal_dac.c ****        (#) When DMAMUX is NOT present: 
 164:Drivers/STM32L4xx_HAL_Driver/Src/stm32l4xx_hal_dac.c ****            DMA1 requests are mapped as following:
 165:Drivers/STM32L4xx_HAL_Driver/Src/stm32l4xx_hal_dac.c ****              (+) DAC channel1 mapped on DMA1 request 6 / channel3
 166:Drivers/STM32L4xx_HAL_Driver/Src/stm32l4xx_hal_dac.c ****              (+) DAC channel2 mapped on DMA1 request 5 / channel4
 167:Drivers/STM32L4xx_HAL_Driver/Src/stm32l4xx_hal_dac.c ****            DMA2 requests are mapped as following:
 168:Drivers/STM32L4xx_HAL_Driver/Src/stm32l4xx_hal_dac.c ****              (+) DAC channel1 mapped on DMA2 request 3 / channel4
 169:Drivers/STM32L4xx_HAL_Driver/Src/stm32l4xx_hal_dac.c ****              (+) DAC channel2 mapped on DMA2 request 3 / channel5
 170:Drivers/STM32L4xx_HAL_Driver/Src/stm32l4xx_hal_dac.c ****        (#) When DMAMUX is present: 
 171:Drivers/STM32L4xx_HAL_Driver/Src/stm32l4xx_hal_dac.c ****              (+) DAC channel1 mapped on DMA1/DMA2 request 6 (can be any DMA channel)
 172:Drivers/STM32L4xx_HAL_Driver/Src/stm32l4xx_hal_dac.c ****              (+) DAC channel2 mapped on DMA1/DMA2 request 7 (can be any DMA channel)
 173:Drivers/STM32L4xx_HAL_Driver/Src/stm32l4xx_hal_dac.c **** 
 174:Drivers/STM32L4xx_HAL_Driver/Src/stm32l4xx_hal_dac.c ****        *** High frequency interface mode ***
 175:Drivers/STM32L4xx_HAL_Driver/Src/stm32l4xx_hal_dac.c ****        =====================================
 176:Drivers/STM32L4xx_HAL_Driver/Src/stm32l4xx_hal_dac.c ****        [..]
 177:Drivers/STM32L4xx_HAL_Driver/Src/stm32l4xx_hal_dac.c ****        The high frequency interface informs DAC instance about the bus frequency in use.
 178:Drivers/STM32L4xx_HAL_Driver/Src/stm32l4xx_hal_dac.c ****        It is mandatory information for DAC (as internal timing of DAC is bus frequency dependent)
 179:Drivers/STM32L4xx_HAL_Driver/Src/stm32l4xx_hal_dac.c ****        provided thanks to parameter DAC_HighFrequency handled in HAL_DAC_ConfigChannel () function.
 180:Drivers/STM32L4xx_HAL_Driver/Src/stm32l4xx_hal_dac.c ****        Use of DAC_HIGH_FREQUENCY_INTERFACE_MODE_AUTOMATIC value of DAC_HighFrequency is recommended
 181:Drivers/STM32L4xx_HAL_Driver/Src/stm32l4xx_hal_dac.c ****        function figured out the correct setting.
 182:Drivers/STM32L4xx_HAL_Driver/Src/stm32l4xx_hal_dac.c ****        The high frequency mode is same for all converters of a same DAC instance. Either same
 183:Drivers/STM32L4xx_HAL_Driver/Src/stm32l4xx_hal_dac.c ****        parameter DAC_HighFrequency is used for all DAC converters or again self
 184:Drivers/STM32L4xx_HAL_Driver/Src/stm32l4xx_hal_dac.c ****        DAC_HIGH_FREQUENCY_INTERFACE_MODE_AUTOMATIC detection parameter.
 185:Drivers/STM32L4xx_HAL_Driver/Src/stm32l4xx_hal_dac.c **** 
 186:Drivers/STM32L4xx_HAL_Driver/Src/stm32l4xx_hal_dac.c ****      [..]
 187:Drivers/STM32L4xx_HAL_Driver/Src/stm32l4xx_hal_dac.c ****     (@) For Dual mode and specific signal (Triangle and noise) generation please
 188:Drivers/STM32L4xx_HAL_Driver/Src/stm32l4xx_hal_dac.c ****         refer to Extended Features Driver description
 189:Drivers/STM32L4xx_HAL_Driver/Src/stm32l4xx_hal_dac.c **** 
 190:Drivers/STM32L4xx_HAL_Driver/Src/stm32l4xx_hal_dac.c ****                       ##### How to use this driver #####
 191:Drivers/STM32L4xx_HAL_Driver/Src/stm32l4xx_hal_dac.c ****   ==============================================================================
 192:Drivers/STM32L4xx_HAL_Driver/Src/stm32l4xx_hal_dac.c ****     [..]
 193:Drivers/STM32L4xx_HAL_Driver/Src/stm32l4xx_hal_dac.c ****       (+) DAC APB clock must be enabled to get write access to DAC
 194:Drivers/STM32L4xx_HAL_Driver/Src/stm32l4xx_hal_dac.c ****           registers using HAL_DAC_Init()
 195:Drivers/STM32L4xx_HAL_Driver/Src/stm32l4xx_hal_dac.c ****       (+) Configure DAC_OUTx (DAC_OUT1: PA4, DAC_OUT2: PA5) in analog mode.
 196:Drivers/STM32L4xx_HAL_Driver/Src/stm32l4xx_hal_dac.c ****       (+) Configure the DAC channel using HAL_DAC_ConfigChannel() function.
 197:Drivers/STM32L4xx_HAL_Driver/Src/stm32l4xx_hal_dac.c ****       (+) Enable the DAC channel using HAL_DAC_Start() or HAL_DAC_Start_DMA() functions.
 198:Drivers/STM32L4xx_HAL_Driver/Src/stm32l4xx_hal_dac.c **** 
 199:Drivers/STM32L4xx_HAL_Driver/Src/stm32l4xx_hal_dac.c ****      *** Calibration mode IO operation ***
 200:Drivers/STM32L4xx_HAL_Driver/Src/stm32l4xx_hal_dac.c ****      ======================================
 201:Drivers/STM32L4xx_HAL_Driver/Src/stm32l4xx_hal_dac.c ****      [..]
 202:Drivers/STM32L4xx_HAL_Driver/Src/stm32l4xx_hal_dac.c ****        (+) Retrieve the factory trimming (calibration settings) using HAL_DACEx_GetTrimOffset()
ARM GAS  /tmp/ccnfAKrW.s 			page 5


 203:Drivers/STM32L4xx_HAL_Driver/Src/stm32l4xx_hal_dac.c ****        (+) Run the calibration using HAL_DACEx_SelfCalibrate()
 204:Drivers/STM32L4xx_HAL_Driver/Src/stm32l4xx_hal_dac.c ****        (+) Update the trimming while DAC running using HAL_DACEx_SetUserTrimming()
 205:Drivers/STM32L4xx_HAL_Driver/Src/stm32l4xx_hal_dac.c **** 
 206:Drivers/STM32L4xx_HAL_Driver/Src/stm32l4xx_hal_dac.c ****      *** Polling mode IO operation ***
 207:Drivers/STM32L4xx_HAL_Driver/Src/stm32l4xx_hal_dac.c ****      =================================
 208:Drivers/STM32L4xx_HAL_Driver/Src/stm32l4xx_hal_dac.c ****      [..]
 209:Drivers/STM32L4xx_HAL_Driver/Src/stm32l4xx_hal_dac.c ****        (+) Start the DAC peripheral using HAL_DAC_Start()
 210:Drivers/STM32L4xx_HAL_Driver/Src/stm32l4xx_hal_dac.c ****        (+) To read the DAC last data output value, use the HAL_DAC_GetValue() function.
 211:Drivers/STM32L4xx_HAL_Driver/Src/stm32l4xx_hal_dac.c ****        (+) Stop the DAC peripheral using HAL_DAC_Stop()
 212:Drivers/STM32L4xx_HAL_Driver/Src/stm32l4xx_hal_dac.c **** 
 213:Drivers/STM32L4xx_HAL_Driver/Src/stm32l4xx_hal_dac.c ****      *** DMA mode IO operation ***
 214:Drivers/STM32L4xx_HAL_Driver/Src/stm32l4xx_hal_dac.c ****      ==============================
 215:Drivers/STM32L4xx_HAL_Driver/Src/stm32l4xx_hal_dac.c ****      [..]
 216:Drivers/STM32L4xx_HAL_Driver/Src/stm32l4xx_hal_dac.c ****        (+) Start the DAC peripheral using HAL_DAC_Start_DMA(), at this stage the user specify the l
 217:Drivers/STM32L4xx_HAL_Driver/Src/stm32l4xx_hal_dac.c ****            of data to be transferred at each end of conversion
 218:Drivers/STM32L4xx_HAL_Driver/Src/stm32l4xx_hal_dac.c ****            First issued trigger will start the conversion of the value previously set by HAL_DAC_Se
 219:Drivers/STM32L4xx_HAL_Driver/Src/stm32l4xx_hal_dac.c ****        (+) At the middle of data transfer HAL_DAC_ConvHalfCpltCallbackCh1() or HAL_DACEx_ConvHalfCp
 220:Drivers/STM32L4xx_HAL_Driver/Src/stm32l4xx_hal_dac.c ****            function is executed and user can add his own code by customization of function pointer
 221:Drivers/STM32L4xx_HAL_Driver/Src/stm32l4xx_hal_dac.c ****            HAL_DAC_ConvHalfCpltCallbackCh1() or HAL_DACEx_ConvHalfCpltCallbackCh2()
 222:Drivers/STM32L4xx_HAL_Driver/Src/stm32l4xx_hal_dac.c ****        (+) At The end of data transfer HAL_DAC_ConvCpltCallbackCh1() or HAL_DACEx_ConvHalfCpltCallb
 223:Drivers/STM32L4xx_HAL_Driver/Src/stm32l4xx_hal_dac.c ****            function is executed and user can add his own code by customization of function pointer
 224:Drivers/STM32L4xx_HAL_Driver/Src/stm32l4xx_hal_dac.c ****            HAL_DAC_ConvCpltCallbackCh1() or HAL_DACEx_ConvHalfCpltCallbackCh2()
 225:Drivers/STM32L4xx_HAL_Driver/Src/stm32l4xx_hal_dac.c ****        (+) In case of transfer Error, HAL_DAC_ErrorCallbackCh1() function is executed and user can
 226:Drivers/STM32L4xx_HAL_Driver/Src/stm32l4xx_hal_dac.c ****             add his own code by customization of function pointer HAL_DAC_ErrorCallbackCh1
 227:Drivers/STM32L4xx_HAL_Driver/Src/stm32l4xx_hal_dac.c ****        (+) In case of DMA underrun, DAC interruption triggers and execute internal function HAL_DAC
 228:Drivers/STM32L4xx_HAL_Driver/Src/stm32l4xx_hal_dac.c ****            HAL_DAC_DMAUnderrunCallbackCh1() or HAL_DACEx_DMAUnderrunCallbackCh2()
 229:Drivers/STM32L4xx_HAL_Driver/Src/stm32l4xx_hal_dac.c ****            function is executed and user can add his own code by customization of function pointer
 230:Drivers/STM32L4xx_HAL_Driver/Src/stm32l4xx_hal_dac.c ****            HAL_DAC_DMAUnderrunCallbackCh1() or HAL_DACEx_DMAUnderrunCallbackCh2() and
 231:Drivers/STM32L4xx_HAL_Driver/Src/stm32l4xx_hal_dac.c ****            add his own code by customization of function pointer HAL_DAC_ErrorCallbackCh1()
 232:Drivers/STM32L4xx_HAL_Driver/Src/stm32l4xx_hal_dac.c ****        (+) Stop the DAC peripheral using HAL_DAC_Stop_DMA()
 233:Drivers/STM32L4xx_HAL_Driver/Src/stm32l4xx_hal_dac.c **** 
 234:Drivers/STM32L4xx_HAL_Driver/Src/stm32l4xx_hal_dac.c ****     *** Callback registration ***
 235:Drivers/STM32L4xx_HAL_Driver/Src/stm32l4xx_hal_dac.c ****     =============================================
 236:Drivers/STM32L4xx_HAL_Driver/Src/stm32l4xx_hal_dac.c ****     [..]
 237:Drivers/STM32L4xx_HAL_Driver/Src/stm32l4xx_hal_dac.c ****       The compilation define  USE_HAL_DAC_REGISTER_CALLBACKS when set to 1
 238:Drivers/STM32L4xx_HAL_Driver/Src/stm32l4xx_hal_dac.c ****       allows the user to configure dynamically the driver callbacks.
 239:Drivers/STM32L4xx_HAL_Driver/Src/stm32l4xx_hal_dac.c **** 
 240:Drivers/STM32L4xx_HAL_Driver/Src/stm32l4xx_hal_dac.c ****     Use Functions @ref HAL_DAC_RegisterCallback() to register a user callback,
 241:Drivers/STM32L4xx_HAL_Driver/Src/stm32l4xx_hal_dac.c ****       it allows to register following callbacks:
 242:Drivers/STM32L4xx_HAL_Driver/Src/stm32l4xx_hal_dac.c ****       (+) ConvCpltCallbackCh1     : callback when a half transfer is completed on Ch1.
 243:Drivers/STM32L4xx_HAL_Driver/Src/stm32l4xx_hal_dac.c ****       (+) ConvHalfCpltCallbackCh1 : callback when a transfer is completed on Ch1.
 244:Drivers/STM32L4xx_HAL_Driver/Src/stm32l4xx_hal_dac.c ****       (+) ErrorCallbackCh1        : callback when an error occurs on Ch1.
 245:Drivers/STM32L4xx_HAL_Driver/Src/stm32l4xx_hal_dac.c ****       (+) DMAUnderrunCallbackCh1  : callback when an underrun error occurs on Ch1.
 246:Drivers/STM32L4xx_HAL_Driver/Src/stm32l4xx_hal_dac.c ****       (+) ConvCpltCallbackCh2     : callback when a half transfer is completed on Ch2.
 247:Drivers/STM32L4xx_HAL_Driver/Src/stm32l4xx_hal_dac.c ****       (+) ConvHalfCpltCallbackCh2 : callback when a transfer is completed on Ch2.
 248:Drivers/STM32L4xx_HAL_Driver/Src/stm32l4xx_hal_dac.c ****       (+) ErrorCallbackCh2        : callback when an error occurs on Ch2.
 249:Drivers/STM32L4xx_HAL_Driver/Src/stm32l4xx_hal_dac.c ****       (+) DMAUnderrunCallbackCh2  : callback when an underrun error occurs on Ch2.
 250:Drivers/STM32L4xx_HAL_Driver/Src/stm32l4xx_hal_dac.c ****       (+) MspInitCallback         : DAC MspInit.
 251:Drivers/STM32L4xx_HAL_Driver/Src/stm32l4xx_hal_dac.c ****       (+) MspDeInitCallback       : DAC MspdeInit.
 252:Drivers/STM32L4xx_HAL_Driver/Src/stm32l4xx_hal_dac.c ****       This function takes as parameters the HAL peripheral handle, the Callback ID
 253:Drivers/STM32L4xx_HAL_Driver/Src/stm32l4xx_hal_dac.c ****       and a pointer to the user callback function.
 254:Drivers/STM32L4xx_HAL_Driver/Src/stm32l4xx_hal_dac.c **** 
 255:Drivers/STM32L4xx_HAL_Driver/Src/stm32l4xx_hal_dac.c ****     Use function @ref HAL_DAC_UnRegisterCallback() to reset a callback to the default
 256:Drivers/STM32L4xx_HAL_Driver/Src/stm32l4xx_hal_dac.c ****       weak (surcharged) function. It allows to reset following callbacks:
 257:Drivers/STM32L4xx_HAL_Driver/Src/stm32l4xx_hal_dac.c ****       (+) ConvCpltCallbackCh1     : callback when a half transfer is completed on Ch1.
 258:Drivers/STM32L4xx_HAL_Driver/Src/stm32l4xx_hal_dac.c ****       (+) ConvHalfCpltCallbackCh1 : callback when a transfer is completed on Ch1.
 259:Drivers/STM32L4xx_HAL_Driver/Src/stm32l4xx_hal_dac.c ****       (+) ErrorCallbackCh1        : callback when an error occurs on Ch1.
ARM GAS  /tmp/ccnfAKrW.s 			page 6


 260:Drivers/STM32L4xx_HAL_Driver/Src/stm32l4xx_hal_dac.c ****       (+) DMAUnderrunCallbackCh1  : callback when an underrun error occurs on Ch1.
 261:Drivers/STM32L4xx_HAL_Driver/Src/stm32l4xx_hal_dac.c ****       (+) ConvCpltCallbackCh2     : callback when a half transfer is completed on Ch2.
 262:Drivers/STM32L4xx_HAL_Driver/Src/stm32l4xx_hal_dac.c ****       (+) ConvHalfCpltCallbackCh2 : callback when a transfer is completed on Ch2.
 263:Drivers/STM32L4xx_HAL_Driver/Src/stm32l4xx_hal_dac.c ****       (+) ErrorCallbackCh2        : callback when an error occurs on Ch2.
 264:Drivers/STM32L4xx_HAL_Driver/Src/stm32l4xx_hal_dac.c ****       (+) DMAUnderrunCallbackCh2  : callback when an underrun error occurs on Ch2.
 265:Drivers/STM32L4xx_HAL_Driver/Src/stm32l4xx_hal_dac.c ****       (+) MspInitCallback         : DAC MspInit.
 266:Drivers/STM32L4xx_HAL_Driver/Src/stm32l4xx_hal_dac.c ****       (+) MspDeInitCallback       : DAC MspdeInit.
 267:Drivers/STM32L4xx_HAL_Driver/Src/stm32l4xx_hal_dac.c ****       (+) All Callbacks
 268:Drivers/STM32L4xx_HAL_Driver/Src/stm32l4xx_hal_dac.c ****       This function) takes as parameters the HAL peripheral handle and the Callback ID.
 269:Drivers/STM32L4xx_HAL_Driver/Src/stm32l4xx_hal_dac.c **** 
 270:Drivers/STM32L4xx_HAL_Driver/Src/stm32l4xx_hal_dac.c ****       By default, after the @ref HAL_DAC_Init and if the state is HAL_DAC_STATE_RESET
 271:Drivers/STM32L4xx_HAL_Driver/Src/stm32l4xx_hal_dac.c ****       all callbacks are reset to the corresponding legacy weak (surcharged) functions.
 272:Drivers/STM32L4xx_HAL_Driver/Src/stm32l4xx_hal_dac.c ****       Exception done for MspInit and MspDeInit callbacks that are respectively
 273:Drivers/STM32L4xx_HAL_Driver/Src/stm32l4xx_hal_dac.c ****       reset to the legacy weak (surcharged) functions in the @ref HAL_DAC_Init
 274:Drivers/STM32L4xx_HAL_Driver/Src/stm32l4xx_hal_dac.c ****       and @ref  HAL_DAC_DeInit only when these callbacks are null (not registered beforehand).
 275:Drivers/STM32L4xx_HAL_Driver/Src/stm32l4xx_hal_dac.c ****       If not, MspInit or MspDeInit are not null, the @ref HAL_DAC_Init and @ref HAL_DAC_DeInit
 276:Drivers/STM32L4xx_HAL_Driver/Src/stm32l4xx_hal_dac.c ****       keep and use the user MspInit/MspDeInit callbacks (registered beforehand)
 277:Drivers/STM32L4xx_HAL_Driver/Src/stm32l4xx_hal_dac.c **** 
 278:Drivers/STM32L4xx_HAL_Driver/Src/stm32l4xx_hal_dac.c ****       Callbacks can be registered/unregistered in READY state only.
 279:Drivers/STM32L4xx_HAL_Driver/Src/stm32l4xx_hal_dac.c ****       Exception done for MspInit/MspDeInit callbacks that can be registered/unregistered
 280:Drivers/STM32L4xx_HAL_Driver/Src/stm32l4xx_hal_dac.c ****       in READY or RESET state, thus registered (user) MspInit/DeInit callbacks can be used
 281:Drivers/STM32L4xx_HAL_Driver/Src/stm32l4xx_hal_dac.c ****       during the Init/DeInit.
 282:Drivers/STM32L4xx_HAL_Driver/Src/stm32l4xx_hal_dac.c ****       In that case first register the MspInit/MspDeInit user callbacks
 283:Drivers/STM32L4xx_HAL_Driver/Src/stm32l4xx_hal_dac.c ****       using @ref HAL_DAC_RegisterCallback before calling @ref HAL_DAC_DeInit
 284:Drivers/STM32L4xx_HAL_Driver/Src/stm32l4xx_hal_dac.c ****       or @ref HAL_DAC_Init function.
 285:Drivers/STM32L4xx_HAL_Driver/Src/stm32l4xx_hal_dac.c **** 
 286:Drivers/STM32L4xx_HAL_Driver/Src/stm32l4xx_hal_dac.c ****       When The compilation define USE_HAL_DAC_REGISTER_CALLBACKS is set to 0 or
 287:Drivers/STM32L4xx_HAL_Driver/Src/stm32l4xx_hal_dac.c ****       not defined, the callback registering feature is not available
 288:Drivers/STM32L4xx_HAL_Driver/Src/stm32l4xx_hal_dac.c ****       and weak (surcharged) callbacks are used.
 289:Drivers/STM32L4xx_HAL_Driver/Src/stm32l4xx_hal_dac.c **** 
 290:Drivers/STM32L4xx_HAL_Driver/Src/stm32l4xx_hal_dac.c ****      *** DAC HAL driver macros list ***
 291:Drivers/STM32L4xx_HAL_Driver/Src/stm32l4xx_hal_dac.c ****      =============================================
 292:Drivers/STM32L4xx_HAL_Driver/Src/stm32l4xx_hal_dac.c ****      [..]
 293:Drivers/STM32L4xx_HAL_Driver/Src/stm32l4xx_hal_dac.c ****        Below the list of most used macros in DAC HAL driver.
 294:Drivers/STM32L4xx_HAL_Driver/Src/stm32l4xx_hal_dac.c **** 
 295:Drivers/STM32L4xx_HAL_Driver/Src/stm32l4xx_hal_dac.c ****       (+) __HAL_DAC_ENABLE : Enable the DAC peripheral
 296:Drivers/STM32L4xx_HAL_Driver/Src/stm32l4xx_hal_dac.c ****       (+) __HAL_DAC_DISABLE : Disable the DAC peripheral
 297:Drivers/STM32L4xx_HAL_Driver/Src/stm32l4xx_hal_dac.c ****       (+) __HAL_DAC_CLEAR_FLAG: Clear the DAC's pending flags
 298:Drivers/STM32L4xx_HAL_Driver/Src/stm32l4xx_hal_dac.c ****       (+) __HAL_DAC_GET_FLAG: Get the selected DAC's flag status
 299:Drivers/STM32L4xx_HAL_Driver/Src/stm32l4xx_hal_dac.c **** 
 300:Drivers/STM32L4xx_HAL_Driver/Src/stm32l4xx_hal_dac.c ****      [..]
 301:Drivers/STM32L4xx_HAL_Driver/Src/stm32l4xx_hal_dac.c ****       (@) You can refer to the DAC HAL driver header file for more useful macros
 302:Drivers/STM32L4xx_HAL_Driver/Src/stm32l4xx_hal_dac.c **** 
 303:Drivers/STM32L4xx_HAL_Driver/Src/stm32l4xx_hal_dac.c ****  @endverbatim
 304:Drivers/STM32L4xx_HAL_Driver/Src/stm32l4xx_hal_dac.c ****   ******************************************************************************
 305:Drivers/STM32L4xx_HAL_Driver/Src/stm32l4xx_hal_dac.c ****   * @attention
 306:Drivers/STM32L4xx_HAL_Driver/Src/stm32l4xx_hal_dac.c ****   *
 307:Drivers/STM32L4xx_HAL_Driver/Src/stm32l4xx_hal_dac.c ****   * <h2><center>&copy; Copyright (c) 2017 STMicroelectronics.
 308:Drivers/STM32L4xx_HAL_Driver/Src/stm32l4xx_hal_dac.c ****   * All rights reserved.</center></h2>
 309:Drivers/STM32L4xx_HAL_Driver/Src/stm32l4xx_hal_dac.c ****   *
 310:Drivers/STM32L4xx_HAL_Driver/Src/stm32l4xx_hal_dac.c ****   * This software component is licensed by ST under BSD 3-Clause license,
 311:Drivers/STM32L4xx_HAL_Driver/Src/stm32l4xx_hal_dac.c ****   * the "License"; You may not use this file except in compliance with the
 312:Drivers/STM32L4xx_HAL_Driver/Src/stm32l4xx_hal_dac.c ****   * License. You may obtain a copy of the License at:
 313:Drivers/STM32L4xx_HAL_Driver/Src/stm32l4xx_hal_dac.c ****   *                        opensource.org/licenses/BSD-3-Clause
 314:Drivers/STM32L4xx_HAL_Driver/Src/stm32l4xx_hal_dac.c ****   *
 315:Drivers/STM32L4xx_HAL_Driver/Src/stm32l4xx_hal_dac.c ****   ******************************************************************************
 316:Drivers/STM32L4xx_HAL_Driver/Src/stm32l4xx_hal_dac.c ****   */
ARM GAS  /tmp/ccnfAKrW.s 			page 7


 317:Drivers/STM32L4xx_HAL_Driver/Src/stm32l4xx_hal_dac.c **** 
 318:Drivers/STM32L4xx_HAL_Driver/Src/stm32l4xx_hal_dac.c **** /* Includes ------------------------------------------------------------------*/
 319:Drivers/STM32L4xx_HAL_Driver/Src/stm32l4xx_hal_dac.c **** #include "stm32l4xx_hal.h"
 320:Drivers/STM32L4xx_HAL_Driver/Src/stm32l4xx_hal_dac.c **** 
 321:Drivers/STM32L4xx_HAL_Driver/Src/stm32l4xx_hal_dac.c **** /** @addtogroup STM32L4xx_HAL_Driver
 322:Drivers/STM32L4xx_HAL_Driver/Src/stm32l4xx_hal_dac.c ****   * @{
 323:Drivers/STM32L4xx_HAL_Driver/Src/stm32l4xx_hal_dac.c ****   */
 324:Drivers/STM32L4xx_HAL_Driver/Src/stm32l4xx_hal_dac.c **** 
 325:Drivers/STM32L4xx_HAL_Driver/Src/stm32l4xx_hal_dac.c **** #ifdef HAL_DAC_MODULE_ENABLED
 326:Drivers/STM32L4xx_HAL_Driver/Src/stm32l4xx_hal_dac.c **** #if defined(DAC1)
 327:Drivers/STM32L4xx_HAL_Driver/Src/stm32l4xx_hal_dac.c **** 
 328:Drivers/STM32L4xx_HAL_Driver/Src/stm32l4xx_hal_dac.c ****   /** @defgroup DAC DAC
 329:Drivers/STM32L4xx_HAL_Driver/Src/stm32l4xx_hal_dac.c ****   * @brief DAC driver modules
 330:Drivers/STM32L4xx_HAL_Driver/Src/stm32l4xx_hal_dac.c ****   * @{
 331:Drivers/STM32L4xx_HAL_Driver/Src/stm32l4xx_hal_dac.c ****   */
 332:Drivers/STM32L4xx_HAL_Driver/Src/stm32l4xx_hal_dac.c **** 
 333:Drivers/STM32L4xx_HAL_Driver/Src/stm32l4xx_hal_dac.c **** /* Private typedef -----------------------------------------------------------*/
 334:Drivers/STM32L4xx_HAL_Driver/Src/stm32l4xx_hal_dac.c **** /* Private define ------------------------------------------------------------*/
 335:Drivers/STM32L4xx_HAL_Driver/Src/stm32l4xx_hal_dac.c **** /* Private constants ---------------------------------------------------------*/
 336:Drivers/STM32L4xx_HAL_Driver/Src/stm32l4xx_hal_dac.c **** /** @addtogroup DAC_Private_Constants DAC Private Constants
 337:Drivers/STM32L4xx_HAL_Driver/Src/stm32l4xx_hal_dac.c ****   * @{
 338:Drivers/STM32L4xx_HAL_Driver/Src/stm32l4xx_hal_dac.c ****   */
 339:Drivers/STM32L4xx_HAL_Driver/Src/stm32l4xx_hal_dac.c **** #define TIMEOUT_DAC_CALIBCONFIG        1U         /* 1   ms        */
 340:Drivers/STM32L4xx_HAL_Driver/Src/stm32l4xx_hal_dac.c **** #define HFSEL_ENABLE_THRESHOLD_80MHZ   80000000U  /* 80 MHz        */
 341:Drivers/STM32L4xx_HAL_Driver/Src/stm32l4xx_hal_dac.c **** 
 342:Drivers/STM32L4xx_HAL_Driver/Src/stm32l4xx_hal_dac.c **** /**
 343:Drivers/STM32L4xx_HAL_Driver/Src/stm32l4xx_hal_dac.c ****   * @}
 344:Drivers/STM32L4xx_HAL_Driver/Src/stm32l4xx_hal_dac.c ****   */
 345:Drivers/STM32L4xx_HAL_Driver/Src/stm32l4xx_hal_dac.c **** 
 346:Drivers/STM32L4xx_HAL_Driver/Src/stm32l4xx_hal_dac.c **** /* Private macro -------------------------------------------------------------*/
 347:Drivers/STM32L4xx_HAL_Driver/Src/stm32l4xx_hal_dac.c **** /* Private variables ---------------------------------------------------------*/
 348:Drivers/STM32L4xx_HAL_Driver/Src/stm32l4xx_hal_dac.c **** /* Private function prototypes -----------------------------------------------*/
 349:Drivers/STM32L4xx_HAL_Driver/Src/stm32l4xx_hal_dac.c **** /* Exported functions -------------------------------------------------------*/
 350:Drivers/STM32L4xx_HAL_Driver/Src/stm32l4xx_hal_dac.c **** 
 351:Drivers/STM32L4xx_HAL_Driver/Src/stm32l4xx_hal_dac.c **** /** @defgroup DAC_Exported_Functions DAC Exported Functions
 352:Drivers/STM32L4xx_HAL_Driver/Src/stm32l4xx_hal_dac.c ****   * @{
 353:Drivers/STM32L4xx_HAL_Driver/Src/stm32l4xx_hal_dac.c ****   */
 354:Drivers/STM32L4xx_HAL_Driver/Src/stm32l4xx_hal_dac.c **** 
 355:Drivers/STM32L4xx_HAL_Driver/Src/stm32l4xx_hal_dac.c **** /** @defgroup DAC_Exported_Functions_Group1 Initialization and de-initialization functions
 356:Drivers/STM32L4xx_HAL_Driver/Src/stm32l4xx_hal_dac.c ****  *  @brief    Initialization and Configuration functions
 357:Drivers/STM32L4xx_HAL_Driver/Src/stm32l4xx_hal_dac.c ****  *
 358:Drivers/STM32L4xx_HAL_Driver/Src/stm32l4xx_hal_dac.c **** @verbatim
 359:Drivers/STM32L4xx_HAL_Driver/Src/stm32l4xx_hal_dac.c ****   ==============================================================================
 360:Drivers/STM32L4xx_HAL_Driver/Src/stm32l4xx_hal_dac.c ****               ##### Initialization and de-initialization functions #####
 361:Drivers/STM32L4xx_HAL_Driver/Src/stm32l4xx_hal_dac.c ****   ==============================================================================
 362:Drivers/STM32L4xx_HAL_Driver/Src/stm32l4xx_hal_dac.c ****     [..]  This section provides functions allowing to:
 363:Drivers/STM32L4xx_HAL_Driver/Src/stm32l4xx_hal_dac.c ****       (+) Initialize and configure the DAC.
 364:Drivers/STM32L4xx_HAL_Driver/Src/stm32l4xx_hal_dac.c ****       (+) De-initialize the DAC.
 365:Drivers/STM32L4xx_HAL_Driver/Src/stm32l4xx_hal_dac.c **** 
 366:Drivers/STM32L4xx_HAL_Driver/Src/stm32l4xx_hal_dac.c **** @endverbatim
 367:Drivers/STM32L4xx_HAL_Driver/Src/stm32l4xx_hal_dac.c ****   * @{
 368:Drivers/STM32L4xx_HAL_Driver/Src/stm32l4xx_hal_dac.c ****   */
 369:Drivers/STM32L4xx_HAL_Driver/Src/stm32l4xx_hal_dac.c **** 
 370:Drivers/STM32L4xx_HAL_Driver/Src/stm32l4xx_hal_dac.c **** /**
 371:Drivers/STM32L4xx_HAL_Driver/Src/stm32l4xx_hal_dac.c ****   * @brief  Initialize the DAC peripheral according to the specified parameters
 372:Drivers/STM32L4xx_HAL_Driver/Src/stm32l4xx_hal_dac.c ****   *         in the DAC_InitStruct and initialize the associated handle.
 373:Drivers/STM32L4xx_HAL_Driver/Src/stm32l4xx_hal_dac.c ****   * @param  hdac pointer to a DAC_HandleTypeDef structure that contains
ARM GAS  /tmp/ccnfAKrW.s 			page 8


 374:Drivers/STM32L4xx_HAL_Driver/Src/stm32l4xx_hal_dac.c ****   *         the configuration information for the specified DAC.
 375:Drivers/STM32L4xx_HAL_Driver/Src/stm32l4xx_hal_dac.c ****   * @retval HAL status
 376:Drivers/STM32L4xx_HAL_Driver/Src/stm32l4xx_hal_dac.c ****   */
 377:Drivers/STM32L4xx_HAL_Driver/Src/stm32l4xx_hal_dac.c **** HAL_StatusTypeDef HAL_DAC_Init(DAC_HandleTypeDef *hdac)
 378:Drivers/STM32L4xx_HAL_Driver/Src/stm32l4xx_hal_dac.c **** {
 379:Drivers/STM32L4xx_HAL_Driver/Src/stm32l4xx_hal_dac.c ****   /* Check DAC handle */
 380:Drivers/STM32L4xx_HAL_Driver/Src/stm32l4xx_hal_dac.c ****   if (hdac == NULL)
 381:Drivers/STM32L4xx_HAL_Driver/Src/stm32l4xx_hal_dac.c ****   {
 382:Drivers/STM32L4xx_HAL_Driver/Src/stm32l4xx_hal_dac.c ****      return HAL_ERROR;
 383:Drivers/STM32L4xx_HAL_Driver/Src/stm32l4xx_hal_dac.c ****   }
 384:Drivers/STM32L4xx_HAL_Driver/Src/stm32l4xx_hal_dac.c ****   /* Check the parameters */
 385:Drivers/STM32L4xx_HAL_Driver/Src/stm32l4xx_hal_dac.c ****   assert_param(IS_DAC_ALL_INSTANCE(hdac->Instance));
 386:Drivers/STM32L4xx_HAL_Driver/Src/stm32l4xx_hal_dac.c **** 
 387:Drivers/STM32L4xx_HAL_Driver/Src/stm32l4xx_hal_dac.c ****   if (hdac->State == HAL_DAC_STATE_RESET)
 388:Drivers/STM32L4xx_HAL_Driver/Src/stm32l4xx_hal_dac.c ****   {
 389:Drivers/STM32L4xx_HAL_Driver/Src/stm32l4xx_hal_dac.c **** #if (USE_HAL_DAC_REGISTER_CALLBACKS == 1)
 390:Drivers/STM32L4xx_HAL_Driver/Src/stm32l4xx_hal_dac.c ****     /* Init the DAC Callback settings */
 391:Drivers/STM32L4xx_HAL_Driver/Src/stm32l4xx_hal_dac.c ****     hdac->ConvCpltCallbackCh1           = HAL_DAC_ConvCpltCallbackCh1;
 392:Drivers/STM32L4xx_HAL_Driver/Src/stm32l4xx_hal_dac.c ****     hdac->ConvHalfCpltCallbackCh1       = HAL_DAC_ConvHalfCpltCallbackCh1;
 393:Drivers/STM32L4xx_HAL_Driver/Src/stm32l4xx_hal_dac.c ****     hdac->ErrorCallbackCh1              = HAL_DAC_ErrorCallbackCh1;
 394:Drivers/STM32L4xx_HAL_Driver/Src/stm32l4xx_hal_dac.c ****     hdac->DMAUnderrunCallbackCh1        = HAL_DAC_DMAUnderrunCallbackCh1;
 395:Drivers/STM32L4xx_HAL_Driver/Src/stm32l4xx_hal_dac.c **** 
 396:Drivers/STM32L4xx_HAL_Driver/Src/stm32l4xx_hal_dac.c ****     hdac->ConvCpltCallbackCh2           = HAL_DACEx_ConvCpltCallbackCh2;
 397:Drivers/STM32L4xx_HAL_Driver/Src/stm32l4xx_hal_dac.c ****     hdac->ConvHalfCpltCallbackCh2       = HAL_DACEx_ConvHalfCpltCallbackCh2;
 398:Drivers/STM32L4xx_HAL_Driver/Src/stm32l4xx_hal_dac.c ****     hdac->ErrorCallbackCh2              = HAL_DACEx_ErrorCallbackCh2;
 399:Drivers/STM32L4xx_HAL_Driver/Src/stm32l4xx_hal_dac.c ****     hdac->DMAUnderrunCallbackCh2        = HAL_DACEx_DMAUnderrunCallbackCh2;
 400:Drivers/STM32L4xx_HAL_Driver/Src/stm32l4xx_hal_dac.c **** 
 401:Drivers/STM32L4xx_HAL_Driver/Src/stm32l4xx_hal_dac.c ****     if (hdac->MspInitCallback == NULL)
 402:Drivers/STM32L4xx_HAL_Driver/Src/stm32l4xx_hal_dac.c ****     {
 403:Drivers/STM32L4xx_HAL_Driver/Src/stm32l4xx_hal_dac.c ****       hdac->MspInitCallback             = HAL_DAC_MspInit;
 404:Drivers/STM32L4xx_HAL_Driver/Src/stm32l4xx_hal_dac.c ****     }
 405:Drivers/STM32L4xx_HAL_Driver/Src/stm32l4xx_hal_dac.c **** #endif /* USE_HAL_DAC_REGISTER_CALLBACKS */
 406:Drivers/STM32L4xx_HAL_Driver/Src/stm32l4xx_hal_dac.c **** 
 407:Drivers/STM32L4xx_HAL_Driver/Src/stm32l4xx_hal_dac.c ****     /* Allocate lock resource and initialize it */
 408:Drivers/STM32L4xx_HAL_Driver/Src/stm32l4xx_hal_dac.c ****     hdac->Lock = HAL_UNLOCKED;
 409:Drivers/STM32L4xx_HAL_Driver/Src/stm32l4xx_hal_dac.c **** 
 410:Drivers/STM32L4xx_HAL_Driver/Src/stm32l4xx_hal_dac.c **** #if (USE_HAL_DAC_REGISTER_CALLBACKS == 1)
 411:Drivers/STM32L4xx_HAL_Driver/Src/stm32l4xx_hal_dac.c ****     /* Init the low level hardware */
 412:Drivers/STM32L4xx_HAL_Driver/Src/stm32l4xx_hal_dac.c ****     hdac->MspInitCallback(hdac);
 413:Drivers/STM32L4xx_HAL_Driver/Src/stm32l4xx_hal_dac.c **** #else
 414:Drivers/STM32L4xx_HAL_Driver/Src/stm32l4xx_hal_dac.c ****     /* Init the low level hardware */
 415:Drivers/STM32L4xx_HAL_Driver/Src/stm32l4xx_hal_dac.c ****     HAL_DAC_MspInit(hdac);
 416:Drivers/STM32L4xx_HAL_Driver/Src/stm32l4xx_hal_dac.c **** #endif /* USE_HAL_DAC_REGISTER_CALLBACKS */
 417:Drivers/STM32L4xx_HAL_Driver/Src/stm32l4xx_hal_dac.c ****   }
 418:Drivers/STM32L4xx_HAL_Driver/Src/stm32l4xx_hal_dac.c **** 
 419:Drivers/STM32L4xx_HAL_Driver/Src/stm32l4xx_hal_dac.c ****   /* Initialize the DAC state*/
 420:Drivers/STM32L4xx_HAL_Driver/Src/stm32l4xx_hal_dac.c ****   hdac->State = HAL_DAC_STATE_BUSY;
 421:Drivers/STM32L4xx_HAL_Driver/Src/stm32l4xx_hal_dac.c **** 
 422:Drivers/STM32L4xx_HAL_Driver/Src/stm32l4xx_hal_dac.c ****   /* Set DAC error code to none */
 423:Drivers/STM32L4xx_HAL_Driver/Src/stm32l4xx_hal_dac.c ****   hdac->ErrorCode = HAL_DAC_ERROR_NONE;
 424:Drivers/STM32L4xx_HAL_Driver/Src/stm32l4xx_hal_dac.c **** 
 425:Drivers/STM32L4xx_HAL_Driver/Src/stm32l4xx_hal_dac.c ****   /* Initialize the DAC state*/
 426:Drivers/STM32L4xx_HAL_Driver/Src/stm32l4xx_hal_dac.c ****   hdac->State = HAL_DAC_STATE_READY;
 427:Drivers/STM32L4xx_HAL_Driver/Src/stm32l4xx_hal_dac.c **** 
 428:Drivers/STM32L4xx_HAL_Driver/Src/stm32l4xx_hal_dac.c ****   /* Return function status */
 429:Drivers/STM32L4xx_HAL_Driver/Src/stm32l4xx_hal_dac.c ****   return HAL_OK;
 430:Drivers/STM32L4xx_HAL_Driver/Src/stm32l4xx_hal_dac.c **** }
ARM GAS  /tmp/ccnfAKrW.s 			page 9


 431:Drivers/STM32L4xx_HAL_Driver/Src/stm32l4xx_hal_dac.c **** 
 432:Drivers/STM32L4xx_HAL_Driver/Src/stm32l4xx_hal_dac.c **** /**
 433:Drivers/STM32L4xx_HAL_Driver/Src/stm32l4xx_hal_dac.c ****   * @brief  Deinitialize the DAC peripheral registers to their default reset values.
 434:Drivers/STM32L4xx_HAL_Driver/Src/stm32l4xx_hal_dac.c ****   * @param  hdac pointer to a DAC_HandleTypeDef structure that contains
 435:Drivers/STM32L4xx_HAL_Driver/Src/stm32l4xx_hal_dac.c ****   *         the configuration information for the specified DAC.
 436:Drivers/STM32L4xx_HAL_Driver/Src/stm32l4xx_hal_dac.c ****   * @retval HAL status
 437:Drivers/STM32L4xx_HAL_Driver/Src/stm32l4xx_hal_dac.c ****   */
 438:Drivers/STM32L4xx_HAL_Driver/Src/stm32l4xx_hal_dac.c **** HAL_StatusTypeDef HAL_DAC_DeInit(DAC_HandleTypeDef *hdac)
 439:Drivers/STM32L4xx_HAL_Driver/Src/stm32l4xx_hal_dac.c **** {
 440:Drivers/STM32L4xx_HAL_Driver/Src/stm32l4xx_hal_dac.c ****   /* Check DAC handle */
 441:Drivers/STM32L4xx_HAL_Driver/Src/stm32l4xx_hal_dac.c ****   if (hdac == NULL)
 442:Drivers/STM32L4xx_HAL_Driver/Src/stm32l4xx_hal_dac.c ****   {
 443:Drivers/STM32L4xx_HAL_Driver/Src/stm32l4xx_hal_dac.c ****     return HAL_ERROR;
 444:Drivers/STM32L4xx_HAL_Driver/Src/stm32l4xx_hal_dac.c ****   }
 445:Drivers/STM32L4xx_HAL_Driver/Src/stm32l4xx_hal_dac.c **** 
 446:Drivers/STM32L4xx_HAL_Driver/Src/stm32l4xx_hal_dac.c ****   /* Check the parameters */
 447:Drivers/STM32L4xx_HAL_Driver/Src/stm32l4xx_hal_dac.c ****   assert_param(IS_DAC_ALL_INSTANCE(hdac->Instance));
 448:Drivers/STM32L4xx_HAL_Driver/Src/stm32l4xx_hal_dac.c **** 
 449:Drivers/STM32L4xx_HAL_Driver/Src/stm32l4xx_hal_dac.c ****   /* Change DAC state */
 450:Drivers/STM32L4xx_HAL_Driver/Src/stm32l4xx_hal_dac.c ****   hdac->State = HAL_DAC_STATE_BUSY;
 451:Drivers/STM32L4xx_HAL_Driver/Src/stm32l4xx_hal_dac.c **** 
 452:Drivers/STM32L4xx_HAL_Driver/Src/stm32l4xx_hal_dac.c **** #if (USE_HAL_DAC_REGISTER_CALLBACKS == 1)
 453:Drivers/STM32L4xx_HAL_Driver/Src/stm32l4xx_hal_dac.c ****   if (hdac->MspDeInitCallback == NULL)
 454:Drivers/STM32L4xx_HAL_Driver/Src/stm32l4xx_hal_dac.c ****   {
 455:Drivers/STM32L4xx_HAL_Driver/Src/stm32l4xx_hal_dac.c ****     hdac->MspDeInitCallback = HAL_DAC_MspDeInit;
 456:Drivers/STM32L4xx_HAL_Driver/Src/stm32l4xx_hal_dac.c ****   }
 457:Drivers/STM32L4xx_HAL_Driver/Src/stm32l4xx_hal_dac.c ****   /* DeInit the low level hardware */
 458:Drivers/STM32L4xx_HAL_Driver/Src/stm32l4xx_hal_dac.c ****   hdac->MspDeInitCallback(hdac);
 459:Drivers/STM32L4xx_HAL_Driver/Src/stm32l4xx_hal_dac.c **** #else
 460:Drivers/STM32L4xx_HAL_Driver/Src/stm32l4xx_hal_dac.c ****   /* DeInit the low level hardware */
 461:Drivers/STM32L4xx_HAL_Driver/Src/stm32l4xx_hal_dac.c ****   HAL_DAC_MspDeInit(hdac);
 462:Drivers/STM32L4xx_HAL_Driver/Src/stm32l4xx_hal_dac.c **** #endif /* USE_HAL_DAC_REGISTER_CALLBACKS */
 463:Drivers/STM32L4xx_HAL_Driver/Src/stm32l4xx_hal_dac.c **** 
 464:Drivers/STM32L4xx_HAL_Driver/Src/stm32l4xx_hal_dac.c ****   /* Set DAC error code to none */
 465:Drivers/STM32L4xx_HAL_Driver/Src/stm32l4xx_hal_dac.c ****   hdac->ErrorCode = HAL_DAC_ERROR_NONE;
 466:Drivers/STM32L4xx_HAL_Driver/Src/stm32l4xx_hal_dac.c **** 
 467:Drivers/STM32L4xx_HAL_Driver/Src/stm32l4xx_hal_dac.c ****   /* Change DAC state */
 468:Drivers/STM32L4xx_HAL_Driver/Src/stm32l4xx_hal_dac.c ****   hdac->State = HAL_DAC_STATE_RESET;
 469:Drivers/STM32L4xx_HAL_Driver/Src/stm32l4xx_hal_dac.c **** 
 470:Drivers/STM32L4xx_HAL_Driver/Src/stm32l4xx_hal_dac.c ****   /* Release Lock */
 471:Drivers/STM32L4xx_HAL_Driver/Src/stm32l4xx_hal_dac.c ****   __HAL_UNLOCK(hdac);
 472:Drivers/STM32L4xx_HAL_Driver/Src/stm32l4xx_hal_dac.c **** 
 473:Drivers/STM32L4xx_HAL_Driver/Src/stm32l4xx_hal_dac.c ****   /* Return function status */
 474:Drivers/STM32L4xx_HAL_Driver/Src/stm32l4xx_hal_dac.c ****   return HAL_OK;
 475:Drivers/STM32L4xx_HAL_Driver/Src/stm32l4xx_hal_dac.c **** }
 476:Drivers/STM32L4xx_HAL_Driver/Src/stm32l4xx_hal_dac.c **** 
 477:Drivers/STM32L4xx_HAL_Driver/Src/stm32l4xx_hal_dac.c **** /**
 478:Drivers/STM32L4xx_HAL_Driver/Src/stm32l4xx_hal_dac.c ****   * @brief  Initialize the DAC MSP.
 479:Drivers/STM32L4xx_HAL_Driver/Src/stm32l4xx_hal_dac.c ****   * @param  hdac pointer to a DAC_HandleTypeDef structure that contains
 480:Drivers/STM32L4xx_HAL_Driver/Src/stm32l4xx_hal_dac.c ****   *         the configuration information for the specified DAC.
 481:Drivers/STM32L4xx_HAL_Driver/Src/stm32l4xx_hal_dac.c ****   * @retval None
 482:Drivers/STM32L4xx_HAL_Driver/Src/stm32l4xx_hal_dac.c ****   */
 483:Drivers/STM32L4xx_HAL_Driver/Src/stm32l4xx_hal_dac.c **** __weak void HAL_DAC_MspInit(DAC_HandleTypeDef *hdac)
 484:Drivers/STM32L4xx_HAL_Driver/Src/stm32l4xx_hal_dac.c **** {
  28              		.loc 1 484 0
  29              		.cfi_startproc
  30              		@ args = 0, pretend = 0, frame = 0
ARM GAS  /tmp/ccnfAKrW.s 			page 10


  31              		@ frame_needed = 0, uses_anonymous_args = 0
  32              		@ link register save eliminated.
  33              	.LVL0:
  34 0000 7047     		bx	lr
  35              		.cfi_endproc
  36              	.LFE132:
  38              		.section	.text.HAL_DAC_Init,"ax",%progbits
  39              		.align	1
  40              		.global	HAL_DAC_Init
  41              		.syntax unified
  42              		.thumb
  43              		.thumb_func
  44              		.fpu fpv4-sp-d16
  46              	HAL_DAC_Init:
  47              	.LFB130:
 378:Drivers/STM32L4xx_HAL_Driver/Src/stm32l4xx_hal_dac.c ****   /* Check DAC handle */
  48              		.loc 1 378 0
  49              		.cfi_startproc
  50              		@ args = 0, pretend = 0, frame = 0
  51              		@ frame_needed = 0, uses_anonymous_args = 0
  52              	.LVL1:
 380:Drivers/STM32L4xx_HAL_Driver/Src/stm32l4xx_hal_dac.c ****   {
  53              		.loc 1 380 0
  54 0000 70B1     		cbz	r0, .L5
 378:Drivers/STM32L4xx_HAL_Driver/Src/stm32l4xx_hal_dac.c ****   /* Check DAC handle */
  55              		.loc 1 378 0
  56 0002 10B5     		push	{r4, lr}
  57              	.LCFI0:
  58              		.cfi_def_cfa_offset 8
  59              		.cfi_offset 4, -8
  60              		.cfi_offset 14, -4
  61 0004 0446     		mov	r4, r0
 387:Drivers/STM32L4xx_HAL_Driver/Src/stm32l4xx_hal_dac.c ****   {
  62              		.loc 1 387 0
  63 0006 0379     		ldrb	r3, [r0, #4]	@ zero_extendqisi2
  64 0008 33B1     		cbz	r3, .L10
  65              	.LVL2:
  66              	.L4:
 420:Drivers/STM32L4xx_HAL_Driver/Src/stm32l4xx_hal_dac.c **** 
  67              		.loc 1 420 0
  68 000a 0223     		movs	r3, #2
  69 000c 2371     		strb	r3, [r4, #4]
 423:Drivers/STM32L4xx_HAL_Driver/Src/stm32l4xx_hal_dac.c **** 
  70              		.loc 1 423 0
  71 000e 0020     		movs	r0, #0
  72 0010 2061     		str	r0, [r4, #16]
 426:Drivers/STM32L4xx_HAL_Driver/Src/stm32l4xx_hal_dac.c **** 
  73              		.loc 1 426 0
  74 0012 0123     		movs	r3, #1
  75 0014 2371     		strb	r3, [r4, #4]
 429:Drivers/STM32L4xx_HAL_Driver/Src/stm32l4xx_hal_dac.c **** }
  76              		.loc 1 429 0
  77 0016 10BD     		pop	{r4, pc}
  78              	.LVL3:
  79              	.L10:
 408:Drivers/STM32L4xx_HAL_Driver/Src/stm32l4xx_hal_dac.c **** 
  80              		.loc 1 408 0
ARM GAS  /tmp/ccnfAKrW.s 			page 11


  81 0018 4371     		strb	r3, [r0, #5]
 415:Drivers/STM32L4xx_HAL_Driver/Src/stm32l4xx_hal_dac.c **** #endif /* USE_HAL_DAC_REGISTER_CALLBACKS */
  82              		.loc 1 415 0
  83 001a FFF7FEFF 		bl	HAL_DAC_MspInit
  84              	.LVL4:
  85 001e F4E7     		b	.L4
  86              	.LVL5:
  87              	.L5:
  88              	.LCFI1:
  89              		.cfi_def_cfa_offset 0
  90              		.cfi_restore 4
  91              		.cfi_restore 14
 382:Drivers/STM32L4xx_HAL_Driver/Src/stm32l4xx_hal_dac.c ****   }
  92              		.loc 1 382 0
  93 0020 0120     		movs	r0, #1
  94              	.LVL6:
  95 0022 7047     		bx	lr
  96              		.cfi_endproc
  97              	.LFE130:
  99              		.section	.text.HAL_DAC_MspDeInit,"ax",%progbits
 100              		.align	1
 101              		.weak	HAL_DAC_MspDeInit
 102              		.syntax unified
 103              		.thumb
 104              		.thumb_func
 105              		.fpu fpv4-sp-d16
 107              	HAL_DAC_MspDeInit:
 108              	.LFB133:
 485:Drivers/STM32L4xx_HAL_Driver/Src/stm32l4xx_hal_dac.c ****   /* Prevent unused argument(s) compilation warning */
 486:Drivers/STM32L4xx_HAL_Driver/Src/stm32l4xx_hal_dac.c ****   UNUSED(hdac);
 487:Drivers/STM32L4xx_HAL_Driver/Src/stm32l4xx_hal_dac.c **** 
 488:Drivers/STM32L4xx_HAL_Driver/Src/stm32l4xx_hal_dac.c ****   /* NOTE : This function should not be modified, when the callback is needed,
 489:Drivers/STM32L4xx_HAL_Driver/Src/stm32l4xx_hal_dac.c ****             the HAL_DAC_MspInit could be implemented in the user file
 490:Drivers/STM32L4xx_HAL_Driver/Src/stm32l4xx_hal_dac.c ****    */
 491:Drivers/STM32L4xx_HAL_Driver/Src/stm32l4xx_hal_dac.c **** }
 492:Drivers/STM32L4xx_HAL_Driver/Src/stm32l4xx_hal_dac.c **** 
 493:Drivers/STM32L4xx_HAL_Driver/Src/stm32l4xx_hal_dac.c **** /**
 494:Drivers/STM32L4xx_HAL_Driver/Src/stm32l4xx_hal_dac.c ****   * @brief  DeInitialize the DAC MSP.
 495:Drivers/STM32L4xx_HAL_Driver/Src/stm32l4xx_hal_dac.c ****   * @param  hdac pointer to a DAC_HandleTypeDef structure that contains
 496:Drivers/STM32L4xx_HAL_Driver/Src/stm32l4xx_hal_dac.c ****   *         the configuration information for the specified DAC.
 497:Drivers/STM32L4xx_HAL_Driver/Src/stm32l4xx_hal_dac.c ****   * @retval None
 498:Drivers/STM32L4xx_HAL_Driver/Src/stm32l4xx_hal_dac.c ****   */
 499:Drivers/STM32L4xx_HAL_Driver/Src/stm32l4xx_hal_dac.c **** __weak void HAL_DAC_MspDeInit(DAC_HandleTypeDef *hdac)
 500:Drivers/STM32L4xx_HAL_Driver/Src/stm32l4xx_hal_dac.c **** {
 109              		.loc 1 500 0
 110              		.cfi_startproc
 111              		@ args = 0, pretend = 0, frame = 0
 112              		@ frame_needed = 0, uses_anonymous_args = 0
 113              		@ link register save eliminated.
 114              	.LVL7:
 115 0000 7047     		bx	lr
 116              		.cfi_endproc
 117              	.LFE133:
 119              		.section	.text.HAL_DAC_DeInit,"ax",%progbits
 120              		.align	1
 121              		.global	HAL_DAC_DeInit
 122              		.syntax unified
ARM GAS  /tmp/ccnfAKrW.s 			page 12


 123              		.thumb
 124              		.thumb_func
 125              		.fpu fpv4-sp-d16
 127              	HAL_DAC_DeInit:
 128              	.LFB131:
 439:Drivers/STM32L4xx_HAL_Driver/Src/stm32l4xx_hal_dac.c ****   /* Check DAC handle */
 129              		.loc 1 439 0
 130              		.cfi_startproc
 131              		@ args = 0, pretend = 0, frame = 0
 132              		@ frame_needed = 0, uses_anonymous_args = 0
 133              	.LVL8:
 441:Drivers/STM32L4xx_HAL_Driver/Src/stm32l4xx_hal_dac.c ****   {
 134              		.loc 1 441 0
 135 0000 50B1     		cbz	r0, .L14
 439:Drivers/STM32L4xx_HAL_Driver/Src/stm32l4xx_hal_dac.c ****   /* Check DAC handle */
 136              		.loc 1 439 0
 137 0002 10B5     		push	{r4, lr}
 138              	.LCFI2:
 139              		.cfi_def_cfa_offset 8
 140              		.cfi_offset 4, -8
 141              		.cfi_offset 14, -4
 142 0004 0446     		mov	r4, r0
 450:Drivers/STM32L4xx_HAL_Driver/Src/stm32l4xx_hal_dac.c **** 
 143              		.loc 1 450 0
 144 0006 0223     		movs	r3, #2
 145 0008 0371     		strb	r3, [r0, #4]
 461:Drivers/STM32L4xx_HAL_Driver/Src/stm32l4xx_hal_dac.c **** #endif /* USE_HAL_DAC_REGISTER_CALLBACKS */
 146              		.loc 1 461 0
 147 000a FFF7FEFF 		bl	HAL_DAC_MspDeInit
 148              	.LVL9:
 465:Drivers/STM32L4xx_HAL_Driver/Src/stm32l4xx_hal_dac.c **** 
 149              		.loc 1 465 0
 150 000e 0020     		movs	r0, #0
 151 0010 2061     		str	r0, [r4, #16]
 468:Drivers/STM32L4xx_HAL_Driver/Src/stm32l4xx_hal_dac.c **** 
 152              		.loc 1 468 0
 153 0012 2071     		strb	r0, [r4, #4]
 471:Drivers/STM32L4xx_HAL_Driver/Src/stm32l4xx_hal_dac.c **** 
 154              		.loc 1 471 0
 155 0014 6071     		strb	r0, [r4, #5]
 474:Drivers/STM32L4xx_HAL_Driver/Src/stm32l4xx_hal_dac.c **** }
 156              		.loc 1 474 0
 157 0016 10BD     		pop	{r4, pc}
 158              	.LVL10:
 159              	.L14:
 160              	.LCFI3:
 161              		.cfi_def_cfa_offset 0
 162              		.cfi_restore 4
 163              		.cfi_restore 14
 443:Drivers/STM32L4xx_HAL_Driver/Src/stm32l4xx_hal_dac.c ****   }
 164              		.loc 1 443 0
 165 0018 0120     		movs	r0, #1
 166              	.LVL11:
 167 001a 7047     		bx	lr
 168              		.cfi_endproc
 169              	.LFE131:
 171              		.section	.text.HAL_DAC_Start,"ax",%progbits
ARM GAS  /tmp/ccnfAKrW.s 			page 13


 172              		.align	1
 173              		.global	HAL_DAC_Start
 174              		.syntax unified
 175              		.thumb
 176              		.thumb_func
 177              		.fpu fpv4-sp-d16
 179              	HAL_DAC_Start:
 180              	.LFB134:
 501:Drivers/STM32L4xx_HAL_Driver/Src/stm32l4xx_hal_dac.c ****   /* Prevent unused argument(s) compilation warning */
 502:Drivers/STM32L4xx_HAL_Driver/Src/stm32l4xx_hal_dac.c ****   UNUSED(hdac);
 503:Drivers/STM32L4xx_HAL_Driver/Src/stm32l4xx_hal_dac.c **** 
 504:Drivers/STM32L4xx_HAL_Driver/Src/stm32l4xx_hal_dac.c ****   /* NOTE : This function should not be modified, when the callback is needed,
 505:Drivers/STM32L4xx_HAL_Driver/Src/stm32l4xx_hal_dac.c ****             the HAL_DAC_MspDeInit could be implemented in the user file
 506:Drivers/STM32L4xx_HAL_Driver/Src/stm32l4xx_hal_dac.c ****    */
 507:Drivers/STM32L4xx_HAL_Driver/Src/stm32l4xx_hal_dac.c **** }
 508:Drivers/STM32L4xx_HAL_Driver/Src/stm32l4xx_hal_dac.c **** 
 509:Drivers/STM32L4xx_HAL_Driver/Src/stm32l4xx_hal_dac.c **** /**
 510:Drivers/STM32L4xx_HAL_Driver/Src/stm32l4xx_hal_dac.c ****   * @}
 511:Drivers/STM32L4xx_HAL_Driver/Src/stm32l4xx_hal_dac.c ****   */
 512:Drivers/STM32L4xx_HAL_Driver/Src/stm32l4xx_hal_dac.c **** 
 513:Drivers/STM32L4xx_HAL_Driver/Src/stm32l4xx_hal_dac.c **** /** @defgroup DAC_Exported_Functions_Group2 IO operation functions
 514:Drivers/STM32L4xx_HAL_Driver/Src/stm32l4xx_hal_dac.c ****  *  @brief    IO operation functions
 515:Drivers/STM32L4xx_HAL_Driver/Src/stm32l4xx_hal_dac.c ****  *
 516:Drivers/STM32L4xx_HAL_Driver/Src/stm32l4xx_hal_dac.c **** @verbatim
 517:Drivers/STM32L4xx_HAL_Driver/Src/stm32l4xx_hal_dac.c ****   ==============================================================================
 518:Drivers/STM32L4xx_HAL_Driver/Src/stm32l4xx_hal_dac.c ****              ##### IO operation functions #####
 519:Drivers/STM32L4xx_HAL_Driver/Src/stm32l4xx_hal_dac.c ****   ==============================================================================
 520:Drivers/STM32L4xx_HAL_Driver/Src/stm32l4xx_hal_dac.c ****     [..]  This section provides functions allowing to:
 521:Drivers/STM32L4xx_HAL_Driver/Src/stm32l4xx_hal_dac.c ****       (+) Start conversion.
 522:Drivers/STM32L4xx_HAL_Driver/Src/stm32l4xx_hal_dac.c ****       (+) Stop conversion.
 523:Drivers/STM32L4xx_HAL_Driver/Src/stm32l4xx_hal_dac.c ****       (+) Start conversion and enable DMA transfer.
 524:Drivers/STM32L4xx_HAL_Driver/Src/stm32l4xx_hal_dac.c ****       (+) Stop conversion and disable DMA transfer.
 525:Drivers/STM32L4xx_HAL_Driver/Src/stm32l4xx_hal_dac.c ****       (+) Get result of conversion.
 526:Drivers/STM32L4xx_HAL_Driver/Src/stm32l4xx_hal_dac.c **** 
 527:Drivers/STM32L4xx_HAL_Driver/Src/stm32l4xx_hal_dac.c **** @endverbatim
 528:Drivers/STM32L4xx_HAL_Driver/Src/stm32l4xx_hal_dac.c ****   * @{
 529:Drivers/STM32L4xx_HAL_Driver/Src/stm32l4xx_hal_dac.c ****   */
 530:Drivers/STM32L4xx_HAL_Driver/Src/stm32l4xx_hal_dac.c **** 
 531:Drivers/STM32L4xx_HAL_Driver/Src/stm32l4xx_hal_dac.c **** /**
 532:Drivers/STM32L4xx_HAL_Driver/Src/stm32l4xx_hal_dac.c ****   * @brief  Enables DAC and starts conversion of channel.
 533:Drivers/STM32L4xx_HAL_Driver/Src/stm32l4xx_hal_dac.c ****   * @param  hdac pointer to a DAC_HandleTypeDef structure that contains
 534:Drivers/STM32L4xx_HAL_Driver/Src/stm32l4xx_hal_dac.c ****   *         the configuration information for the specified DAC.
 535:Drivers/STM32L4xx_HAL_Driver/Src/stm32l4xx_hal_dac.c ****   * @param  Channel The selected DAC channel.
 536:Drivers/STM32L4xx_HAL_Driver/Src/stm32l4xx_hal_dac.c ****   *          This parameter can be one of the following values:
 537:Drivers/STM32L4xx_HAL_Driver/Src/stm32l4xx_hal_dac.c ****   *            @arg DAC_CHANNEL_1: DAC Channel1 selected
 538:Drivers/STM32L4xx_HAL_Driver/Src/stm32l4xx_hal_dac.c ****   *            @arg DAC_CHANNEL_2: DAC Channel2 selected (when supported)
 539:Drivers/STM32L4xx_HAL_Driver/Src/stm32l4xx_hal_dac.c ****   * @retval HAL status
 540:Drivers/STM32L4xx_HAL_Driver/Src/stm32l4xx_hal_dac.c ****   */
 541:Drivers/STM32L4xx_HAL_Driver/Src/stm32l4xx_hal_dac.c **** HAL_StatusTypeDef HAL_DAC_Start(DAC_HandleTypeDef *hdac, uint32_t Channel)
 542:Drivers/STM32L4xx_HAL_Driver/Src/stm32l4xx_hal_dac.c **** {
 181              		.loc 1 542 0
 182              		.cfi_startproc
 183              		@ args = 0, pretend = 0, frame = 0
 184              		@ frame_needed = 0, uses_anonymous_args = 0
 185              		@ link register save eliminated.
 186              	.LVL12:
 543:Drivers/STM32L4xx_HAL_Driver/Src/stm32l4xx_hal_dac.c ****   /* Check the parameters */
ARM GAS  /tmp/ccnfAKrW.s 			page 14


 544:Drivers/STM32L4xx_HAL_Driver/Src/stm32l4xx_hal_dac.c ****   assert_param(IS_DAC_CHANNEL(Channel));
 545:Drivers/STM32L4xx_HAL_Driver/Src/stm32l4xx_hal_dac.c **** 
 546:Drivers/STM32L4xx_HAL_Driver/Src/stm32l4xx_hal_dac.c ****   /* Process locked */
 547:Drivers/STM32L4xx_HAL_Driver/Src/stm32l4xx_hal_dac.c ****   __HAL_LOCK(hdac);
 187              		.loc 1 547 0
 188 0000 4379     		ldrb	r3, [r0, #5]	@ zero_extendqisi2
 189 0002 012B     		cmp	r3, #1
 190 0004 2AD0     		beq	.L23
 542:Drivers/STM32L4xx_HAL_Driver/Src/stm32l4xx_hal_dac.c ****   /* Check the parameters */
 191              		.loc 1 542 0 discriminator 2
 192 0006 30B4     		push	{r4, r5}
 193              	.LCFI4:
 194              		.cfi_def_cfa_offset 8
 195              		.cfi_offset 4, -8
 196              		.cfi_offset 5, -4
 197              		.loc 1 547 0 discriminator 2
 198 0008 0123     		movs	r3, #1
 199 000a 4371     		strb	r3, [r0, #5]
 548:Drivers/STM32L4xx_HAL_Driver/Src/stm32l4xx_hal_dac.c **** 
 549:Drivers/STM32L4xx_HAL_Driver/Src/stm32l4xx_hal_dac.c ****   /* Change DAC state */
 550:Drivers/STM32L4xx_HAL_Driver/Src/stm32l4xx_hal_dac.c ****   hdac->State = HAL_DAC_STATE_BUSY;
 200              		.loc 1 550 0 discriminator 2
 201 000c 0222     		movs	r2, #2
 202 000e 0271     		strb	r2, [r0, #4]
 551:Drivers/STM32L4xx_HAL_Driver/Src/stm32l4xx_hal_dac.c **** 
 552:Drivers/STM32L4xx_HAL_Driver/Src/stm32l4xx_hal_dac.c ****   /* Enable the Peripheral */
 553:Drivers/STM32L4xx_HAL_Driver/Src/stm32l4xx_hal_dac.c ****   __HAL_DAC_ENABLE(hdac, Channel);
 203              		.loc 1 553 0 discriminator 2
 204 0010 0468     		ldr	r4, [r0]
 205 0012 2268     		ldr	r2, [r4]
 206 0014 01F01005 		and	r5, r1, #16
 207 0018 AB40     		lsls	r3, r3, r5
 208 001a 1343     		orrs	r3, r3, r2
 209 001c 2360     		str	r3, [r4]
 554:Drivers/STM32L4xx_HAL_Driver/Src/stm32l4xx_hal_dac.c **** 
 555:Drivers/STM32L4xx_HAL_Driver/Src/stm32l4xx_hal_dac.c **** #if defined (STM32L4R5xx) || defined (STM32L4R7xx) || defined (STM32L4R9xx) || defined (STM32L4S5xx
 556:Drivers/STM32L4xx_HAL_Driver/Src/stm32l4xx_hal_dac.c ****   if (Channel == DAC_CHANNEL_1)
 557:Drivers/STM32L4xx_HAL_Driver/Src/stm32l4xx_hal_dac.c ****   {
 558:Drivers/STM32L4xx_HAL_Driver/Src/stm32l4xx_hal_dac.c ****     /* Check if software trigger enabled */
 559:Drivers/STM32L4xx_HAL_Driver/Src/stm32l4xx_hal_dac.c ****     if ((hdac->Instance->CR & (DAC_CR_TEN1 | DAC_CR_TSEL1)) == DAC_TRIGGER_SOFTWARE)
 560:Drivers/STM32L4xx_HAL_Driver/Src/stm32l4xx_hal_dac.c ****     {
 561:Drivers/STM32L4xx_HAL_Driver/Src/stm32l4xx_hal_dac.c ****       /* Enable the selected DAC software conversion */
 562:Drivers/STM32L4xx_HAL_Driver/Src/stm32l4xx_hal_dac.c ****       SET_BIT(hdac->Instance->SWTRIGR, DAC_SWTRIGR_SWTRIG1);
 563:Drivers/STM32L4xx_HAL_Driver/Src/stm32l4xx_hal_dac.c ****     }
 564:Drivers/STM32L4xx_HAL_Driver/Src/stm32l4xx_hal_dac.c ****   }
 565:Drivers/STM32L4xx_HAL_Driver/Src/stm32l4xx_hal_dac.c ****   else
 566:Drivers/STM32L4xx_HAL_Driver/Src/stm32l4xx_hal_dac.c ****   {
 567:Drivers/STM32L4xx_HAL_Driver/Src/stm32l4xx_hal_dac.c ****     /* Check if software trigger enabled */
 568:Drivers/STM32L4xx_HAL_Driver/Src/stm32l4xx_hal_dac.c ****     if ((hdac->Instance->CR & (DAC_CR_TEN2 | DAC_CR_TSEL2)) == (DAC_TRIGGER_SOFTWARE << (Channel & 
 569:Drivers/STM32L4xx_HAL_Driver/Src/stm32l4xx_hal_dac.c ****     {
 570:Drivers/STM32L4xx_HAL_Driver/Src/stm32l4xx_hal_dac.c ****       /* Enable the selected DAC software conversion*/
 571:Drivers/STM32L4xx_HAL_Driver/Src/stm32l4xx_hal_dac.c ****       SET_BIT(hdac->Instance->SWTRIGR, DAC_SWTRIGR_SWTRIG2);
 572:Drivers/STM32L4xx_HAL_Driver/Src/stm32l4xx_hal_dac.c ****     }
 573:Drivers/STM32L4xx_HAL_Driver/Src/stm32l4xx_hal_dac.c ****   }
 574:Drivers/STM32L4xx_HAL_Driver/Src/stm32l4xx_hal_dac.c **** 
 575:Drivers/STM32L4xx_HAL_Driver/Src/stm32l4xx_hal_dac.c **** #endif /* STM32L4R5xx STM32L4R7xx STM32L4R9xx STM32L4S5xx STM32L4S7xx STM32L4S9xx                  
 576:Drivers/STM32L4xx_HAL_Driver/Src/stm32l4xx_hal_dac.c **** 
ARM GAS  /tmp/ccnfAKrW.s 			page 15


 577:Drivers/STM32L4xx_HAL_Driver/Src/stm32l4xx_hal_dac.c **** #if defined (STM32L431xx) || defined (STM32L432xx) || defined (STM32L433xx) || defined (STM32L442xx
 578:Drivers/STM32L4xx_HAL_Driver/Src/stm32l4xx_hal_dac.c ****     defined (STM32L471xx) || defined (STM32L475xx) || defined (STM32L476xx) || defined (STM32L485xx
 579:Drivers/STM32L4xx_HAL_Driver/Src/stm32l4xx_hal_dac.c ****   if(Channel == DAC_CHANNEL_1)
 210              		.loc 1 579 0 discriminator 2
 211 001e 89B9     		cbnz	r1, .L21
 580:Drivers/STM32L4xx_HAL_Driver/Src/stm32l4xx_hal_dac.c ****   {
 581:Drivers/STM32L4xx_HAL_Driver/Src/stm32l4xx_hal_dac.c ****     /* Check if software trigger enabled */
 582:Drivers/STM32L4xx_HAL_Driver/Src/stm32l4xx_hal_dac.c ****     if ((hdac->Instance->CR & (DAC_CR_TEN1 | DAC_CR_TSEL1)) == DAC_CR_TEN1)
 212              		.loc 1 582 0
 213 0020 0268     		ldr	r2, [r0]
 214 0022 1368     		ldr	r3, [r2]
 215 0024 03F03C03 		and	r3, r3, #60
 216 0028 042B     		cmp	r3, #4
 217 002a 06D0     		beq	.L28
 218              	.L22:
 583:Drivers/STM32L4xx_HAL_Driver/Src/stm32l4xx_hal_dac.c ****     {
 584:Drivers/STM32L4xx_HAL_Driver/Src/stm32l4xx_hal_dac.c ****       /* Enable the selected DAC software conversion */
 585:Drivers/STM32L4xx_HAL_Driver/Src/stm32l4xx_hal_dac.c ****       SET_BIT(hdac->Instance->SWTRIGR, DAC_SWTRIGR_SWTRIG1);
 586:Drivers/STM32L4xx_HAL_Driver/Src/stm32l4xx_hal_dac.c ****     }
 587:Drivers/STM32L4xx_HAL_Driver/Src/stm32l4xx_hal_dac.c ****   }
 588:Drivers/STM32L4xx_HAL_Driver/Src/stm32l4xx_hal_dac.c ****   else
 589:Drivers/STM32L4xx_HAL_Driver/Src/stm32l4xx_hal_dac.c ****   {
 590:Drivers/STM32L4xx_HAL_Driver/Src/stm32l4xx_hal_dac.c ****     /* Check if software trigger enabled */
 591:Drivers/STM32L4xx_HAL_Driver/Src/stm32l4xx_hal_dac.c ****     if ((hdac->Instance->CR & (DAC_CR_TEN2 | DAC_CR_TSEL2)) == DAC_CR_TEN2)
 592:Drivers/STM32L4xx_HAL_Driver/Src/stm32l4xx_hal_dac.c ****     {
 593:Drivers/STM32L4xx_HAL_Driver/Src/stm32l4xx_hal_dac.c ****       /* Enable the selected DAC software conversion*/
 594:Drivers/STM32L4xx_HAL_Driver/Src/stm32l4xx_hal_dac.c ****       SET_BIT(hdac->Instance->SWTRIGR, DAC_SWTRIGR_SWTRIG2);
 595:Drivers/STM32L4xx_HAL_Driver/Src/stm32l4xx_hal_dac.c ****     }
 596:Drivers/STM32L4xx_HAL_Driver/Src/stm32l4xx_hal_dac.c ****   }
 597:Drivers/STM32L4xx_HAL_Driver/Src/stm32l4xx_hal_dac.c **** #endif  /* STM32L431xx STM32L432xx STM32L433xx STM32L442xx STM32L443xx                         */
 598:Drivers/STM32L4xx_HAL_Driver/Src/stm32l4xx_hal_dac.c ****         /* STM32L471xx STM32L475xx STM32L476xx STM32L485xx STM32L486xx STM32L496xx STM32L4A6xx */
 599:Drivers/STM32L4xx_HAL_Driver/Src/stm32l4xx_hal_dac.c **** 
 600:Drivers/STM32L4xx_HAL_Driver/Src/stm32l4xx_hal_dac.c **** 
 601:Drivers/STM32L4xx_HAL_Driver/Src/stm32l4xx_hal_dac.c **** #if defined (STM32L451xx) || defined (STM32L452xx) || defined (STM32L462xx)
 602:Drivers/STM32L4xx_HAL_Driver/Src/stm32l4xx_hal_dac.c ****   /* Check if software trigger enabled */
 603:Drivers/STM32L4xx_HAL_Driver/Src/stm32l4xx_hal_dac.c ****   if((hdac->Instance->CR & (DAC_CR_TEN1 | DAC_CR_TSEL1)) == (DAC_CR_TEN1 | DAC_CR_TSEL1))
 604:Drivers/STM32L4xx_HAL_Driver/Src/stm32l4xx_hal_dac.c ****   {
 605:Drivers/STM32L4xx_HAL_Driver/Src/stm32l4xx_hal_dac.c ****     /* Enable the selected DAC software conversion */
 606:Drivers/STM32L4xx_HAL_Driver/Src/stm32l4xx_hal_dac.c ****     SET_BIT(hdac->Instance->SWTRIGR, DAC_SWTRIGR_SWTRIG1);
 607:Drivers/STM32L4xx_HAL_Driver/Src/stm32l4xx_hal_dac.c ****   }
 608:Drivers/STM32L4xx_HAL_Driver/Src/stm32l4xx_hal_dac.c **** #endif /* STM32L451xx STM32L452xx STM32L462xx */
 609:Drivers/STM32L4xx_HAL_Driver/Src/stm32l4xx_hal_dac.c ****   /* Change DAC state */
 610:Drivers/STM32L4xx_HAL_Driver/Src/stm32l4xx_hal_dac.c ****   hdac->State = HAL_DAC_STATE_READY;
 219              		.loc 1 610 0
 220 002c 0123     		movs	r3, #1
 221 002e 0371     		strb	r3, [r0, #4]
 611:Drivers/STM32L4xx_HAL_Driver/Src/stm32l4xx_hal_dac.c **** 
 612:Drivers/STM32L4xx_HAL_Driver/Src/stm32l4xx_hal_dac.c ****   /* Process unlocked */
 613:Drivers/STM32L4xx_HAL_Driver/Src/stm32l4xx_hal_dac.c ****   __HAL_UNLOCK(hdac);
 222              		.loc 1 613 0
 223 0030 0023     		movs	r3, #0
 224 0032 4371     		strb	r3, [r0, #5]
 614:Drivers/STM32L4xx_HAL_Driver/Src/stm32l4xx_hal_dac.c **** 
 615:Drivers/STM32L4xx_HAL_Driver/Src/stm32l4xx_hal_dac.c ****   /* Return function status */
 616:Drivers/STM32L4xx_HAL_Driver/Src/stm32l4xx_hal_dac.c ****   return HAL_OK;
 225              		.loc 1 616 0
 226 0034 1846     		mov	r0, r3
ARM GAS  /tmp/ccnfAKrW.s 			page 16


 227              	.LVL13:
 617:Drivers/STM32L4xx_HAL_Driver/Src/stm32l4xx_hal_dac.c **** }
 228              		.loc 1 617 0
 229 0036 30BC     		pop	{r4, r5}
 230              	.LCFI5:
 231              		.cfi_remember_state
 232              		.cfi_restore 5
 233              		.cfi_restore 4
 234              		.cfi_def_cfa_offset 0
 235 0038 7047     		bx	lr
 236              	.LVL14:
 237              	.L28:
 238              	.LCFI6:
 239              		.cfi_restore_state
 585:Drivers/STM32L4xx_HAL_Driver/Src/stm32l4xx_hal_dac.c ****     }
 240              		.loc 1 585 0
 241 003a 5368     		ldr	r3, [r2, #4]
 242 003c 43F00103 		orr	r3, r3, #1
 243 0040 5360     		str	r3, [r2, #4]
 244 0042 F3E7     		b	.L22
 245              	.L21:
 591:Drivers/STM32L4xx_HAL_Driver/Src/stm32l4xx_hal_dac.c ****     {
 246              		.loc 1 591 0
 247 0044 0268     		ldr	r2, [r0]
 248 0046 1368     		ldr	r3, [r2]
 249 0048 03F47013 		and	r3, r3, #3932160
 250 004c B3F5802F 		cmp	r3, #262144
 251 0050 ECD1     		bne	.L22
 594:Drivers/STM32L4xx_HAL_Driver/Src/stm32l4xx_hal_dac.c ****     }
 252              		.loc 1 594 0
 253 0052 5368     		ldr	r3, [r2, #4]
 254 0054 43F00203 		orr	r3, r3, #2
 255 0058 5360     		str	r3, [r2, #4]
 256 005a E7E7     		b	.L22
 257              	.L23:
 258              	.LCFI7:
 259              		.cfi_def_cfa_offset 0
 260              		.cfi_restore 4
 261              		.cfi_restore 5
 547:Drivers/STM32L4xx_HAL_Driver/Src/stm32l4xx_hal_dac.c **** 
 262              		.loc 1 547 0
 263 005c 0220     		movs	r0, #2
 264              	.LVL15:
 265 005e 7047     		bx	lr
 266              		.cfi_endproc
 267              	.LFE134:
 269              		.section	.text.HAL_DAC_Stop,"ax",%progbits
 270              		.align	1
 271              		.global	HAL_DAC_Stop
 272              		.syntax unified
 273              		.thumb
 274              		.thumb_func
 275              		.fpu fpv4-sp-d16
 277              	HAL_DAC_Stop:
 278              	.LFB135:
 618:Drivers/STM32L4xx_HAL_Driver/Src/stm32l4xx_hal_dac.c **** 
 619:Drivers/STM32L4xx_HAL_Driver/Src/stm32l4xx_hal_dac.c **** /**
ARM GAS  /tmp/ccnfAKrW.s 			page 17


 620:Drivers/STM32L4xx_HAL_Driver/Src/stm32l4xx_hal_dac.c ****   * @brief  Disables DAC and stop conversion of channel.
 621:Drivers/STM32L4xx_HAL_Driver/Src/stm32l4xx_hal_dac.c ****   * @param  hdac pointer to a DAC_HandleTypeDef structure that contains
 622:Drivers/STM32L4xx_HAL_Driver/Src/stm32l4xx_hal_dac.c ****   *         the configuration information for the specified DAC.
 623:Drivers/STM32L4xx_HAL_Driver/Src/stm32l4xx_hal_dac.c ****   * @param  Channel The selected DAC channel.
 624:Drivers/STM32L4xx_HAL_Driver/Src/stm32l4xx_hal_dac.c ****   *          This parameter can be one of the following values:
 625:Drivers/STM32L4xx_HAL_Driver/Src/stm32l4xx_hal_dac.c ****   *            @arg DAC_CHANNEL_1: DAC Channel1 selected
 626:Drivers/STM32L4xx_HAL_Driver/Src/stm32l4xx_hal_dac.c ****   *            @arg DAC_CHANNEL_2: DAC Channel2 selected
 627:Drivers/STM32L4xx_HAL_Driver/Src/stm32l4xx_hal_dac.c ****   * @retval HAL status
 628:Drivers/STM32L4xx_HAL_Driver/Src/stm32l4xx_hal_dac.c ****   */
 629:Drivers/STM32L4xx_HAL_Driver/Src/stm32l4xx_hal_dac.c **** HAL_StatusTypeDef HAL_DAC_Stop(DAC_HandleTypeDef *hdac, uint32_t Channel)
 630:Drivers/STM32L4xx_HAL_Driver/Src/stm32l4xx_hal_dac.c **** {
 279              		.loc 1 630 0
 280              		.cfi_startproc
 281              		@ args = 0, pretend = 0, frame = 0
 282              		@ frame_needed = 0, uses_anonymous_args = 0
 283              		@ link register save eliminated.
 284              	.LVL16:
 285 0000 10B4     		push	{r4}
 286              	.LCFI8:
 287              		.cfi_def_cfa_offset 4
 288              		.cfi_offset 4, -4
 631:Drivers/STM32L4xx_HAL_Driver/Src/stm32l4xx_hal_dac.c ****   /* Check the parameters */
 632:Drivers/STM32L4xx_HAL_Driver/Src/stm32l4xx_hal_dac.c ****   assert_param(IS_DAC_CHANNEL(Channel));
 633:Drivers/STM32L4xx_HAL_Driver/Src/stm32l4xx_hal_dac.c **** 
 634:Drivers/STM32L4xx_HAL_Driver/Src/stm32l4xx_hal_dac.c ****   /* Disable the Peripheral */
 635:Drivers/STM32L4xx_HAL_Driver/Src/stm32l4xx_hal_dac.c ****   __HAL_DAC_DISABLE(hdac, Channel);
 289              		.loc 1 635 0
 290 0002 0468     		ldr	r4, [r0]
 291 0004 2368     		ldr	r3, [r4]
 292 0006 01F01001 		and	r1, r1, #16
 293              	.LVL17:
 294 000a 0122     		movs	r2, #1
 295 000c 02FA01F1 		lsl	r1, r2, r1
 296 0010 23EA0103 		bic	r3, r3, r1
 297 0014 2360     		str	r3, [r4]
 636:Drivers/STM32L4xx_HAL_Driver/Src/stm32l4xx_hal_dac.c **** 
 637:Drivers/STM32L4xx_HAL_Driver/Src/stm32l4xx_hal_dac.c ****   /* Change DAC state */
 638:Drivers/STM32L4xx_HAL_Driver/Src/stm32l4xx_hal_dac.c ****   hdac->State = HAL_DAC_STATE_READY;
 298              		.loc 1 638 0
 299 0016 0271     		strb	r2, [r0, #4]
 639:Drivers/STM32L4xx_HAL_Driver/Src/stm32l4xx_hal_dac.c **** 
 640:Drivers/STM32L4xx_HAL_Driver/Src/stm32l4xx_hal_dac.c ****   /* Return function status */
 641:Drivers/STM32L4xx_HAL_Driver/Src/stm32l4xx_hal_dac.c ****   return HAL_OK;
 642:Drivers/STM32L4xx_HAL_Driver/Src/stm32l4xx_hal_dac.c **** }
 300              		.loc 1 642 0
 301 0018 0020     		movs	r0, #0
 302              	.LVL18:
 303 001a 5DF8044B 		ldr	r4, [sp], #4
 304              	.LCFI9:
 305              		.cfi_restore 4
 306              		.cfi_def_cfa_offset 0
 307 001e 7047     		bx	lr
 308              		.cfi_endproc
 309              	.LFE135:
 311              		.section	.text.HAL_DAC_Start_DMA,"ax",%progbits
 312              		.align	1
 313              		.global	HAL_DAC_Start_DMA
ARM GAS  /tmp/ccnfAKrW.s 			page 18


 314              		.syntax unified
 315              		.thumb
 316              		.thumb_func
 317              		.fpu fpv4-sp-d16
 319              	HAL_DAC_Start_DMA:
 320              	.LFB136:
 643:Drivers/STM32L4xx_HAL_Driver/Src/stm32l4xx_hal_dac.c **** 
 644:Drivers/STM32L4xx_HAL_Driver/Src/stm32l4xx_hal_dac.c **** #if defined (STM32L451xx) || defined (STM32L452xx) || defined (STM32L462xx)
 645:Drivers/STM32L4xx_HAL_Driver/Src/stm32l4xx_hal_dac.c **** /**
 646:Drivers/STM32L4xx_HAL_Driver/Src/stm32l4xx_hal_dac.c ****   * @brief  Enables DAC and starts conversion of channel.
 647:Drivers/STM32L4xx_HAL_Driver/Src/stm32l4xx_hal_dac.c ****   * @param  hdac pointer to a DAC_HandleTypeDef structure that contains
 648:Drivers/STM32L4xx_HAL_Driver/Src/stm32l4xx_hal_dac.c ****   *         the configuration information for the specified DAC.
 649:Drivers/STM32L4xx_HAL_Driver/Src/stm32l4xx_hal_dac.c ****   * @param  Channel The selected DAC channel.
 650:Drivers/STM32L4xx_HAL_Driver/Src/stm32l4xx_hal_dac.c ****   *          This parameter can be one of the following values:
 651:Drivers/STM32L4xx_HAL_Driver/Src/stm32l4xx_hal_dac.c ****   *            @arg DAC_CHANNEL_1: DAC Channel1 selected
 652:Drivers/STM32L4xx_HAL_Driver/Src/stm32l4xx_hal_dac.c ****   * @param  pData The destination peripheral Buffer address.
 653:Drivers/STM32L4xx_HAL_Driver/Src/stm32l4xx_hal_dac.c ****   * @param  Length The length of data to be transferred from memory to DAC peripheral
 654:Drivers/STM32L4xx_HAL_Driver/Src/stm32l4xx_hal_dac.c ****   * @param  Alignment Specifies the data alignment for DAC channel.
 655:Drivers/STM32L4xx_HAL_Driver/Src/stm32l4xx_hal_dac.c ****   *          This parameter can be one of the following values:
 656:Drivers/STM32L4xx_HAL_Driver/Src/stm32l4xx_hal_dac.c ****   *            @arg DAC_ALIGN_8B_R: 8bit right data alignment selected
 657:Drivers/STM32L4xx_HAL_Driver/Src/stm32l4xx_hal_dac.c ****   *            @arg DAC_ALIGN_12B_L: 12bit left data alignment selected
 658:Drivers/STM32L4xx_HAL_Driver/Src/stm32l4xx_hal_dac.c ****   *            @arg DAC_ALIGN_12B_R: 12bit right data alignment selected
 659:Drivers/STM32L4xx_HAL_Driver/Src/stm32l4xx_hal_dac.c ****   * @retval HAL status
 660:Drivers/STM32L4xx_HAL_Driver/Src/stm32l4xx_hal_dac.c ****   */
 661:Drivers/STM32L4xx_HAL_Driver/Src/stm32l4xx_hal_dac.c **** HAL_StatusTypeDef HAL_DAC_Start_DMA(DAC_HandleTypeDef *hdac, uint32_t Channel, uint32_t *pData, uin
 662:Drivers/STM32L4xx_HAL_Driver/Src/stm32l4xx_hal_dac.c ****                                     uint32_t Alignment)
 663:Drivers/STM32L4xx_HAL_Driver/Src/stm32l4xx_hal_dac.c **** {
 664:Drivers/STM32L4xx_HAL_Driver/Src/stm32l4xx_hal_dac.c ****   HAL_StatusTypeDef status;
 665:Drivers/STM32L4xx_HAL_Driver/Src/stm32l4xx_hal_dac.c ****   uint32_t tmpreg = 0U;
 666:Drivers/STM32L4xx_HAL_Driver/Src/stm32l4xx_hal_dac.c **** 
 667:Drivers/STM32L4xx_HAL_Driver/Src/stm32l4xx_hal_dac.c ****   /* Check the parameters */
 668:Drivers/STM32L4xx_HAL_Driver/Src/stm32l4xx_hal_dac.c ****   assert_param(IS_DAC_CHANNEL(Channel));
 669:Drivers/STM32L4xx_HAL_Driver/Src/stm32l4xx_hal_dac.c ****   assert_param(IS_DAC_ALIGN(Alignment));
 670:Drivers/STM32L4xx_HAL_Driver/Src/stm32l4xx_hal_dac.c **** 
 671:Drivers/STM32L4xx_HAL_Driver/Src/stm32l4xx_hal_dac.c ****   /* Process locked */
 672:Drivers/STM32L4xx_HAL_Driver/Src/stm32l4xx_hal_dac.c ****   __HAL_LOCK(hdac);
 673:Drivers/STM32L4xx_HAL_Driver/Src/stm32l4xx_hal_dac.c **** 
 674:Drivers/STM32L4xx_HAL_Driver/Src/stm32l4xx_hal_dac.c ****   /* Change DAC state */
 675:Drivers/STM32L4xx_HAL_Driver/Src/stm32l4xx_hal_dac.c ****   hdac->State = HAL_DAC_STATE_BUSY;
 676:Drivers/STM32L4xx_HAL_Driver/Src/stm32l4xx_hal_dac.c **** 
 677:Drivers/STM32L4xx_HAL_Driver/Src/stm32l4xx_hal_dac.c ****   /* Set the DMA transfer complete callback for channel1 */
 678:Drivers/STM32L4xx_HAL_Driver/Src/stm32l4xx_hal_dac.c ****   hdac->DMA_Handle1->XferCpltCallback = DAC_DMAConvCpltCh1;
 679:Drivers/STM32L4xx_HAL_Driver/Src/stm32l4xx_hal_dac.c **** 
 680:Drivers/STM32L4xx_HAL_Driver/Src/stm32l4xx_hal_dac.c ****   /* Set the DMA half transfer complete callback for channel1 */
 681:Drivers/STM32L4xx_HAL_Driver/Src/stm32l4xx_hal_dac.c ****   hdac->DMA_Handle1->XferHalfCpltCallback = DAC_DMAHalfConvCpltCh1;
 682:Drivers/STM32L4xx_HAL_Driver/Src/stm32l4xx_hal_dac.c **** 
 683:Drivers/STM32L4xx_HAL_Driver/Src/stm32l4xx_hal_dac.c ****   /* Set the DMA error callback for channel1 */
 684:Drivers/STM32L4xx_HAL_Driver/Src/stm32l4xx_hal_dac.c ****   hdac->DMA_Handle1->XferErrorCallback = DAC_DMAErrorCh1;
 685:Drivers/STM32L4xx_HAL_Driver/Src/stm32l4xx_hal_dac.c **** 
 686:Drivers/STM32L4xx_HAL_Driver/Src/stm32l4xx_hal_dac.c ****   /* Enable the selected DAC channel1 DMA request */
 687:Drivers/STM32L4xx_HAL_Driver/Src/stm32l4xx_hal_dac.c ****   SET_BIT(hdac->Instance->CR, DAC_CR_DMAEN1);
 688:Drivers/STM32L4xx_HAL_Driver/Src/stm32l4xx_hal_dac.c **** 
 689:Drivers/STM32L4xx_HAL_Driver/Src/stm32l4xx_hal_dac.c ****   /* Case of use of channel 1 */
 690:Drivers/STM32L4xx_HAL_Driver/Src/stm32l4xx_hal_dac.c ****   switch (Alignment)
 691:Drivers/STM32L4xx_HAL_Driver/Src/stm32l4xx_hal_dac.c ****   {
 692:Drivers/STM32L4xx_HAL_Driver/Src/stm32l4xx_hal_dac.c ****     case DAC_ALIGN_12B_R:
 693:Drivers/STM32L4xx_HAL_Driver/Src/stm32l4xx_hal_dac.c ****       /* Get DHR12R1 address */
ARM GAS  /tmp/ccnfAKrW.s 			page 19


 694:Drivers/STM32L4xx_HAL_Driver/Src/stm32l4xx_hal_dac.c ****       tmpreg = (uint32_t)&hdac->Instance->DHR12R1;
 695:Drivers/STM32L4xx_HAL_Driver/Src/stm32l4xx_hal_dac.c ****       break;
 696:Drivers/STM32L4xx_HAL_Driver/Src/stm32l4xx_hal_dac.c ****     case DAC_ALIGN_12B_L:
 697:Drivers/STM32L4xx_HAL_Driver/Src/stm32l4xx_hal_dac.c ****       /* Get DHR12L1 address */
 698:Drivers/STM32L4xx_HAL_Driver/Src/stm32l4xx_hal_dac.c ****       tmpreg = (uint32_t)&hdac->Instance->DHR12L1;
 699:Drivers/STM32L4xx_HAL_Driver/Src/stm32l4xx_hal_dac.c ****       break;
 700:Drivers/STM32L4xx_HAL_Driver/Src/stm32l4xx_hal_dac.c ****     case DAC_ALIGN_8B_R:
 701:Drivers/STM32L4xx_HAL_Driver/Src/stm32l4xx_hal_dac.c ****       /* Get DHR8R1 address */
 702:Drivers/STM32L4xx_HAL_Driver/Src/stm32l4xx_hal_dac.c ****       tmpreg = (uint32_t)&hdac->Instance->DHR8R1;
 703:Drivers/STM32L4xx_HAL_Driver/Src/stm32l4xx_hal_dac.c ****       break;
 704:Drivers/STM32L4xx_HAL_Driver/Src/stm32l4xx_hal_dac.c ****     default:
 705:Drivers/STM32L4xx_HAL_Driver/Src/stm32l4xx_hal_dac.c ****       break;
 706:Drivers/STM32L4xx_HAL_Driver/Src/stm32l4xx_hal_dac.c ****   }
 707:Drivers/STM32L4xx_HAL_Driver/Src/stm32l4xx_hal_dac.c **** 
 708:Drivers/STM32L4xx_HAL_Driver/Src/stm32l4xx_hal_dac.c ****   /* Enable the DMA channel */
 709:Drivers/STM32L4xx_HAL_Driver/Src/stm32l4xx_hal_dac.c ****   /* Enable the DAC DMA underrun interrupt */
 710:Drivers/STM32L4xx_HAL_Driver/Src/stm32l4xx_hal_dac.c ****   __HAL_DAC_ENABLE_IT(hdac, DAC_IT_DMAUDR1);
 711:Drivers/STM32L4xx_HAL_Driver/Src/stm32l4xx_hal_dac.c **** 
 712:Drivers/STM32L4xx_HAL_Driver/Src/stm32l4xx_hal_dac.c ****   /* Enable the DMA channel */
 713:Drivers/STM32L4xx_HAL_Driver/Src/stm32l4xx_hal_dac.c ****   status = HAL_DMA_Start_IT(hdac->DMA_Handle1, (uint32_t)pData, tmpreg, Length);
 714:Drivers/STM32L4xx_HAL_Driver/Src/stm32l4xx_hal_dac.c **** 
 715:Drivers/STM32L4xx_HAL_Driver/Src/stm32l4xx_hal_dac.c ****   /* Process Unlocked */
 716:Drivers/STM32L4xx_HAL_Driver/Src/stm32l4xx_hal_dac.c ****   __HAL_UNLOCK(hdac);
 717:Drivers/STM32L4xx_HAL_Driver/Src/stm32l4xx_hal_dac.c **** 
 718:Drivers/STM32L4xx_HAL_Driver/Src/stm32l4xx_hal_dac.c ****   if (status == HAL_OK)
 719:Drivers/STM32L4xx_HAL_Driver/Src/stm32l4xx_hal_dac.c ****   {
 720:Drivers/STM32L4xx_HAL_Driver/Src/stm32l4xx_hal_dac.c ****     /* Enable the Peripheral */
 721:Drivers/STM32L4xx_HAL_Driver/Src/stm32l4xx_hal_dac.c ****     __HAL_DAC_ENABLE(hdac, Channel);
 722:Drivers/STM32L4xx_HAL_Driver/Src/stm32l4xx_hal_dac.c ****   }
 723:Drivers/STM32L4xx_HAL_Driver/Src/stm32l4xx_hal_dac.c ****   else
 724:Drivers/STM32L4xx_HAL_Driver/Src/stm32l4xx_hal_dac.c ****   {
 725:Drivers/STM32L4xx_HAL_Driver/Src/stm32l4xx_hal_dac.c ****     hdac->ErrorCode |= HAL_DAC_ERROR_DMA;
 726:Drivers/STM32L4xx_HAL_Driver/Src/stm32l4xx_hal_dac.c ****   }
 727:Drivers/STM32L4xx_HAL_Driver/Src/stm32l4xx_hal_dac.c **** 
 728:Drivers/STM32L4xx_HAL_Driver/Src/stm32l4xx_hal_dac.c ****   /* Return function status */
 729:Drivers/STM32L4xx_HAL_Driver/Src/stm32l4xx_hal_dac.c ****   return status;
 730:Drivers/STM32L4xx_HAL_Driver/Src/stm32l4xx_hal_dac.c **** }
 731:Drivers/STM32L4xx_HAL_Driver/Src/stm32l4xx_hal_dac.c **** #endif /* STM32L451xx STM32L452xx STM32L462xx */
 732:Drivers/STM32L4xx_HAL_Driver/Src/stm32l4xx_hal_dac.c **** 
 733:Drivers/STM32L4xx_HAL_Driver/Src/stm32l4xx_hal_dac.c **** #if defined (STM32L431xx) || defined (STM32L432xx) || defined (STM32L433xx) || defined (STM32L442xx
 734:Drivers/STM32L4xx_HAL_Driver/Src/stm32l4xx_hal_dac.c ****     defined (STM32L471xx) || defined (STM32L475xx) || defined (STM32L476xx) || defined (STM32L485xx
 735:Drivers/STM32L4xx_HAL_Driver/Src/stm32l4xx_hal_dac.c ****     defined (STM32L4R5xx) || defined (STM32L4R7xx) || defined (STM32L4R9xx) || defined (STM32L4S5xx
 736:Drivers/STM32L4xx_HAL_Driver/Src/stm32l4xx_hal_dac.c **** 
 737:Drivers/STM32L4xx_HAL_Driver/Src/stm32l4xx_hal_dac.c **** /**
 738:Drivers/STM32L4xx_HAL_Driver/Src/stm32l4xx_hal_dac.c ****   * @brief  Enables DAC and starts conversion of channel.
 739:Drivers/STM32L4xx_HAL_Driver/Src/stm32l4xx_hal_dac.c ****   * @param  hdac: pointer to a DAC_HandleTypeDef structure that contains
 740:Drivers/STM32L4xx_HAL_Driver/Src/stm32l4xx_hal_dac.c ****   *         the configuration information for the specified DAC.
 741:Drivers/STM32L4xx_HAL_Driver/Src/stm32l4xx_hal_dac.c ****   * @param  Channel: The selected DAC channel.
 742:Drivers/STM32L4xx_HAL_Driver/Src/stm32l4xx_hal_dac.c ****   *          This parameter can be one of the following values:
 743:Drivers/STM32L4xx_HAL_Driver/Src/stm32l4xx_hal_dac.c ****   *            @arg DAC_CHANNEL_1: DAC Channel1 selected
 744:Drivers/STM32L4xx_HAL_Driver/Src/stm32l4xx_hal_dac.c ****   *            @arg DAC_CHANNEL_2: DAC Channel2 selected
 745:Drivers/STM32L4xx_HAL_Driver/Src/stm32l4xx_hal_dac.c ****   * @param  pData The destination peripheral Buffer address.
 746:Drivers/STM32L4xx_HAL_Driver/Src/stm32l4xx_hal_dac.c ****   * @param  Length The length of data to be transferred from memory to DAC peripheral
 747:Drivers/STM32L4xx_HAL_Driver/Src/stm32l4xx_hal_dac.c ****   * @param  Alignment Specifies the data alignment for DAC channel.
 748:Drivers/STM32L4xx_HAL_Driver/Src/stm32l4xx_hal_dac.c ****   *          This parameter can be one of the following values:
 749:Drivers/STM32L4xx_HAL_Driver/Src/stm32l4xx_hal_dac.c ****   *            @arg DAC_ALIGN_8B_R: 8bit right data alignment selected
 750:Drivers/STM32L4xx_HAL_Driver/Src/stm32l4xx_hal_dac.c ****   *            @arg DAC_ALIGN_12B_L: 12bit left data alignment selected
ARM GAS  /tmp/ccnfAKrW.s 			page 20


 751:Drivers/STM32L4xx_HAL_Driver/Src/stm32l4xx_hal_dac.c ****   *            @arg DAC_ALIGN_12B_R: 12bit right data alignment selected
 752:Drivers/STM32L4xx_HAL_Driver/Src/stm32l4xx_hal_dac.c ****   * @retval HAL status
 753:Drivers/STM32L4xx_HAL_Driver/Src/stm32l4xx_hal_dac.c ****   */
 754:Drivers/STM32L4xx_HAL_Driver/Src/stm32l4xx_hal_dac.c **** HAL_StatusTypeDef HAL_DAC_Start_DMA(DAC_HandleTypeDef *hdac, uint32_t Channel, uint32_t *pData, uin
 755:Drivers/STM32L4xx_HAL_Driver/Src/stm32l4xx_hal_dac.c ****                                     uint32_t Alignment)
 756:Drivers/STM32L4xx_HAL_Driver/Src/stm32l4xx_hal_dac.c **** {
 321              		.loc 1 756 0
 322              		.cfi_startproc
 323              		@ args = 4, pretend = 0, frame = 0
 324              		@ frame_needed = 0, uses_anonymous_args = 0
 325              	.LVL19:
 326 0000 F8B5     		push	{r3, r4, r5, r6, r7, lr}
 327              	.LCFI10:
 328              		.cfi_def_cfa_offset 24
 329              		.cfi_offset 3, -24
 330              		.cfi_offset 4, -20
 331              		.cfi_offset 5, -16
 332              		.cfi_offset 6, -12
 333              		.cfi_offset 7, -8
 334              		.cfi_offset 14, -4
 335 0002 069D     		ldr	r5, [sp, #24]
 336              	.LVL20:
 757:Drivers/STM32L4xx_HAL_Driver/Src/stm32l4xx_hal_dac.c ****   HAL_StatusTypeDef status;
 758:Drivers/STM32L4xx_HAL_Driver/Src/stm32l4xx_hal_dac.c ****   uint32_t tmpreg = 0U;
 759:Drivers/STM32L4xx_HAL_Driver/Src/stm32l4xx_hal_dac.c **** 
 760:Drivers/STM32L4xx_HAL_Driver/Src/stm32l4xx_hal_dac.c ****   /* Check the parameters */
 761:Drivers/STM32L4xx_HAL_Driver/Src/stm32l4xx_hal_dac.c ****   assert_param(IS_DAC_CHANNEL(Channel));
 762:Drivers/STM32L4xx_HAL_Driver/Src/stm32l4xx_hal_dac.c ****   assert_param(IS_DAC_ALIGN(Alignment));
 763:Drivers/STM32L4xx_HAL_Driver/Src/stm32l4xx_hal_dac.c **** 
 764:Drivers/STM32L4xx_HAL_Driver/Src/stm32l4xx_hal_dac.c ****   /* Process locked */
 765:Drivers/STM32L4xx_HAL_Driver/Src/stm32l4xx_hal_dac.c ****   __HAL_LOCK(hdac);
 337              		.loc 1 765 0
 338 0004 4479     		ldrb	r4, [r0, #5]	@ zero_extendqisi2
 339 0006 012C     		cmp	r4, #1
 340 0008 6DD0     		beq	.L44
 341              		.loc 1 765 0 is_stmt 0 discriminator 2
 342 000a 0124     		movs	r4, #1
 343 000c 4471     		strb	r4, [r0, #5]
 766:Drivers/STM32L4xx_HAL_Driver/Src/stm32l4xx_hal_dac.c **** 
 767:Drivers/STM32L4xx_HAL_Driver/Src/stm32l4xx_hal_dac.c ****   /* Change DAC state */
 768:Drivers/STM32L4xx_HAL_Driver/Src/stm32l4xx_hal_dac.c ****   hdac->State = HAL_DAC_STATE_BUSY;
 344              		.loc 1 768 0 is_stmt 1 discriminator 2
 345 000e 0224     		movs	r4, #2
 346 0010 0471     		strb	r4, [r0, #4]
 769:Drivers/STM32L4xx_HAL_Driver/Src/stm32l4xx_hal_dac.c **** 
 770:Drivers/STM32L4xx_HAL_Driver/Src/stm32l4xx_hal_dac.c ****   if (Channel == DAC_CHANNEL_1)
 347              		.loc 1 770 0 discriminator 2
 348 0012 0029     		cmp	r1, #0
 349 0014 34D1     		bne	.L33
 771:Drivers/STM32L4xx_HAL_Driver/Src/stm32l4xx_hal_dac.c ****   {
 772:Drivers/STM32L4xx_HAL_Driver/Src/stm32l4xx_hal_dac.c ****     /* Set the DMA transfer complete callback for channel1 */
 773:Drivers/STM32L4xx_HAL_Driver/Src/stm32l4xx_hal_dac.c ****     hdac->DMA_Handle1->XferCpltCallback = DAC_DMAConvCpltCh1;
 350              		.loc 1 773 0
 351 0016 8468     		ldr	r4, [r0, #8]
 352 0018 344E     		ldr	r6, .L53
 353 001a E662     		str	r6, [r4, #44]
 774:Drivers/STM32L4xx_HAL_Driver/Src/stm32l4xx_hal_dac.c **** 
ARM GAS  /tmp/ccnfAKrW.s 			page 21


 775:Drivers/STM32L4xx_HAL_Driver/Src/stm32l4xx_hal_dac.c ****     /* Set the DMA half transfer complete callback for channel1 */
 776:Drivers/STM32L4xx_HAL_Driver/Src/stm32l4xx_hal_dac.c ****     hdac->DMA_Handle1->XferHalfCpltCallback = DAC_DMAHalfConvCpltCh1;
 354              		.loc 1 776 0
 355 001c 8468     		ldr	r4, [r0, #8]
 356 001e 344E     		ldr	r6, .L53+4
 357 0020 2663     		str	r6, [r4, #48]
 777:Drivers/STM32L4xx_HAL_Driver/Src/stm32l4xx_hal_dac.c **** 
 778:Drivers/STM32L4xx_HAL_Driver/Src/stm32l4xx_hal_dac.c ****     /* Set the DMA error callback for channel1 */
 779:Drivers/STM32L4xx_HAL_Driver/Src/stm32l4xx_hal_dac.c ****     hdac->DMA_Handle1->XferErrorCallback = DAC_DMAErrorCh1;
 358              		.loc 1 779 0
 359 0022 8468     		ldr	r4, [r0, #8]
 360 0024 334E     		ldr	r6, .L53+8
 361 0026 6663     		str	r6, [r4, #52]
 780:Drivers/STM32L4xx_HAL_Driver/Src/stm32l4xx_hal_dac.c **** 
 781:Drivers/STM32L4xx_HAL_Driver/Src/stm32l4xx_hal_dac.c ****     /* Enable the selected DAC channel1 DMA request */
 782:Drivers/STM32L4xx_HAL_Driver/Src/stm32l4xx_hal_dac.c ****     SET_BIT(hdac->Instance->CR, DAC_CR_DMAEN1);
 362              		.loc 1 782 0
 363 0028 0668     		ldr	r6, [r0]
 364 002a 3468     		ldr	r4, [r6]
 365 002c 44F48054 		orr	r4, r4, #4096
 366 0030 3460     		str	r4, [r6]
 783:Drivers/STM32L4xx_HAL_Driver/Src/stm32l4xx_hal_dac.c **** 
 784:Drivers/STM32L4xx_HAL_Driver/Src/stm32l4xx_hal_dac.c ****     /* Case of use of channel 1 */
 785:Drivers/STM32L4xx_HAL_Driver/Src/stm32l4xx_hal_dac.c ****     switch (Alignment)
 367              		.loc 1 785 0
 368 0032 042D     		cmp	r5, #4
 369 0034 1ED0     		beq	.L35
 370 0036 082D     		cmp	r5, #8
 371 0038 1FD0     		beq	.L36
 372 003a C5B1     		cbz	r5, .L50
 758:Drivers/STM32L4xx_HAL_Driver/Src/stm32l4xx_hal_dac.c **** 
 373              		.loc 1 758 0
 374 003c 0D46     		mov	r5, r1
 375              	.LVL21:
 376              	.L34:
 377 003e 1646     		mov	r6, r2
 378 0040 0F46     		mov	r7, r1
 379 0042 0446     		mov	r4, r0
 380              	.LVL22:
 786:Drivers/STM32L4xx_HAL_Driver/Src/stm32l4xx_hal_dac.c ****     {
 787:Drivers/STM32L4xx_HAL_Driver/Src/stm32l4xx_hal_dac.c ****       case DAC_ALIGN_12B_R:
 788:Drivers/STM32L4xx_HAL_Driver/Src/stm32l4xx_hal_dac.c ****         /* Get DHR12R1 address */
 789:Drivers/STM32L4xx_HAL_Driver/Src/stm32l4xx_hal_dac.c ****         tmpreg = (uint32_t)&hdac->Instance->DHR12R1;
 790:Drivers/STM32L4xx_HAL_Driver/Src/stm32l4xx_hal_dac.c ****         break;
 791:Drivers/STM32L4xx_HAL_Driver/Src/stm32l4xx_hal_dac.c ****       case DAC_ALIGN_12B_L:
 792:Drivers/STM32L4xx_HAL_Driver/Src/stm32l4xx_hal_dac.c ****         /* Get DHR12L1 address */
 793:Drivers/STM32L4xx_HAL_Driver/Src/stm32l4xx_hal_dac.c ****         tmpreg = (uint32_t)&hdac->Instance->DHR12L1;
 794:Drivers/STM32L4xx_HAL_Driver/Src/stm32l4xx_hal_dac.c ****         break;
 795:Drivers/STM32L4xx_HAL_Driver/Src/stm32l4xx_hal_dac.c ****       case DAC_ALIGN_8B_R:
 796:Drivers/STM32L4xx_HAL_Driver/Src/stm32l4xx_hal_dac.c ****         /* Get DHR8R1 address */
 797:Drivers/STM32L4xx_HAL_Driver/Src/stm32l4xx_hal_dac.c ****         tmpreg = (uint32_t)&hdac->Instance->DHR8R1;
 798:Drivers/STM32L4xx_HAL_Driver/Src/stm32l4xx_hal_dac.c ****         break;
 799:Drivers/STM32L4xx_HAL_Driver/Src/stm32l4xx_hal_dac.c ****       default:
 800:Drivers/STM32L4xx_HAL_Driver/Src/stm32l4xx_hal_dac.c ****         break;
 801:Drivers/STM32L4xx_HAL_Driver/Src/stm32l4xx_hal_dac.c ****     }
 802:Drivers/STM32L4xx_HAL_Driver/Src/stm32l4xx_hal_dac.c ****   }
 803:Drivers/STM32L4xx_HAL_Driver/Src/stm32l4xx_hal_dac.c ****   else
ARM GAS  /tmp/ccnfAKrW.s 			page 22


 804:Drivers/STM32L4xx_HAL_Driver/Src/stm32l4xx_hal_dac.c ****   {
 805:Drivers/STM32L4xx_HAL_Driver/Src/stm32l4xx_hal_dac.c ****     /* Set the DMA transfer complete callback for channel2 */
 806:Drivers/STM32L4xx_HAL_Driver/Src/stm32l4xx_hal_dac.c ****     hdac->DMA_Handle2->XferCpltCallback = DAC_DMAConvCpltCh2;
 807:Drivers/STM32L4xx_HAL_Driver/Src/stm32l4xx_hal_dac.c **** 
 808:Drivers/STM32L4xx_HAL_Driver/Src/stm32l4xx_hal_dac.c ****     /* Set the DMA half transfer complete callback for channel2 */
 809:Drivers/STM32L4xx_HAL_Driver/Src/stm32l4xx_hal_dac.c ****     hdac->DMA_Handle2->XferHalfCpltCallback = DAC_DMAHalfConvCpltCh2;
 810:Drivers/STM32L4xx_HAL_Driver/Src/stm32l4xx_hal_dac.c **** 
 811:Drivers/STM32L4xx_HAL_Driver/Src/stm32l4xx_hal_dac.c ****     /* Set the DMA error callback for channel2 */
 812:Drivers/STM32L4xx_HAL_Driver/Src/stm32l4xx_hal_dac.c ****     hdac->DMA_Handle2->XferErrorCallback = DAC_DMAErrorCh2;
 813:Drivers/STM32L4xx_HAL_Driver/Src/stm32l4xx_hal_dac.c **** 
 814:Drivers/STM32L4xx_HAL_Driver/Src/stm32l4xx_hal_dac.c ****     /* Enable the selected DAC channel2 DMA request */
 815:Drivers/STM32L4xx_HAL_Driver/Src/stm32l4xx_hal_dac.c ****     SET_BIT(hdac->Instance->CR, DAC_CR_DMAEN2);
 816:Drivers/STM32L4xx_HAL_Driver/Src/stm32l4xx_hal_dac.c **** 
 817:Drivers/STM32L4xx_HAL_Driver/Src/stm32l4xx_hal_dac.c ****     /* Case of use of channel 2 */
 818:Drivers/STM32L4xx_HAL_Driver/Src/stm32l4xx_hal_dac.c ****     switch (Alignment)
 819:Drivers/STM32L4xx_HAL_Driver/Src/stm32l4xx_hal_dac.c ****     {
 820:Drivers/STM32L4xx_HAL_Driver/Src/stm32l4xx_hal_dac.c ****       case DAC_ALIGN_12B_R:
 821:Drivers/STM32L4xx_HAL_Driver/Src/stm32l4xx_hal_dac.c ****         /* Get DHR12R2 address */
 822:Drivers/STM32L4xx_HAL_Driver/Src/stm32l4xx_hal_dac.c ****         tmpreg = (uint32_t)&hdac->Instance->DHR12R2;
 823:Drivers/STM32L4xx_HAL_Driver/Src/stm32l4xx_hal_dac.c ****         break;
 824:Drivers/STM32L4xx_HAL_Driver/Src/stm32l4xx_hal_dac.c ****       case DAC_ALIGN_12B_L:
 825:Drivers/STM32L4xx_HAL_Driver/Src/stm32l4xx_hal_dac.c ****         /* Get DHR12L2 address */
 826:Drivers/STM32L4xx_HAL_Driver/Src/stm32l4xx_hal_dac.c ****         tmpreg = (uint32_t)&hdac->Instance->DHR12L2;
 827:Drivers/STM32L4xx_HAL_Driver/Src/stm32l4xx_hal_dac.c ****         break;
 828:Drivers/STM32L4xx_HAL_Driver/Src/stm32l4xx_hal_dac.c ****       case DAC_ALIGN_8B_R:
 829:Drivers/STM32L4xx_HAL_Driver/Src/stm32l4xx_hal_dac.c ****         /* Get DHR8R2 address */
 830:Drivers/STM32L4xx_HAL_Driver/Src/stm32l4xx_hal_dac.c ****         tmpreg = (uint32_t)&hdac->Instance->DHR8R2;
 831:Drivers/STM32L4xx_HAL_Driver/Src/stm32l4xx_hal_dac.c ****         break;
 832:Drivers/STM32L4xx_HAL_Driver/Src/stm32l4xx_hal_dac.c ****       default:
 833:Drivers/STM32L4xx_HAL_Driver/Src/stm32l4xx_hal_dac.c ****         break;
 834:Drivers/STM32L4xx_HAL_Driver/Src/stm32l4xx_hal_dac.c ****     }
 835:Drivers/STM32L4xx_HAL_Driver/Src/stm32l4xx_hal_dac.c ****   }
 836:Drivers/STM32L4xx_HAL_Driver/Src/stm32l4xx_hal_dac.c **** 
 837:Drivers/STM32L4xx_HAL_Driver/Src/stm32l4xx_hal_dac.c ****   /* Enable the DMA channel */
 838:Drivers/STM32L4xx_HAL_Driver/Src/stm32l4xx_hal_dac.c ****   if (Channel == DAC_CHANNEL_1)
 381              		.loc 1 838 0
 382 0044 0029     		cmp	r1, #0
 383 0046 39D1     		bne	.L41
 839:Drivers/STM32L4xx_HAL_Driver/Src/stm32l4xx_hal_dac.c ****   {
 840:Drivers/STM32L4xx_HAL_Driver/Src/stm32l4xx_hal_dac.c ****     /* Enable the DAC DMA underrun interrupt */
 841:Drivers/STM32L4xx_HAL_Driver/Src/stm32l4xx_hal_dac.c ****     __HAL_DAC_ENABLE_IT(hdac, DAC_IT_DMAUDR1);
 384              		.loc 1 841 0
 385 0048 0168     		ldr	r1, [r0]
 386              	.LVL23:
 387 004a 0A68     		ldr	r2, [r1]
 388              	.LVL24:
 389 004c 42F40052 		orr	r2, r2, #8192
 390 0050 0A60     		str	r2, [r1]
 842:Drivers/STM32L4xx_HAL_Driver/Src/stm32l4xx_hal_dac.c **** 
 843:Drivers/STM32L4xx_HAL_Driver/Src/stm32l4xx_hal_dac.c ****     /* Enable the DMA channel */
 844:Drivers/STM32L4xx_HAL_Driver/Src/stm32l4xx_hal_dac.c ****     status = HAL_DMA_Start_IT(hdac->DMA_Handle1, (uint32_t)pData, tmpreg, Length);
 391              		.loc 1 844 0
 392 0052 2A46     		mov	r2, r5
 393 0054 3146     		mov	r1, r6
 394 0056 8068     		ldr	r0, [r0, #8]
 395              	.LVL25:
 396 0058 FFF7FEFF 		bl	HAL_DMA_Start_IT
ARM GAS  /tmp/ccnfAKrW.s 			page 23


 397              	.LVL26:
 398              	.L42:
 845:Drivers/STM32L4xx_HAL_Driver/Src/stm32l4xx_hal_dac.c ****   }
 846:Drivers/STM32L4xx_HAL_Driver/Src/stm32l4xx_hal_dac.c ****   else
 847:Drivers/STM32L4xx_HAL_Driver/Src/stm32l4xx_hal_dac.c ****   {
 848:Drivers/STM32L4xx_HAL_Driver/Src/stm32l4xx_hal_dac.c ****     /* Enable the DAC DMA underrun interrupt */
 849:Drivers/STM32L4xx_HAL_Driver/Src/stm32l4xx_hal_dac.c ****     __HAL_DAC_ENABLE_IT(hdac, DAC_IT_DMAUDR2);
 850:Drivers/STM32L4xx_HAL_Driver/Src/stm32l4xx_hal_dac.c **** 
 851:Drivers/STM32L4xx_HAL_Driver/Src/stm32l4xx_hal_dac.c ****     /* Enable the DMA channel */
 852:Drivers/STM32L4xx_HAL_Driver/Src/stm32l4xx_hal_dac.c ****     status = HAL_DMA_Start_IT(hdac->DMA_Handle2, (uint32_t)pData, tmpreg, Length);
 853:Drivers/STM32L4xx_HAL_Driver/Src/stm32l4xx_hal_dac.c ****   }
 854:Drivers/STM32L4xx_HAL_Driver/Src/stm32l4xx_hal_dac.c **** 
 855:Drivers/STM32L4xx_HAL_Driver/Src/stm32l4xx_hal_dac.c ****   /* Process Unlocked */
 856:Drivers/STM32L4xx_HAL_Driver/Src/stm32l4xx_hal_dac.c ****   __HAL_UNLOCK(hdac);
 399              		.loc 1 856 0
 400 005c 0023     		movs	r3, #0
 401 005e 6371     		strb	r3, [r4, #5]
 857:Drivers/STM32L4xx_HAL_Driver/Src/stm32l4xx_hal_dac.c **** 
 858:Drivers/STM32L4xx_HAL_Driver/Src/stm32l4xx_hal_dac.c ****   if (status == HAL_OK)
 402              		.loc 1 858 0
 403 0060 0028     		cmp	r0, #0
 404 0062 36D0     		beq	.L51
 859:Drivers/STM32L4xx_HAL_Driver/Src/stm32l4xx_hal_dac.c ****   {
 860:Drivers/STM32L4xx_HAL_Driver/Src/stm32l4xx_hal_dac.c ****     /* Enable the Peripheral */
 861:Drivers/STM32L4xx_HAL_Driver/Src/stm32l4xx_hal_dac.c ****     __HAL_DAC_ENABLE(hdac, Channel);
 862:Drivers/STM32L4xx_HAL_Driver/Src/stm32l4xx_hal_dac.c ****   }
 863:Drivers/STM32L4xx_HAL_Driver/Src/stm32l4xx_hal_dac.c ****   else
 864:Drivers/STM32L4xx_HAL_Driver/Src/stm32l4xx_hal_dac.c ****   {
 865:Drivers/STM32L4xx_HAL_Driver/Src/stm32l4xx_hal_dac.c ****     hdac->ErrorCode |= HAL_DAC_ERROR_DMA;
 405              		.loc 1 865 0
 406 0064 2369     		ldr	r3, [r4, #16]
 407 0066 43F00403 		orr	r3, r3, #4
 408 006a 2361     		str	r3, [r4, #16]
 409 006c F8BD     		pop	{r3, r4, r5, r6, r7, pc}
 410              	.LVL27:
 411              	.L50:
 789:Drivers/STM32L4xx_HAL_Driver/Src/stm32l4xx_hal_dac.c ****         break;
 412              		.loc 1 789 0
 413 006e 0568     		ldr	r5, [r0]
 414 0070 0835     		adds	r5, r5, #8
 415              	.LVL28:
 790:Drivers/STM32L4xx_HAL_Driver/Src/stm32l4xx_hal_dac.c ****       case DAC_ALIGN_12B_L:
 416              		.loc 1 790 0
 417 0072 E4E7     		b	.L34
 418              	.LVL29:
 419              	.L35:
 793:Drivers/STM32L4xx_HAL_Driver/Src/stm32l4xx_hal_dac.c ****         break;
 420              		.loc 1 793 0
 421 0074 0568     		ldr	r5, [r0]
 422 0076 0C35     		adds	r5, r5, #12
 423              	.LVL30:
 794:Drivers/STM32L4xx_HAL_Driver/Src/stm32l4xx_hal_dac.c ****       case DAC_ALIGN_8B_R:
 424              		.loc 1 794 0
 425 0078 E1E7     		b	.L34
 426              	.LVL31:
 427              	.L36:
 797:Drivers/STM32L4xx_HAL_Driver/Src/stm32l4xx_hal_dac.c ****         break;
ARM GAS  /tmp/ccnfAKrW.s 			page 24


 428              		.loc 1 797 0
 429 007a 0568     		ldr	r5, [r0]
 430 007c 1035     		adds	r5, r5, #16
 431              	.LVL32:
 798:Drivers/STM32L4xx_HAL_Driver/Src/stm32l4xx_hal_dac.c ****       default:
 432              		.loc 1 798 0
 433 007e DEE7     		b	.L34
 434              	.LVL33:
 435              	.L33:
 806:Drivers/STM32L4xx_HAL_Driver/Src/stm32l4xx_hal_dac.c **** 
 436              		.loc 1 806 0
 437 0080 C468     		ldr	r4, [r0, #12]
 438 0082 1D4E     		ldr	r6, .L53+12
 439 0084 E662     		str	r6, [r4, #44]
 809:Drivers/STM32L4xx_HAL_Driver/Src/stm32l4xx_hal_dac.c **** 
 440              		.loc 1 809 0
 441 0086 C468     		ldr	r4, [r0, #12]
 442 0088 1C4E     		ldr	r6, .L53+16
 443 008a 2663     		str	r6, [r4, #48]
 812:Drivers/STM32L4xx_HAL_Driver/Src/stm32l4xx_hal_dac.c **** 
 444              		.loc 1 812 0
 445 008c C468     		ldr	r4, [r0, #12]
 446 008e 1C4E     		ldr	r6, .L53+20
 447 0090 6663     		str	r6, [r4, #52]
 815:Drivers/STM32L4xx_HAL_Driver/Src/stm32l4xx_hal_dac.c **** 
 448              		.loc 1 815 0
 449 0092 0668     		ldr	r6, [r0]
 450 0094 3468     		ldr	r4, [r6]
 451 0096 44F08054 		orr	r4, r4, #268435456
 452 009a 3460     		str	r4, [r6]
 818:Drivers/STM32L4xx_HAL_Driver/Src/stm32l4xx_hal_dac.c ****     {
 453              		.loc 1 818 0
 454 009c 042D     		cmp	r5, #4
 455 009e 07D0     		beq	.L38
 456 00a0 082D     		cmp	r5, #8
 457 00a2 08D0     		beq	.L39
 458 00a4 0DB1     		cbz	r5, .L52
 758:Drivers/STM32L4xx_HAL_Driver/Src/stm32l4xx_hal_dac.c **** 
 459              		.loc 1 758 0
 460 00a6 0025     		movs	r5, #0
 461 00a8 C9E7     		b	.L34
 462              	.L52:
 822:Drivers/STM32L4xx_HAL_Driver/Src/stm32l4xx_hal_dac.c ****         break;
 463              		.loc 1 822 0
 464 00aa 0568     		ldr	r5, [r0]
 465 00ac 1435     		adds	r5, r5, #20
 466              	.LVL34:
 823:Drivers/STM32L4xx_HAL_Driver/Src/stm32l4xx_hal_dac.c ****       case DAC_ALIGN_12B_L:
 467              		.loc 1 823 0
 468 00ae C6E7     		b	.L34
 469              	.LVL35:
 470              	.L38:
 826:Drivers/STM32L4xx_HAL_Driver/Src/stm32l4xx_hal_dac.c ****         break;
 471              		.loc 1 826 0
 472 00b0 0568     		ldr	r5, [r0]
 473 00b2 1835     		adds	r5, r5, #24
 474              	.LVL36:
ARM GAS  /tmp/ccnfAKrW.s 			page 25


 827:Drivers/STM32L4xx_HAL_Driver/Src/stm32l4xx_hal_dac.c ****       case DAC_ALIGN_8B_R:
 475              		.loc 1 827 0
 476 00b4 C3E7     		b	.L34
 477              	.LVL37:
 478              	.L39:
 830:Drivers/STM32L4xx_HAL_Driver/Src/stm32l4xx_hal_dac.c ****         break;
 479              		.loc 1 830 0
 480 00b6 0568     		ldr	r5, [r0]
 481 00b8 1C35     		adds	r5, r5, #28
 482              	.LVL38:
 831:Drivers/STM32L4xx_HAL_Driver/Src/stm32l4xx_hal_dac.c ****       default:
 483              		.loc 1 831 0
 484 00ba C0E7     		b	.L34
 485              	.L41:
 849:Drivers/STM32L4xx_HAL_Driver/Src/stm32l4xx_hal_dac.c **** 
 486              		.loc 1 849 0
 487 00bc 0168     		ldr	r1, [r0]
 488              	.LVL39:
 489 00be 0A68     		ldr	r2, [r1]
 490              	.LVL40:
 491 00c0 42F00052 		orr	r2, r2, #536870912
 492 00c4 0A60     		str	r2, [r1]
 852:Drivers/STM32L4xx_HAL_Driver/Src/stm32l4xx_hal_dac.c ****   }
 493              		.loc 1 852 0
 494 00c6 2A46     		mov	r2, r5
 495 00c8 3146     		mov	r1, r6
 496 00ca C068     		ldr	r0, [r0, #12]
 497              	.LVL41:
 498 00cc FFF7FEFF 		bl	HAL_DMA_Start_IT
 499              	.LVL42:
 500 00d0 C4E7     		b	.L42
 501              	.L51:
 861:Drivers/STM32L4xx_HAL_Driver/Src/stm32l4xx_hal_dac.c ****   }
 502              		.loc 1 861 0
 503 00d2 2468     		ldr	r4, [r4]
 504              	.LVL43:
 505 00d4 2368     		ldr	r3, [r4]
 506 00d6 07F01001 		and	r1, r7, #16
 507 00da 0122     		movs	r2, #1
 508 00dc 02FA01F1 		lsl	r1, r2, r1
 509 00e0 1943     		orrs	r1, r1, r3
 510 00e2 2160     		str	r1, [r4]
 511 00e4 F8BD     		pop	{r3, r4, r5, r6, r7, pc}
 512              	.LVL44:
 513              	.L44:
 765:Drivers/STM32L4xx_HAL_Driver/Src/stm32l4xx_hal_dac.c **** 
 514              		.loc 1 765 0
 515 00e6 0220     		movs	r0, #2
 516              	.LVL45:
 866:Drivers/STM32L4xx_HAL_Driver/Src/stm32l4xx_hal_dac.c ****   }
 867:Drivers/STM32L4xx_HAL_Driver/Src/stm32l4xx_hal_dac.c **** 
 868:Drivers/STM32L4xx_HAL_Driver/Src/stm32l4xx_hal_dac.c ****   /* Return function status */
 869:Drivers/STM32L4xx_HAL_Driver/Src/stm32l4xx_hal_dac.c ****   return status;
 870:Drivers/STM32L4xx_HAL_Driver/Src/stm32l4xx_hal_dac.c **** }
 517              		.loc 1 870 0
 518 00e8 F8BD     		pop	{r3, r4, r5, r6, r7, pc}
 519              	.LVL46:
ARM GAS  /tmp/ccnfAKrW.s 			page 26


 520              	.L54:
 521 00ea 00BF     		.align	2
 522              	.L53:
 523 00ec 00000000 		.word	DAC_DMAConvCpltCh1
 524 00f0 00000000 		.word	DAC_DMAHalfConvCpltCh1
 525 00f4 00000000 		.word	DAC_DMAErrorCh1
 526 00f8 00000000 		.word	DAC_DMAConvCpltCh2
 527 00fc 00000000 		.word	DAC_DMAHalfConvCpltCh2
 528 0100 00000000 		.word	DAC_DMAErrorCh2
 529              		.cfi_endproc
 530              	.LFE136:
 532              		.section	.text.HAL_DAC_Stop_DMA,"ax",%progbits
 533              		.align	1
 534              		.global	HAL_DAC_Stop_DMA
 535              		.syntax unified
 536              		.thumb
 537              		.thumb_func
 538              		.fpu fpv4-sp-d16
 540              	HAL_DAC_Stop_DMA:
 541              	.LFB137:
 871:Drivers/STM32L4xx_HAL_Driver/Src/stm32l4xx_hal_dac.c **** #endif  /* STM32L431xx STM32L432xx STM32L433xx STM32L442xx STM32L443xx                         */
 872:Drivers/STM32L4xx_HAL_Driver/Src/stm32l4xx_hal_dac.c ****         /* STM32L471xx STM32L475xx STM32L476xx STM32L485xx STM32L486xx STM32L496xx STM32L4A6xx */
 873:Drivers/STM32L4xx_HAL_Driver/Src/stm32l4xx_hal_dac.c ****         /* STM32L4R5xx STM32L4R7xx STM32L4R9xx STM32L4S5xx STM32L4S7xx STM32L4S9xx             */
 874:Drivers/STM32L4xx_HAL_Driver/Src/stm32l4xx_hal_dac.c **** 
 875:Drivers/STM32L4xx_HAL_Driver/Src/stm32l4xx_hal_dac.c **** /**
 876:Drivers/STM32L4xx_HAL_Driver/Src/stm32l4xx_hal_dac.c ****   * @brief  Disables DAC and stop conversion of channel.
 877:Drivers/STM32L4xx_HAL_Driver/Src/stm32l4xx_hal_dac.c ****   * @param  hdac pointer to a DAC_HandleTypeDef structure that contains
 878:Drivers/STM32L4xx_HAL_Driver/Src/stm32l4xx_hal_dac.c ****   *         the configuration information for the specified DAC.
 879:Drivers/STM32L4xx_HAL_Driver/Src/stm32l4xx_hal_dac.c ****   * @param  Channel The selected DAC channel.
 880:Drivers/STM32L4xx_HAL_Driver/Src/stm32l4xx_hal_dac.c ****   *          This parameter can be one of the following values:
 881:Drivers/STM32L4xx_HAL_Driver/Src/stm32l4xx_hal_dac.c ****   *            @arg DAC_CHANNEL_1: DAC Channel1 selected
 882:Drivers/STM32L4xx_HAL_Driver/Src/stm32l4xx_hal_dac.c ****   *            @arg DAC_CHANNEL_2: DAC Channel2 selected
 883:Drivers/STM32L4xx_HAL_Driver/Src/stm32l4xx_hal_dac.c ****   * @retval HAL status
 884:Drivers/STM32L4xx_HAL_Driver/Src/stm32l4xx_hal_dac.c ****   */
 885:Drivers/STM32L4xx_HAL_Driver/Src/stm32l4xx_hal_dac.c **** HAL_StatusTypeDef HAL_DAC_Stop_DMA(DAC_HandleTypeDef *hdac, uint32_t Channel)
 886:Drivers/STM32L4xx_HAL_Driver/Src/stm32l4xx_hal_dac.c **** {
 542              		.loc 1 886 0
 543              		.cfi_startproc
 544              		@ args = 0, pretend = 0, frame = 0
 545              		@ frame_needed = 0, uses_anonymous_args = 0
 546              	.LVL47:
 547 0000 70B5     		push	{r4, r5, r6, lr}
 548              	.LCFI11:
 549              		.cfi_def_cfa_offset 16
 550              		.cfi_offset 4, -16
 551              		.cfi_offset 5, -12
 552              		.cfi_offset 6, -8
 553              		.cfi_offset 14, -4
 554 0002 0446     		mov	r4, r0
 887:Drivers/STM32L4xx_HAL_Driver/Src/stm32l4xx_hal_dac.c ****   HAL_StatusTypeDef status;
 888:Drivers/STM32L4xx_HAL_Driver/Src/stm32l4xx_hal_dac.c **** 
 889:Drivers/STM32L4xx_HAL_Driver/Src/stm32l4xx_hal_dac.c ****   /* Check the parameters */
 890:Drivers/STM32L4xx_HAL_Driver/Src/stm32l4xx_hal_dac.c ****   assert_param(IS_DAC_CHANNEL(Channel));
 891:Drivers/STM32L4xx_HAL_Driver/Src/stm32l4xx_hal_dac.c **** 
 892:Drivers/STM32L4xx_HAL_Driver/Src/stm32l4xx_hal_dac.c ****   /* Disable the selected DAC channel DMA request */
 893:Drivers/STM32L4xx_HAL_Driver/Src/stm32l4xx_hal_dac.c ****   hdac->Instance->CR &= ~(DAC_CR_DMAEN1 << (Channel & 0x10UL));
 555              		.loc 1 893 0
ARM GAS  /tmp/ccnfAKrW.s 			page 27


 556 0004 0368     		ldr	r3, [r0]
 557 0006 1868     		ldr	r0, [r3]
 558              	.LVL48:
 559 0008 01F01006 		and	r6, r1, #16
 560 000c 4FF48055 		mov	r5, #4096
 561 0010 B540     		lsls	r5, r5, r6
 562 0012 20EA0500 		bic	r0, r0, r5
 563 0016 1860     		str	r0, [r3]
 894:Drivers/STM32L4xx_HAL_Driver/Src/stm32l4xx_hal_dac.c **** 
 895:Drivers/STM32L4xx_HAL_Driver/Src/stm32l4xx_hal_dac.c ****   /* Disable the Peripheral */
 896:Drivers/STM32L4xx_HAL_Driver/Src/stm32l4xx_hal_dac.c ****   __HAL_DAC_DISABLE(hdac, Channel);
 564              		.loc 1 896 0
 565 0018 2068     		ldr	r0, [r4]
 566 001a 0368     		ldr	r3, [r0]
 567 001c 0122     		movs	r2, #1
 568 001e B240     		lsls	r2, r2, r6
 569 0020 23EA0203 		bic	r3, r3, r2
 570 0024 0360     		str	r3, [r0]
 897:Drivers/STM32L4xx_HAL_Driver/Src/stm32l4xx_hal_dac.c **** 
 898:Drivers/STM32L4xx_HAL_Driver/Src/stm32l4xx_hal_dac.c ****   /* Disable the DMA channel */
 899:Drivers/STM32L4xx_HAL_Driver/Src/stm32l4xx_hal_dac.c **** #if defined (STM32L431xx) || defined (STM32L432xx) || defined (STM32L433xx) || defined (STM32L442xx
 900:Drivers/STM32L4xx_HAL_Driver/Src/stm32l4xx_hal_dac.c ****     defined (STM32L471xx) || defined (STM32L475xx) || defined (STM32L476xx) || defined (STM32L485xx
 901:Drivers/STM32L4xx_HAL_Driver/Src/stm32l4xx_hal_dac.c ****     defined (STM32L4R5xx) || defined (STM32L4R7xx) || defined (STM32L4R9xx) || defined (STM32L4S5xx
 902:Drivers/STM32L4xx_HAL_Driver/Src/stm32l4xx_hal_dac.c ****   /* Channel1 is used */
 903:Drivers/STM32L4xx_HAL_Driver/Src/stm32l4xx_hal_dac.c ****   if (Channel == DAC_CHANNEL_1)
 571              		.loc 1 903 0
 572 0026 59B9     		cbnz	r1, .L56
 904:Drivers/STM32L4xx_HAL_Driver/Src/stm32l4xx_hal_dac.c ****   {
 905:Drivers/STM32L4xx_HAL_Driver/Src/stm32l4xx_hal_dac.c ****     /* Disable the DMA channel */
 906:Drivers/STM32L4xx_HAL_Driver/Src/stm32l4xx_hal_dac.c ****     status = HAL_DMA_Abort(hdac->DMA_Handle1);
 573              		.loc 1 906 0
 574 0028 A068     		ldr	r0, [r4, #8]
 575 002a FFF7FEFF 		bl	HAL_DMA_Abort
 576              	.LVL49:
 907:Drivers/STM32L4xx_HAL_Driver/Src/stm32l4xx_hal_dac.c **** 
 908:Drivers/STM32L4xx_HAL_Driver/Src/stm32l4xx_hal_dac.c ****     /* Disable the DAC DMA underrun interrupt */
 909:Drivers/STM32L4xx_HAL_Driver/Src/stm32l4xx_hal_dac.c ****     __HAL_DAC_DISABLE_IT(hdac, DAC_IT_DMAUDR1);
 577              		.loc 1 909 0
 578 002e 2268     		ldr	r2, [r4]
 579 0030 1368     		ldr	r3, [r2]
 580 0032 23F40053 		bic	r3, r3, #8192
 581 0036 1360     		str	r3, [r2]
 582              	.L57:
 910:Drivers/STM32L4xx_HAL_Driver/Src/stm32l4xx_hal_dac.c ****   }
 911:Drivers/STM32L4xx_HAL_Driver/Src/stm32l4xx_hal_dac.c ****   else /* Channel2 is used for */
 912:Drivers/STM32L4xx_HAL_Driver/Src/stm32l4xx_hal_dac.c ****   {
 913:Drivers/STM32L4xx_HAL_Driver/Src/stm32l4xx_hal_dac.c ****     /* Disable the DMA channel */
 914:Drivers/STM32L4xx_HAL_Driver/Src/stm32l4xx_hal_dac.c ****     status = HAL_DMA_Abort(hdac->DMA_Handle2);
 915:Drivers/STM32L4xx_HAL_Driver/Src/stm32l4xx_hal_dac.c **** 
 916:Drivers/STM32L4xx_HAL_Driver/Src/stm32l4xx_hal_dac.c ****     /* Disable the DAC DMA underrun interrupt */
 917:Drivers/STM32L4xx_HAL_Driver/Src/stm32l4xx_hal_dac.c ****     __HAL_DAC_DISABLE_IT(hdac, DAC_IT_DMAUDR2);
 918:Drivers/STM32L4xx_HAL_Driver/Src/stm32l4xx_hal_dac.c ****   }
 919:Drivers/STM32L4xx_HAL_Driver/Src/stm32l4xx_hal_dac.c **** #endif  /* STM32L431xx STM32L432xx STM32L433xx STM32L442xx STM32L443xx                         */
 920:Drivers/STM32L4xx_HAL_Driver/Src/stm32l4xx_hal_dac.c ****         /* STM32L471xx STM32L475xx STM32L476xx STM32L485xx STM32L486xx STM32L496xx STM32L4A6xx */
 921:Drivers/STM32L4xx_HAL_Driver/Src/stm32l4xx_hal_dac.c ****         /* STM32L4R5xx STM32L4R7xx STM32L4R9xx STM32L4S5xx STM32L4S7xx STM32L4S9xx             */
 922:Drivers/STM32L4xx_HAL_Driver/Src/stm32l4xx_hal_dac.c **** 
 923:Drivers/STM32L4xx_HAL_Driver/Src/stm32l4xx_hal_dac.c **** #if defined (STM32L451xx) || defined (STM32L452xx) || defined (STM32L462xx)
ARM GAS  /tmp/ccnfAKrW.s 			page 28


 924:Drivers/STM32L4xx_HAL_Driver/Src/stm32l4xx_hal_dac.c ****   /* Disable the DMA channel */
 925:Drivers/STM32L4xx_HAL_Driver/Src/stm32l4xx_hal_dac.c ****   status = HAL_DMA_Abort(hdac->DMA_Handle1);
 926:Drivers/STM32L4xx_HAL_Driver/Src/stm32l4xx_hal_dac.c **** 
 927:Drivers/STM32L4xx_HAL_Driver/Src/stm32l4xx_hal_dac.c ****   /* Disable the DAC DMA underrun interrupt */
 928:Drivers/STM32L4xx_HAL_Driver/Src/stm32l4xx_hal_dac.c ****   __HAL_DAC_DISABLE_IT(hdac, DAC_IT_DMAUDR1);
 929:Drivers/STM32L4xx_HAL_Driver/Src/stm32l4xx_hal_dac.c **** #endif /* STM32L451xx STM32L452xx STM32L462xx */
 930:Drivers/STM32L4xx_HAL_Driver/Src/stm32l4xx_hal_dac.c **** 
 931:Drivers/STM32L4xx_HAL_Driver/Src/stm32l4xx_hal_dac.c ****   /* Check if DMA Channel effectively disabled */
 932:Drivers/STM32L4xx_HAL_Driver/Src/stm32l4xx_hal_dac.c ****   if (status != HAL_OK)
 583              		.loc 1 932 0
 584 0038 58B9     		cbnz	r0, .L61
 933:Drivers/STM32L4xx_HAL_Driver/Src/stm32l4xx_hal_dac.c ****   {
 934:Drivers/STM32L4xx_HAL_Driver/Src/stm32l4xx_hal_dac.c ****     /* Update DAC state machine to error */
 935:Drivers/STM32L4xx_HAL_Driver/Src/stm32l4xx_hal_dac.c ****     hdac->State = HAL_DAC_STATE_ERROR;
 936:Drivers/STM32L4xx_HAL_Driver/Src/stm32l4xx_hal_dac.c ****   }
 937:Drivers/STM32L4xx_HAL_Driver/Src/stm32l4xx_hal_dac.c ****   else
 938:Drivers/STM32L4xx_HAL_Driver/Src/stm32l4xx_hal_dac.c ****   {
 939:Drivers/STM32L4xx_HAL_Driver/Src/stm32l4xx_hal_dac.c ****     /* Change DAC state */
 940:Drivers/STM32L4xx_HAL_Driver/Src/stm32l4xx_hal_dac.c ****     hdac->State = HAL_DAC_STATE_READY;
 585              		.loc 1 940 0
 586 003a 0123     		movs	r3, #1
 587 003c 2371     		strb	r3, [r4, #4]
 941:Drivers/STM32L4xx_HAL_Driver/Src/stm32l4xx_hal_dac.c ****   }
 942:Drivers/STM32L4xx_HAL_Driver/Src/stm32l4xx_hal_dac.c **** 
 943:Drivers/STM32L4xx_HAL_Driver/Src/stm32l4xx_hal_dac.c ****   /* Return function status */
 944:Drivers/STM32L4xx_HAL_Driver/Src/stm32l4xx_hal_dac.c ****   return status;
 945:Drivers/STM32L4xx_HAL_Driver/Src/stm32l4xx_hal_dac.c **** }
 588              		.loc 1 945 0
 589 003e 70BD     		pop	{r4, r5, r6, pc}
 590              	.LVL50:
 591              	.L56:
 914:Drivers/STM32L4xx_HAL_Driver/Src/stm32l4xx_hal_dac.c **** 
 592              		.loc 1 914 0
 593 0040 E068     		ldr	r0, [r4, #12]
 594 0042 FFF7FEFF 		bl	HAL_DMA_Abort
 595              	.LVL51:
 917:Drivers/STM32L4xx_HAL_Driver/Src/stm32l4xx_hal_dac.c ****   }
 596              		.loc 1 917 0
 597 0046 2268     		ldr	r2, [r4]
 598 0048 1368     		ldr	r3, [r2]
 599 004a 23F00053 		bic	r3, r3, #536870912
 600 004e 1360     		str	r3, [r2]
 601 0050 F2E7     		b	.L57
 602              	.L61:
 935:Drivers/STM32L4xx_HAL_Driver/Src/stm32l4xx_hal_dac.c ****   }
 603              		.loc 1 935 0
 604 0052 0423     		movs	r3, #4
 605 0054 2371     		strb	r3, [r4, #4]
 606 0056 70BD     		pop	{r4, r5, r6, pc}
 607              		.cfi_endproc
 608              	.LFE137:
 610              		.section	.text.HAL_DAC_SetValue,"ax",%progbits
 611              		.align	1
 612              		.global	HAL_DAC_SetValue
 613              		.syntax unified
 614              		.thumb
 615              		.thumb_func
ARM GAS  /tmp/ccnfAKrW.s 			page 29


 616              		.fpu fpv4-sp-d16
 618              	HAL_DAC_SetValue:
 619              	.LFB139:
 946:Drivers/STM32L4xx_HAL_Driver/Src/stm32l4xx_hal_dac.c **** 
 947:Drivers/STM32L4xx_HAL_Driver/Src/stm32l4xx_hal_dac.c **** /* DAC channel 2 is available on top of DAC channel 1 in */
 948:Drivers/STM32L4xx_HAL_Driver/Src/stm32l4xx_hal_dac.c **** /* STM32L431xx STM32L432xx STM32L433xx STM32L442xx STM32L443xx                         */
 949:Drivers/STM32L4xx_HAL_Driver/Src/stm32l4xx_hal_dac.c **** /* STM32L471xx STM32L475xx STM32L476xx STM32L485xx STM32L486xx STM32L496xx STM32L4A6xx */
 950:Drivers/STM32L4xx_HAL_Driver/Src/stm32l4xx_hal_dac.c **** 
 951:Drivers/STM32L4xx_HAL_Driver/Src/stm32l4xx_hal_dac.c **** /**
 952:Drivers/STM32L4xx_HAL_Driver/Src/stm32l4xx_hal_dac.c ****   * @brief  Handles DAC interrupt request
 953:Drivers/STM32L4xx_HAL_Driver/Src/stm32l4xx_hal_dac.c ****   *         This function uses the interruption of DMA
 954:Drivers/STM32L4xx_HAL_Driver/Src/stm32l4xx_hal_dac.c ****   *         underrun.
 955:Drivers/STM32L4xx_HAL_Driver/Src/stm32l4xx_hal_dac.c ****   * @param  hdac pointer to a DAC_HandleTypeDef structure that contains
 956:Drivers/STM32L4xx_HAL_Driver/Src/stm32l4xx_hal_dac.c ****   *         the configuration information for the specified DAC.
 957:Drivers/STM32L4xx_HAL_Driver/Src/stm32l4xx_hal_dac.c ****   * @retval None
 958:Drivers/STM32L4xx_HAL_Driver/Src/stm32l4xx_hal_dac.c ****   */
 959:Drivers/STM32L4xx_HAL_Driver/Src/stm32l4xx_hal_dac.c **** void HAL_DAC_IRQHandler(DAC_HandleTypeDef *hdac)
 960:Drivers/STM32L4xx_HAL_Driver/Src/stm32l4xx_hal_dac.c **** {
 961:Drivers/STM32L4xx_HAL_Driver/Src/stm32l4xx_hal_dac.c ****   if (__HAL_DAC_GET_IT_SOURCE(hdac, DAC_IT_DMAUDR1))
 962:Drivers/STM32L4xx_HAL_Driver/Src/stm32l4xx_hal_dac.c ****   {
 963:Drivers/STM32L4xx_HAL_Driver/Src/stm32l4xx_hal_dac.c ****     /* Check underrun flag of DAC channel 1 */
 964:Drivers/STM32L4xx_HAL_Driver/Src/stm32l4xx_hal_dac.c ****     if (__HAL_DAC_GET_FLAG(hdac, DAC_FLAG_DMAUDR1))
 965:Drivers/STM32L4xx_HAL_Driver/Src/stm32l4xx_hal_dac.c ****     {
 966:Drivers/STM32L4xx_HAL_Driver/Src/stm32l4xx_hal_dac.c ****       /* Change DAC state to error state */
 967:Drivers/STM32L4xx_HAL_Driver/Src/stm32l4xx_hal_dac.c ****       hdac->State = HAL_DAC_STATE_ERROR;
 968:Drivers/STM32L4xx_HAL_Driver/Src/stm32l4xx_hal_dac.c **** 
 969:Drivers/STM32L4xx_HAL_Driver/Src/stm32l4xx_hal_dac.c ****       /* Set DAC error code to chanel1 DMA underrun error */
 970:Drivers/STM32L4xx_HAL_Driver/Src/stm32l4xx_hal_dac.c ****       SET_BIT(hdac->ErrorCode, HAL_DAC_ERROR_DMAUNDERRUNCH1);
 971:Drivers/STM32L4xx_HAL_Driver/Src/stm32l4xx_hal_dac.c **** 
 972:Drivers/STM32L4xx_HAL_Driver/Src/stm32l4xx_hal_dac.c ****       /* Clear the underrun flag */
 973:Drivers/STM32L4xx_HAL_Driver/Src/stm32l4xx_hal_dac.c ****       __HAL_DAC_CLEAR_FLAG(hdac, DAC_FLAG_DMAUDR1);
 974:Drivers/STM32L4xx_HAL_Driver/Src/stm32l4xx_hal_dac.c **** 
 975:Drivers/STM32L4xx_HAL_Driver/Src/stm32l4xx_hal_dac.c ****       /* Disable the selected DAC channel1 DMA request */
 976:Drivers/STM32L4xx_HAL_Driver/Src/stm32l4xx_hal_dac.c ****       CLEAR_BIT(hdac->Instance->CR, DAC_CR_DMAEN1);
 977:Drivers/STM32L4xx_HAL_Driver/Src/stm32l4xx_hal_dac.c **** 
 978:Drivers/STM32L4xx_HAL_Driver/Src/stm32l4xx_hal_dac.c ****       /* Error callback */
 979:Drivers/STM32L4xx_HAL_Driver/Src/stm32l4xx_hal_dac.c **** #if (USE_HAL_DAC_REGISTER_CALLBACKS == 1)
 980:Drivers/STM32L4xx_HAL_Driver/Src/stm32l4xx_hal_dac.c ****       hdac->DMAUnderrunCallbackCh1(hdac);
 981:Drivers/STM32L4xx_HAL_Driver/Src/stm32l4xx_hal_dac.c **** #else
 982:Drivers/STM32L4xx_HAL_Driver/Src/stm32l4xx_hal_dac.c ****       HAL_DAC_DMAUnderrunCallbackCh1(hdac);
 983:Drivers/STM32L4xx_HAL_Driver/Src/stm32l4xx_hal_dac.c **** #endif /* USE_HAL_DAC_REGISTER_CALLBACKS */
 984:Drivers/STM32L4xx_HAL_Driver/Src/stm32l4xx_hal_dac.c ****     }
 985:Drivers/STM32L4xx_HAL_Driver/Src/stm32l4xx_hal_dac.c ****   }
 986:Drivers/STM32L4xx_HAL_Driver/Src/stm32l4xx_hal_dac.c **** #if defined (STM32L431xx) || defined (STM32L432xx) || defined (STM32L433xx) || defined (STM32L442xx
 987:Drivers/STM32L4xx_HAL_Driver/Src/stm32l4xx_hal_dac.c ****     defined (STM32L471xx) || defined (STM32L475xx) || defined (STM32L476xx) || defined (STM32L485xx
 988:Drivers/STM32L4xx_HAL_Driver/Src/stm32l4xx_hal_dac.c ****     defined (STM32L4R5xx) || defined (STM32L4R7xx) || defined (STM32L4R9xx) || defined (STM32L4S5xx
 989:Drivers/STM32L4xx_HAL_Driver/Src/stm32l4xx_hal_dac.c ****   if(__HAL_DAC_GET_IT_SOURCE(hdac, DAC_IT_DMAUDR2))
 990:Drivers/STM32L4xx_HAL_Driver/Src/stm32l4xx_hal_dac.c ****   {
 991:Drivers/STM32L4xx_HAL_Driver/Src/stm32l4xx_hal_dac.c ****     /* Check underrun flag of DAC channel 2 */
 992:Drivers/STM32L4xx_HAL_Driver/Src/stm32l4xx_hal_dac.c ****     if (__HAL_DAC_GET_FLAG(hdac, DAC_FLAG_DMAUDR2))
 993:Drivers/STM32L4xx_HAL_Driver/Src/stm32l4xx_hal_dac.c ****     {
 994:Drivers/STM32L4xx_HAL_Driver/Src/stm32l4xx_hal_dac.c ****       /* Change DAC state to error state */
 995:Drivers/STM32L4xx_HAL_Driver/Src/stm32l4xx_hal_dac.c ****       hdac->State = HAL_DAC_STATE_ERROR;
 996:Drivers/STM32L4xx_HAL_Driver/Src/stm32l4xx_hal_dac.c **** 
 997:Drivers/STM32L4xx_HAL_Driver/Src/stm32l4xx_hal_dac.c ****       /* Set DAC error code to channel2 DMA underrun error */
 998:Drivers/STM32L4xx_HAL_Driver/Src/stm32l4xx_hal_dac.c ****       SET_BIT(hdac->ErrorCode, HAL_DAC_ERROR_DMAUNDERRUNCH2);
 999:Drivers/STM32L4xx_HAL_Driver/Src/stm32l4xx_hal_dac.c **** 
ARM GAS  /tmp/ccnfAKrW.s 			page 30


1000:Drivers/STM32L4xx_HAL_Driver/Src/stm32l4xx_hal_dac.c ****       /* Clear the underrun flag */
1001:Drivers/STM32L4xx_HAL_Driver/Src/stm32l4xx_hal_dac.c ****       __HAL_DAC_CLEAR_FLAG(hdac, DAC_FLAG_DMAUDR2);
1002:Drivers/STM32L4xx_HAL_Driver/Src/stm32l4xx_hal_dac.c **** 
1003:Drivers/STM32L4xx_HAL_Driver/Src/stm32l4xx_hal_dac.c ****       /* Disable the selected DAC channel2 DMA request */
1004:Drivers/STM32L4xx_HAL_Driver/Src/stm32l4xx_hal_dac.c ****       CLEAR_BIT(hdac->Instance->CR, DAC_CR_DMAEN2);
1005:Drivers/STM32L4xx_HAL_Driver/Src/stm32l4xx_hal_dac.c **** 
1006:Drivers/STM32L4xx_HAL_Driver/Src/stm32l4xx_hal_dac.c ****       /* Error callback */
1007:Drivers/STM32L4xx_HAL_Driver/Src/stm32l4xx_hal_dac.c **** #if (USE_HAL_DAC_REGISTER_CALLBACKS == 1)
1008:Drivers/STM32L4xx_HAL_Driver/Src/stm32l4xx_hal_dac.c ****       hdac->DMAUnderrunCallbackCh2(hdac);
1009:Drivers/STM32L4xx_HAL_Driver/Src/stm32l4xx_hal_dac.c **** #else
1010:Drivers/STM32L4xx_HAL_Driver/Src/stm32l4xx_hal_dac.c ****       HAL_DACEx_DMAUnderrunCallbackCh2(hdac);
1011:Drivers/STM32L4xx_HAL_Driver/Src/stm32l4xx_hal_dac.c **** #endif /* USE_HAL_DAC_REGISTER_CALLBACKS */
1012:Drivers/STM32L4xx_HAL_Driver/Src/stm32l4xx_hal_dac.c ****     }
1013:Drivers/STM32L4xx_HAL_Driver/Src/stm32l4xx_hal_dac.c ****   }
1014:Drivers/STM32L4xx_HAL_Driver/Src/stm32l4xx_hal_dac.c **** #endif  /* STM32L431xx STM32L432xx STM32L433xx STM32L442xx STM32L443xx                         */
1015:Drivers/STM32L4xx_HAL_Driver/Src/stm32l4xx_hal_dac.c ****         /* STM32L471xx STM32L475xx STM32L476xx STM32L485xx STM32L486xx STM32L496xx STM32L4A6xx */
1016:Drivers/STM32L4xx_HAL_Driver/Src/stm32l4xx_hal_dac.c ****         /* STM32L4R5xx STM32L4R7xx STM32L4R9xx STM32L4S5xx STM32L4S7xx STM32L4S9xx             */
1017:Drivers/STM32L4xx_HAL_Driver/Src/stm32l4xx_hal_dac.c **** }
1018:Drivers/STM32L4xx_HAL_Driver/Src/stm32l4xx_hal_dac.c **** 
1019:Drivers/STM32L4xx_HAL_Driver/Src/stm32l4xx_hal_dac.c **** /**
1020:Drivers/STM32L4xx_HAL_Driver/Src/stm32l4xx_hal_dac.c ****   * @brief  Set the specified data holding register value for DAC channel.
1021:Drivers/STM32L4xx_HAL_Driver/Src/stm32l4xx_hal_dac.c ****   * @param  hdac pointer to a DAC_HandleTypeDef structure that contains
1022:Drivers/STM32L4xx_HAL_Driver/Src/stm32l4xx_hal_dac.c ****   *         the configuration information for the specified DAC.
1023:Drivers/STM32L4xx_HAL_Driver/Src/stm32l4xx_hal_dac.c ****   * @param  Channel The selected DAC channel.
1024:Drivers/STM32L4xx_HAL_Driver/Src/stm32l4xx_hal_dac.c ****   *          This parameter can be one of the following values:
1025:Drivers/STM32L4xx_HAL_Driver/Src/stm32l4xx_hal_dac.c ****   *            @arg DAC_CHANNEL_1: DAC Channel1 selected
1026:Drivers/STM32L4xx_HAL_Driver/Src/stm32l4xx_hal_dac.c ****   *            @arg DAC_CHANNEL_2: DAC Channel2 selected
1027:Drivers/STM32L4xx_HAL_Driver/Src/stm32l4xx_hal_dac.c ****   * @param  Alignment Specifies the data alignment.
1028:Drivers/STM32L4xx_HAL_Driver/Src/stm32l4xx_hal_dac.c ****   *          This parameter can be one of the following values:
1029:Drivers/STM32L4xx_HAL_Driver/Src/stm32l4xx_hal_dac.c ****   *            @arg DAC_ALIGN_8B_R: 8bit right data alignment selected
1030:Drivers/STM32L4xx_HAL_Driver/Src/stm32l4xx_hal_dac.c ****   *            @arg DAC_ALIGN_12B_L: 12bit left data alignment selected
1031:Drivers/STM32L4xx_HAL_Driver/Src/stm32l4xx_hal_dac.c ****   *            @arg DAC_ALIGN_12B_R: 12bit right data alignment selected
1032:Drivers/STM32L4xx_HAL_Driver/Src/stm32l4xx_hal_dac.c ****   * @param  Data Data to be loaded in the selected data holding register.
1033:Drivers/STM32L4xx_HAL_Driver/Src/stm32l4xx_hal_dac.c ****   * @retval HAL status
1034:Drivers/STM32L4xx_HAL_Driver/Src/stm32l4xx_hal_dac.c ****   */
1035:Drivers/STM32L4xx_HAL_Driver/Src/stm32l4xx_hal_dac.c **** HAL_StatusTypeDef HAL_DAC_SetValue(DAC_HandleTypeDef *hdac, uint32_t Channel, uint32_t Alignment, u
1036:Drivers/STM32L4xx_HAL_Driver/Src/stm32l4xx_hal_dac.c **** {
 620              		.loc 1 1036 0
 621              		.cfi_startproc
 622              		@ args = 0, pretend = 0, frame = 8
 623              		@ frame_needed = 0, uses_anonymous_args = 0
 624              		@ link register save eliminated.
 625              	.LVL52:
 626 0000 10B4     		push	{r4}
 627              	.LCFI12:
 628              		.cfi_def_cfa_offset 4
 629              		.cfi_offset 4, -4
 630 0002 83B0     		sub	sp, sp, #12
 631              	.LCFI13:
 632              		.cfi_def_cfa_offset 16
1037:Drivers/STM32L4xx_HAL_Driver/Src/stm32l4xx_hal_dac.c ****   __IO uint32_t tmp = 0;
 633              		.loc 1 1037 0
 634 0004 0024     		movs	r4, #0
 635 0006 0194     		str	r4, [sp, #4]
1038:Drivers/STM32L4xx_HAL_Driver/Src/stm32l4xx_hal_dac.c **** 
1039:Drivers/STM32L4xx_HAL_Driver/Src/stm32l4xx_hal_dac.c ****   /* Check the parameters */
1040:Drivers/STM32L4xx_HAL_Driver/Src/stm32l4xx_hal_dac.c ****   assert_param(IS_DAC_CHANNEL(Channel));
ARM GAS  /tmp/ccnfAKrW.s 			page 31


1041:Drivers/STM32L4xx_HAL_Driver/Src/stm32l4xx_hal_dac.c ****   assert_param(IS_DAC_ALIGN(Alignment));
1042:Drivers/STM32L4xx_HAL_Driver/Src/stm32l4xx_hal_dac.c ****   assert_param(IS_DAC_DATA(Data));
1043:Drivers/STM32L4xx_HAL_Driver/Src/stm32l4xx_hal_dac.c **** 
1044:Drivers/STM32L4xx_HAL_Driver/Src/stm32l4xx_hal_dac.c ****   tmp = (uint32_t)hdac->Instance;
 636              		.loc 1 1044 0
 637 0008 0068     		ldr	r0, [r0]
 638              	.LVL53:
 639 000a 0190     		str	r0, [sp, #4]
1045:Drivers/STM32L4xx_HAL_Driver/Src/stm32l4xx_hal_dac.c ****   if (Channel == DAC_CHANNEL_1)
 640              		.loc 1 1045 0
 641 000c 51B1     		cbz	r1, .L66
1046:Drivers/STM32L4xx_HAL_Driver/Src/stm32l4xx_hal_dac.c ****   {
1047:Drivers/STM32L4xx_HAL_Driver/Src/stm32l4xx_hal_dac.c ****     tmp += DAC_DHR12R1_ALIGNMENT(Alignment);
1048:Drivers/STM32L4xx_HAL_Driver/Src/stm32l4xx_hal_dac.c ****   }
1049:Drivers/STM32L4xx_HAL_Driver/Src/stm32l4xx_hal_dac.c ****   else
1050:Drivers/STM32L4xx_HAL_Driver/Src/stm32l4xx_hal_dac.c ****   {
1051:Drivers/STM32L4xx_HAL_Driver/Src/stm32l4xx_hal_dac.c ****     tmp += DAC_DHR12R2_ALIGNMENT(Alignment);
 642              		.loc 1 1051 0
 643 000e 0199     		ldr	r1, [sp, #4]
 644              	.LVL54:
 645 0010 0A44     		add	r2, r2, r1
 646              	.LVL55:
 647 0012 1432     		adds	r2, r2, #20
 648 0014 0192     		str	r2, [sp, #4]
 649              	.L64:
1052:Drivers/STM32L4xx_HAL_Driver/Src/stm32l4xx_hal_dac.c ****   }
1053:Drivers/STM32L4xx_HAL_Driver/Src/stm32l4xx_hal_dac.c **** 
1054:Drivers/STM32L4xx_HAL_Driver/Src/stm32l4xx_hal_dac.c ****   /* Set the DAC channel selected data holding register */
1055:Drivers/STM32L4xx_HAL_Driver/Src/stm32l4xx_hal_dac.c ****   *(__IO uint32_t *) tmp = Data;
 650              		.loc 1 1055 0
 651 0016 019A     		ldr	r2, [sp, #4]
 652 0018 1360     		str	r3, [r2]
1056:Drivers/STM32L4xx_HAL_Driver/Src/stm32l4xx_hal_dac.c **** 
1057:Drivers/STM32L4xx_HAL_Driver/Src/stm32l4xx_hal_dac.c ****   /* Return function status */
1058:Drivers/STM32L4xx_HAL_Driver/Src/stm32l4xx_hal_dac.c ****   return HAL_OK;
1059:Drivers/STM32L4xx_HAL_Driver/Src/stm32l4xx_hal_dac.c **** }
 653              		.loc 1 1059 0
 654 001a 0020     		movs	r0, #0
 655 001c 03B0     		add	sp, sp, #12
 656              	.LCFI14:
 657              		.cfi_remember_state
 658              		.cfi_def_cfa_offset 4
 659              		@ sp needed
 660 001e 5DF8044B 		ldr	r4, [sp], #4
 661              	.LCFI15:
 662              		.cfi_restore 4
 663              		.cfi_def_cfa_offset 0
 664 0022 7047     		bx	lr
 665              	.LVL56:
 666              	.L66:
 667              	.LCFI16:
 668              		.cfi_restore_state
1047:Drivers/STM32L4xx_HAL_Driver/Src/stm32l4xx_hal_dac.c ****   }
 669              		.loc 1 1047 0
 670 0024 0199     		ldr	r1, [sp, #4]
 671              	.LVL57:
 672 0026 0A44     		add	r2, r2, r1
ARM GAS  /tmp/ccnfAKrW.s 			page 32


 673              	.LVL58:
 674 0028 0832     		adds	r2, r2, #8
 675 002a 0192     		str	r2, [sp, #4]
 676 002c F3E7     		b	.L64
 677              		.cfi_endproc
 678              	.LFE139:
 680              		.section	.text.HAL_DAC_ConvCpltCallbackCh1,"ax",%progbits
 681              		.align	1
 682              		.weak	HAL_DAC_ConvCpltCallbackCh1
 683              		.syntax unified
 684              		.thumb
 685              		.thumb_func
 686              		.fpu fpv4-sp-d16
 688              	HAL_DAC_ConvCpltCallbackCh1:
 689              	.LFB140:
1060:Drivers/STM32L4xx_HAL_Driver/Src/stm32l4xx_hal_dac.c **** 
1061:Drivers/STM32L4xx_HAL_Driver/Src/stm32l4xx_hal_dac.c **** /**
1062:Drivers/STM32L4xx_HAL_Driver/Src/stm32l4xx_hal_dac.c ****   * @brief  Conversion complete callback in non-blocking mode for Channel1
1063:Drivers/STM32L4xx_HAL_Driver/Src/stm32l4xx_hal_dac.c ****   * @param  hdac pointer to a DAC_HandleTypeDef structure that contains
1064:Drivers/STM32L4xx_HAL_Driver/Src/stm32l4xx_hal_dac.c ****   *         the configuration information for the specified DAC.
1065:Drivers/STM32L4xx_HAL_Driver/Src/stm32l4xx_hal_dac.c ****   * @retval None
1066:Drivers/STM32L4xx_HAL_Driver/Src/stm32l4xx_hal_dac.c ****   */
1067:Drivers/STM32L4xx_HAL_Driver/Src/stm32l4xx_hal_dac.c **** __weak void HAL_DAC_ConvCpltCallbackCh1(DAC_HandleTypeDef *hdac)
1068:Drivers/STM32L4xx_HAL_Driver/Src/stm32l4xx_hal_dac.c **** {
 690              		.loc 1 1068 0
 691              		.cfi_startproc
 692              		@ args = 0, pretend = 0, frame = 0
 693              		@ frame_needed = 0, uses_anonymous_args = 0
 694              		@ link register save eliminated.
 695              	.LVL59:
 696 0000 7047     		bx	lr
 697              		.cfi_endproc
 698              	.LFE140:
 700              		.section	.text.DAC_DMAConvCpltCh1,"ax",%progbits
 701              		.align	1
 702              		.global	DAC_DMAConvCpltCh1
 703              		.syntax unified
 704              		.thumb
 705              		.thumb_func
 706              		.fpu fpv4-sp-d16
 708              	DAC_DMAConvCpltCh1:
 709              	.LFB148:
1069:Drivers/STM32L4xx_HAL_Driver/Src/stm32l4xx_hal_dac.c ****   /* Prevent unused argument(s) compilation warning */
1070:Drivers/STM32L4xx_HAL_Driver/Src/stm32l4xx_hal_dac.c ****   UNUSED(hdac);
1071:Drivers/STM32L4xx_HAL_Driver/Src/stm32l4xx_hal_dac.c **** 
1072:Drivers/STM32L4xx_HAL_Driver/Src/stm32l4xx_hal_dac.c ****   /* NOTE : This function should not be modified, when the callback is needed,
1073:Drivers/STM32L4xx_HAL_Driver/Src/stm32l4xx_hal_dac.c ****             the HAL_DAC_ConvCpltCallbackCh1 could be implemented in the user file
1074:Drivers/STM32L4xx_HAL_Driver/Src/stm32l4xx_hal_dac.c ****    */
1075:Drivers/STM32L4xx_HAL_Driver/Src/stm32l4xx_hal_dac.c **** }
1076:Drivers/STM32L4xx_HAL_Driver/Src/stm32l4xx_hal_dac.c **** 
1077:Drivers/STM32L4xx_HAL_Driver/Src/stm32l4xx_hal_dac.c **** /**
1078:Drivers/STM32L4xx_HAL_Driver/Src/stm32l4xx_hal_dac.c ****   * @brief  Conversion half DMA transfer callback in non-blocking mode for Channel1
1079:Drivers/STM32L4xx_HAL_Driver/Src/stm32l4xx_hal_dac.c ****   * @param  hdac pointer to a DAC_HandleTypeDef structure that contains
1080:Drivers/STM32L4xx_HAL_Driver/Src/stm32l4xx_hal_dac.c ****   *         the configuration information for the specified DAC.
1081:Drivers/STM32L4xx_HAL_Driver/Src/stm32l4xx_hal_dac.c ****   * @retval None
1082:Drivers/STM32L4xx_HAL_Driver/Src/stm32l4xx_hal_dac.c ****   */
1083:Drivers/STM32L4xx_HAL_Driver/Src/stm32l4xx_hal_dac.c **** __weak void HAL_DAC_ConvHalfCpltCallbackCh1(DAC_HandleTypeDef *hdac)
ARM GAS  /tmp/ccnfAKrW.s 			page 33


1084:Drivers/STM32L4xx_HAL_Driver/Src/stm32l4xx_hal_dac.c **** {
1085:Drivers/STM32L4xx_HAL_Driver/Src/stm32l4xx_hal_dac.c ****   /* Prevent unused argument(s) compilation warning */
1086:Drivers/STM32L4xx_HAL_Driver/Src/stm32l4xx_hal_dac.c ****   UNUSED(hdac);
1087:Drivers/STM32L4xx_HAL_Driver/Src/stm32l4xx_hal_dac.c **** 
1088:Drivers/STM32L4xx_HAL_Driver/Src/stm32l4xx_hal_dac.c ****   /* NOTE : This function should not be modified, when the callback is needed,
1089:Drivers/STM32L4xx_HAL_Driver/Src/stm32l4xx_hal_dac.c ****             the HAL_DAC_ConvHalfCpltCallbackCh1 could be implemented in the user file
1090:Drivers/STM32L4xx_HAL_Driver/Src/stm32l4xx_hal_dac.c ****    */
1091:Drivers/STM32L4xx_HAL_Driver/Src/stm32l4xx_hal_dac.c **** }
1092:Drivers/STM32L4xx_HAL_Driver/Src/stm32l4xx_hal_dac.c **** 
1093:Drivers/STM32L4xx_HAL_Driver/Src/stm32l4xx_hal_dac.c **** /**
1094:Drivers/STM32L4xx_HAL_Driver/Src/stm32l4xx_hal_dac.c ****   * @brief  Error DAC callback for Channel1.
1095:Drivers/STM32L4xx_HAL_Driver/Src/stm32l4xx_hal_dac.c ****   * @param  hdac pointer to a DAC_HandleTypeDef structure that contains
1096:Drivers/STM32L4xx_HAL_Driver/Src/stm32l4xx_hal_dac.c ****   *         the configuration information for the specified DAC.
1097:Drivers/STM32L4xx_HAL_Driver/Src/stm32l4xx_hal_dac.c ****   * @retval None
1098:Drivers/STM32L4xx_HAL_Driver/Src/stm32l4xx_hal_dac.c ****   */
1099:Drivers/STM32L4xx_HAL_Driver/Src/stm32l4xx_hal_dac.c **** __weak void HAL_DAC_ErrorCallbackCh1(DAC_HandleTypeDef *hdac)
1100:Drivers/STM32L4xx_HAL_Driver/Src/stm32l4xx_hal_dac.c **** {
1101:Drivers/STM32L4xx_HAL_Driver/Src/stm32l4xx_hal_dac.c ****   /* Prevent unused argument(s) compilation warning */
1102:Drivers/STM32L4xx_HAL_Driver/Src/stm32l4xx_hal_dac.c ****   UNUSED(hdac);
1103:Drivers/STM32L4xx_HAL_Driver/Src/stm32l4xx_hal_dac.c **** 
1104:Drivers/STM32L4xx_HAL_Driver/Src/stm32l4xx_hal_dac.c ****   /* NOTE : This function should not be modified, when the callback is needed,
1105:Drivers/STM32L4xx_HAL_Driver/Src/stm32l4xx_hal_dac.c ****             the HAL_DAC_ErrorCallbackCh1 could be implemented in the user file
1106:Drivers/STM32L4xx_HAL_Driver/Src/stm32l4xx_hal_dac.c ****    */
1107:Drivers/STM32L4xx_HAL_Driver/Src/stm32l4xx_hal_dac.c **** }
1108:Drivers/STM32L4xx_HAL_Driver/Src/stm32l4xx_hal_dac.c **** 
1109:Drivers/STM32L4xx_HAL_Driver/Src/stm32l4xx_hal_dac.c **** /**
1110:Drivers/STM32L4xx_HAL_Driver/Src/stm32l4xx_hal_dac.c ****   * @brief  DMA underrun DAC callback for channel1.
1111:Drivers/STM32L4xx_HAL_Driver/Src/stm32l4xx_hal_dac.c ****   * @param  hdac pointer to a DAC_HandleTypeDef structure that contains
1112:Drivers/STM32L4xx_HAL_Driver/Src/stm32l4xx_hal_dac.c ****   *         the configuration information for the specified DAC.
1113:Drivers/STM32L4xx_HAL_Driver/Src/stm32l4xx_hal_dac.c ****   * @retval None
1114:Drivers/STM32L4xx_HAL_Driver/Src/stm32l4xx_hal_dac.c ****   */
1115:Drivers/STM32L4xx_HAL_Driver/Src/stm32l4xx_hal_dac.c **** __weak void HAL_DAC_DMAUnderrunCallbackCh1(DAC_HandleTypeDef *hdac)
1116:Drivers/STM32L4xx_HAL_Driver/Src/stm32l4xx_hal_dac.c **** {
1117:Drivers/STM32L4xx_HAL_Driver/Src/stm32l4xx_hal_dac.c ****   /* Prevent unused argument(s) compilation warning */
1118:Drivers/STM32L4xx_HAL_Driver/Src/stm32l4xx_hal_dac.c ****   UNUSED(hdac);
1119:Drivers/STM32L4xx_HAL_Driver/Src/stm32l4xx_hal_dac.c **** 
1120:Drivers/STM32L4xx_HAL_Driver/Src/stm32l4xx_hal_dac.c ****   /* NOTE : This function should not be modified, when the callback is needed,
1121:Drivers/STM32L4xx_HAL_Driver/Src/stm32l4xx_hal_dac.c ****             the HAL_DAC_DMAUnderrunCallbackCh1 could be implemented in the user file
1122:Drivers/STM32L4xx_HAL_Driver/Src/stm32l4xx_hal_dac.c ****    */
1123:Drivers/STM32L4xx_HAL_Driver/Src/stm32l4xx_hal_dac.c **** }
1124:Drivers/STM32L4xx_HAL_Driver/Src/stm32l4xx_hal_dac.c **** 
1125:Drivers/STM32L4xx_HAL_Driver/Src/stm32l4xx_hal_dac.c **** /**
1126:Drivers/STM32L4xx_HAL_Driver/Src/stm32l4xx_hal_dac.c ****   * @}
1127:Drivers/STM32L4xx_HAL_Driver/Src/stm32l4xx_hal_dac.c ****   */
1128:Drivers/STM32L4xx_HAL_Driver/Src/stm32l4xx_hal_dac.c **** 
1129:Drivers/STM32L4xx_HAL_Driver/Src/stm32l4xx_hal_dac.c **** /** @defgroup DAC_Exported_Functions_Group3 Peripheral Control functions
1130:Drivers/STM32L4xx_HAL_Driver/Src/stm32l4xx_hal_dac.c ****  *  @brief    Peripheral Control functions
1131:Drivers/STM32L4xx_HAL_Driver/Src/stm32l4xx_hal_dac.c ****  *
1132:Drivers/STM32L4xx_HAL_Driver/Src/stm32l4xx_hal_dac.c **** @verbatim
1133:Drivers/STM32L4xx_HAL_Driver/Src/stm32l4xx_hal_dac.c ****   ==============================================================================
1134:Drivers/STM32L4xx_HAL_Driver/Src/stm32l4xx_hal_dac.c ****              ##### Peripheral Control functions #####
1135:Drivers/STM32L4xx_HAL_Driver/Src/stm32l4xx_hal_dac.c ****   ==============================================================================
1136:Drivers/STM32L4xx_HAL_Driver/Src/stm32l4xx_hal_dac.c ****     [..]  This section provides functions allowing to:
1137:Drivers/STM32L4xx_HAL_Driver/Src/stm32l4xx_hal_dac.c ****       (+) Configure channels.
1138:Drivers/STM32L4xx_HAL_Driver/Src/stm32l4xx_hal_dac.c ****       (+) Set the specified data holding register value for DAC channel.
1139:Drivers/STM32L4xx_HAL_Driver/Src/stm32l4xx_hal_dac.c **** 
1140:Drivers/STM32L4xx_HAL_Driver/Src/stm32l4xx_hal_dac.c **** @endverbatim
ARM GAS  /tmp/ccnfAKrW.s 			page 34


1141:Drivers/STM32L4xx_HAL_Driver/Src/stm32l4xx_hal_dac.c ****   * @{
1142:Drivers/STM32L4xx_HAL_Driver/Src/stm32l4xx_hal_dac.c ****   */
1143:Drivers/STM32L4xx_HAL_Driver/Src/stm32l4xx_hal_dac.c **** 
1144:Drivers/STM32L4xx_HAL_Driver/Src/stm32l4xx_hal_dac.c **** /**
1145:Drivers/STM32L4xx_HAL_Driver/Src/stm32l4xx_hal_dac.c ****   * @brief  Returns the last data output value of the selected DAC channel.
1146:Drivers/STM32L4xx_HAL_Driver/Src/stm32l4xx_hal_dac.c ****   * @param  hdac pointer to a DAC_HandleTypeDef structure that contains
1147:Drivers/STM32L4xx_HAL_Driver/Src/stm32l4xx_hal_dac.c ****   *         the configuration information for the specified DAC.
1148:Drivers/STM32L4xx_HAL_Driver/Src/stm32l4xx_hal_dac.c ****   * @param  Channel The selected DAC channel.
1149:Drivers/STM32L4xx_HAL_Driver/Src/stm32l4xx_hal_dac.c ****   *          This parameter can be one of the following values:
1150:Drivers/STM32L4xx_HAL_Driver/Src/stm32l4xx_hal_dac.c ****   *            @arg DAC_CHANNEL_1: DAC Channel1 selected
1151:Drivers/STM32L4xx_HAL_Driver/Src/stm32l4xx_hal_dac.c ****   *            @arg DAC_CHANNEL_2: DAC Channel2 selected
1152:Drivers/STM32L4xx_HAL_Driver/Src/stm32l4xx_hal_dac.c ****   * @retval The selected DAC channel data output value.
1153:Drivers/STM32L4xx_HAL_Driver/Src/stm32l4xx_hal_dac.c ****   */
1154:Drivers/STM32L4xx_HAL_Driver/Src/stm32l4xx_hal_dac.c **** uint32_t HAL_DAC_GetValue(DAC_HandleTypeDef *hdac, uint32_t Channel)
1155:Drivers/STM32L4xx_HAL_Driver/Src/stm32l4xx_hal_dac.c **** {
1156:Drivers/STM32L4xx_HAL_Driver/Src/stm32l4xx_hal_dac.c ****   /* Check the parameters */
1157:Drivers/STM32L4xx_HAL_Driver/Src/stm32l4xx_hal_dac.c ****   assert_param(IS_DAC_CHANNEL(Channel));
1158:Drivers/STM32L4xx_HAL_Driver/Src/stm32l4xx_hal_dac.c **** 
1159:Drivers/STM32L4xx_HAL_Driver/Src/stm32l4xx_hal_dac.c ****   /* Returns the DAC channel data output register value */
1160:Drivers/STM32L4xx_HAL_Driver/Src/stm32l4xx_hal_dac.c **** #if defined (STM32L451xx) || defined (STM32L452xx) || defined (STM32L462xx)
1161:Drivers/STM32L4xx_HAL_Driver/Src/stm32l4xx_hal_dac.c ****   /* Prevent unused argument(s) compilation warning if no assert_param check */
1162:Drivers/STM32L4xx_HAL_Driver/Src/stm32l4xx_hal_dac.c ****   UNUSED(Channel);
1163:Drivers/STM32L4xx_HAL_Driver/Src/stm32l4xx_hal_dac.c **** 
1164:Drivers/STM32L4xx_HAL_Driver/Src/stm32l4xx_hal_dac.c ****   return hdac->Instance->DOR1;
1165:Drivers/STM32L4xx_HAL_Driver/Src/stm32l4xx_hal_dac.c **** #endif /* STM32L451xx STM32L452xx STM32L462xx */
1166:Drivers/STM32L4xx_HAL_Driver/Src/stm32l4xx_hal_dac.c **** 
1167:Drivers/STM32L4xx_HAL_Driver/Src/stm32l4xx_hal_dac.c **** #if defined (STM32L431xx) || defined (STM32L432xx) || defined (STM32L433xx) || defined (STM32L442xx
1168:Drivers/STM32L4xx_HAL_Driver/Src/stm32l4xx_hal_dac.c ****     defined (STM32L471xx) || defined (STM32L475xx) || defined (STM32L476xx) || defined (STM32L485xx
1169:Drivers/STM32L4xx_HAL_Driver/Src/stm32l4xx_hal_dac.c ****     defined (STM32L4R5xx) || defined (STM32L4R7xx) || defined (STM32L4R9xx) || defined (STM32L4S5xx
1170:Drivers/STM32L4xx_HAL_Driver/Src/stm32l4xx_hal_dac.c ****   if(Channel == DAC_CHANNEL_1)
1171:Drivers/STM32L4xx_HAL_Driver/Src/stm32l4xx_hal_dac.c ****   {
1172:Drivers/STM32L4xx_HAL_Driver/Src/stm32l4xx_hal_dac.c ****     return hdac->Instance->DOR1;
1173:Drivers/STM32L4xx_HAL_Driver/Src/stm32l4xx_hal_dac.c ****   }
1174:Drivers/STM32L4xx_HAL_Driver/Src/stm32l4xx_hal_dac.c ****   else
1175:Drivers/STM32L4xx_HAL_Driver/Src/stm32l4xx_hal_dac.c ****   {
1176:Drivers/STM32L4xx_HAL_Driver/Src/stm32l4xx_hal_dac.c ****     return hdac->Instance->DOR2;
1177:Drivers/STM32L4xx_HAL_Driver/Src/stm32l4xx_hal_dac.c ****   }
1178:Drivers/STM32L4xx_HAL_Driver/Src/stm32l4xx_hal_dac.c **** #endif  /* STM32L431xx STM32L432xx STM32L433xx STM32L442xx STM32L443xx                         */
1179:Drivers/STM32L4xx_HAL_Driver/Src/stm32l4xx_hal_dac.c ****         /* STM32L471xx STM32L475xx STM32L476xx STM32L485xx STM32L486xx STM32L496xx STM32L4A6xx */
1180:Drivers/STM32L4xx_HAL_Driver/Src/stm32l4xx_hal_dac.c ****         /* STM32L4R5xx STM32L4R7xx STM32L4R9xx STM32L4S5xx STM32L4S7xx STM32L4S9xx             */
1181:Drivers/STM32L4xx_HAL_Driver/Src/stm32l4xx_hal_dac.c **** }
1182:Drivers/STM32L4xx_HAL_Driver/Src/stm32l4xx_hal_dac.c **** 
1183:Drivers/STM32L4xx_HAL_Driver/Src/stm32l4xx_hal_dac.c **** /**
1184:Drivers/STM32L4xx_HAL_Driver/Src/stm32l4xx_hal_dac.c ****   * @brief  Configures the selected DAC channel.
1185:Drivers/STM32L4xx_HAL_Driver/Src/stm32l4xx_hal_dac.c ****   * @note   By calling this function, the high frequency interface mode (HFSEL bits)
1186:Drivers/STM32L4xx_HAL_Driver/Src/stm32l4xx_hal_dac.c ****   *         will be set. This parameter scope is the DAC instance. As the function
1187:Drivers/STM32L4xx_HAL_Driver/Src/stm32l4xx_hal_dac.c ****   *         is called for each channel, the @ref DAC_HighFrequency of @arg sConfig
1188:Drivers/STM32L4xx_HAL_Driver/Src/stm32l4xx_hal_dac.c ****   *         must be the same at each call.
1189:Drivers/STM32L4xx_HAL_Driver/Src/stm32l4xx_hal_dac.c ****   *         (or DAC_HIGH_FREQUENCY_INTERFACE_MODE_AUTOMATIC self detect).
1190:Drivers/STM32L4xx_HAL_Driver/Src/stm32l4xx_hal_dac.c ****   * @param  hdac pointer to a DAC_HandleTypeDef structure that contains
1191:Drivers/STM32L4xx_HAL_Driver/Src/stm32l4xx_hal_dac.c ****   *         the configuration information for the specified DAC.
1192:Drivers/STM32L4xx_HAL_Driver/Src/stm32l4xx_hal_dac.c ****   * @param  sConfig DAC configuration structure.
1193:Drivers/STM32L4xx_HAL_Driver/Src/stm32l4xx_hal_dac.c ****   * @param  Channel The selected DAC channel.
1194:Drivers/STM32L4xx_HAL_Driver/Src/stm32l4xx_hal_dac.c ****   *          This parameter can be one of the following values:
1195:Drivers/STM32L4xx_HAL_Driver/Src/stm32l4xx_hal_dac.c ****   *            @arg DAC_CHANNEL_1: DAC Channel1 selected
1196:Drivers/STM32L4xx_HAL_Driver/Src/stm32l4xx_hal_dac.c ****   *            @arg DAC_CHANNEL_2: DAC Channel2 selected (Whenever present)
1197:Drivers/STM32L4xx_HAL_Driver/Src/stm32l4xx_hal_dac.c ****   * @retval HAL status
ARM GAS  /tmp/ccnfAKrW.s 			page 35


1198:Drivers/STM32L4xx_HAL_Driver/Src/stm32l4xx_hal_dac.c ****   */
1199:Drivers/STM32L4xx_HAL_Driver/Src/stm32l4xx_hal_dac.c **** HAL_StatusTypeDef HAL_DAC_ConfigChannel(DAC_HandleTypeDef *hdac, DAC_ChannelConfTypeDef *sConfig, u
1200:Drivers/STM32L4xx_HAL_Driver/Src/stm32l4xx_hal_dac.c **** {
1201:Drivers/STM32L4xx_HAL_Driver/Src/stm32l4xx_hal_dac.c ****   uint32_t tmpreg1;
1202:Drivers/STM32L4xx_HAL_Driver/Src/stm32l4xx_hal_dac.c ****   uint32_t tmpreg2;
1203:Drivers/STM32L4xx_HAL_Driver/Src/stm32l4xx_hal_dac.c ****   uint32_t tickstart = 0U;
1204:Drivers/STM32L4xx_HAL_Driver/Src/stm32l4xx_hal_dac.c **** #if defined (STM32L4R5xx) || defined (STM32L4R7xx) || defined (STM32L4R9xx) || defined (STM32L4S5xx
1205:Drivers/STM32L4xx_HAL_Driver/Src/stm32l4xx_hal_dac.c ****   uint32_t hclkfreq;
1206:Drivers/STM32L4xx_HAL_Driver/Src/stm32l4xx_hal_dac.c **** #endif /* STM32L4R5xx STM32L4R7xx STM32L4R9xx STM32L4S5xx STM32L4S7xx STM32L4S9xx */
1207:Drivers/STM32L4xx_HAL_Driver/Src/stm32l4xx_hal_dac.c **** 
1208:Drivers/STM32L4xx_HAL_Driver/Src/stm32l4xx_hal_dac.c ****   /* Check the DAC parameters */
1209:Drivers/STM32L4xx_HAL_Driver/Src/stm32l4xx_hal_dac.c **** #if defined (STM32L4R5xx) || defined (STM32L4R7xx) || defined (STM32L4R9xx) || defined (STM32L4S5xx
1210:Drivers/STM32L4xx_HAL_Driver/Src/stm32l4xx_hal_dac.c ****   assert_param(IS_DAC_HIGH_FREQUENCY_MODE(sConfig->DAC_HighFrequency));
1211:Drivers/STM32L4xx_HAL_Driver/Src/stm32l4xx_hal_dac.c **** #endif /* STM32L4R5xx STM32L4R7xx STM32L4R9xx STM32L4S5xx STM32L4S7xx STM32L4S9xx */
1212:Drivers/STM32L4xx_HAL_Driver/Src/stm32l4xx_hal_dac.c ****   assert_param(IS_DAC_TRIGGER(sConfig->DAC_Trigger));
1213:Drivers/STM32L4xx_HAL_Driver/Src/stm32l4xx_hal_dac.c ****   assert_param(IS_DAC_OUTPUT_BUFFER_STATE(sConfig->DAC_OutputBuffer));
1214:Drivers/STM32L4xx_HAL_Driver/Src/stm32l4xx_hal_dac.c ****   assert_param(IS_DAC_CHIP_CONNECTION(sConfig->DAC_ConnectOnChipPeripheral));
1215:Drivers/STM32L4xx_HAL_Driver/Src/stm32l4xx_hal_dac.c ****   assert_param(IS_DAC_TRIMMING(sConfig->DAC_UserTrimming));
1216:Drivers/STM32L4xx_HAL_Driver/Src/stm32l4xx_hal_dac.c ****   if ((sConfig->DAC_UserTrimming) == DAC_TRIMMING_USER)
1217:Drivers/STM32L4xx_HAL_Driver/Src/stm32l4xx_hal_dac.c ****   {
1218:Drivers/STM32L4xx_HAL_Driver/Src/stm32l4xx_hal_dac.c ****     assert_param(IS_DAC_TRIMMINGVALUE(sConfig->DAC_TrimmingValue));
1219:Drivers/STM32L4xx_HAL_Driver/Src/stm32l4xx_hal_dac.c ****   }
1220:Drivers/STM32L4xx_HAL_Driver/Src/stm32l4xx_hal_dac.c ****   assert_param(IS_DAC_SAMPLEANDHOLD(sConfig->DAC_SampleAndHold));
1221:Drivers/STM32L4xx_HAL_Driver/Src/stm32l4xx_hal_dac.c ****   if ((sConfig->DAC_SampleAndHold) == DAC_SAMPLEANDHOLD_ENABLE)
1222:Drivers/STM32L4xx_HAL_Driver/Src/stm32l4xx_hal_dac.c ****   {
1223:Drivers/STM32L4xx_HAL_Driver/Src/stm32l4xx_hal_dac.c ****     assert_param(IS_DAC_SAMPLETIME(sConfig->DAC_SampleAndHoldConfig.DAC_SampleTime));
1224:Drivers/STM32L4xx_HAL_Driver/Src/stm32l4xx_hal_dac.c ****     assert_param(IS_DAC_HOLDTIME(sConfig->DAC_SampleAndHoldConfig.DAC_HoldTime));
1225:Drivers/STM32L4xx_HAL_Driver/Src/stm32l4xx_hal_dac.c ****     assert_param(IS_DAC_REFRESHTIME(sConfig->DAC_SampleAndHoldConfig.DAC_RefreshTime));
1226:Drivers/STM32L4xx_HAL_Driver/Src/stm32l4xx_hal_dac.c ****   }
1227:Drivers/STM32L4xx_HAL_Driver/Src/stm32l4xx_hal_dac.c ****   assert_param(IS_DAC_CHANNEL(Channel));
1228:Drivers/STM32L4xx_HAL_Driver/Src/stm32l4xx_hal_dac.c **** 
1229:Drivers/STM32L4xx_HAL_Driver/Src/stm32l4xx_hal_dac.c ****   /* Process locked */
1230:Drivers/STM32L4xx_HAL_Driver/Src/stm32l4xx_hal_dac.c ****   __HAL_LOCK(hdac);
1231:Drivers/STM32L4xx_HAL_Driver/Src/stm32l4xx_hal_dac.c **** 
1232:Drivers/STM32L4xx_HAL_Driver/Src/stm32l4xx_hal_dac.c ****   /* Change DAC state */
1233:Drivers/STM32L4xx_HAL_Driver/Src/stm32l4xx_hal_dac.c ****   hdac->State = HAL_DAC_STATE_BUSY;
1234:Drivers/STM32L4xx_HAL_Driver/Src/stm32l4xx_hal_dac.c **** 
1235:Drivers/STM32L4xx_HAL_Driver/Src/stm32l4xx_hal_dac.c ****   if (sConfig->DAC_SampleAndHold == DAC_SAMPLEANDHOLD_ENABLE)
1236:Drivers/STM32L4xx_HAL_Driver/Src/stm32l4xx_hal_dac.c ****   /* Sample on old configuration */
1237:Drivers/STM32L4xx_HAL_Driver/Src/stm32l4xx_hal_dac.c ****   {
1238:Drivers/STM32L4xx_HAL_Driver/Src/stm32l4xx_hal_dac.c ****     /* SampleTime */
1239:Drivers/STM32L4xx_HAL_Driver/Src/stm32l4xx_hal_dac.c ****     if (Channel == DAC_CHANNEL_1)
1240:Drivers/STM32L4xx_HAL_Driver/Src/stm32l4xx_hal_dac.c ****     {
1241:Drivers/STM32L4xx_HAL_Driver/Src/stm32l4xx_hal_dac.c ****       /* Get timeout */
1242:Drivers/STM32L4xx_HAL_Driver/Src/stm32l4xx_hal_dac.c ****       tickstart = HAL_GetTick();
1243:Drivers/STM32L4xx_HAL_Driver/Src/stm32l4xx_hal_dac.c **** 
1244:Drivers/STM32L4xx_HAL_Driver/Src/stm32l4xx_hal_dac.c ****       /* SHSR1 can be written when BWST1 is cleared */
1245:Drivers/STM32L4xx_HAL_Driver/Src/stm32l4xx_hal_dac.c ****       while (((hdac->Instance->SR) & DAC_SR_BWST1) != 0UL)
1246:Drivers/STM32L4xx_HAL_Driver/Src/stm32l4xx_hal_dac.c ****       {
1247:Drivers/STM32L4xx_HAL_Driver/Src/stm32l4xx_hal_dac.c ****         /* Check for the Timeout */
1248:Drivers/STM32L4xx_HAL_Driver/Src/stm32l4xx_hal_dac.c ****         if ((HAL_GetTick() - tickstart) > TIMEOUT_DAC_CALIBCONFIG)
1249:Drivers/STM32L4xx_HAL_Driver/Src/stm32l4xx_hal_dac.c ****         {
1250:Drivers/STM32L4xx_HAL_Driver/Src/stm32l4xx_hal_dac.c ****           /* Update error code */
1251:Drivers/STM32L4xx_HAL_Driver/Src/stm32l4xx_hal_dac.c ****           SET_BIT(hdac->ErrorCode, HAL_DAC_ERROR_TIMEOUT);
1252:Drivers/STM32L4xx_HAL_Driver/Src/stm32l4xx_hal_dac.c **** 
1253:Drivers/STM32L4xx_HAL_Driver/Src/stm32l4xx_hal_dac.c ****           /* Change the DMA state */
1254:Drivers/STM32L4xx_HAL_Driver/Src/stm32l4xx_hal_dac.c ****           hdac->State = HAL_DAC_STATE_TIMEOUT;
ARM GAS  /tmp/ccnfAKrW.s 			page 36


1255:Drivers/STM32L4xx_HAL_Driver/Src/stm32l4xx_hal_dac.c **** 
1256:Drivers/STM32L4xx_HAL_Driver/Src/stm32l4xx_hal_dac.c ****           return HAL_TIMEOUT;
1257:Drivers/STM32L4xx_HAL_Driver/Src/stm32l4xx_hal_dac.c ****         }
1258:Drivers/STM32L4xx_HAL_Driver/Src/stm32l4xx_hal_dac.c ****       }
1259:Drivers/STM32L4xx_HAL_Driver/Src/stm32l4xx_hal_dac.c ****       HAL_Delay(1);
1260:Drivers/STM32L4xx_HAL_Driver/Src/stm32l4xx_hal_dac.c ****       hdac->Instance->SHSR1 = sConfig->DAC_SampleAndHoldConfig.DAC_SampleTime;
1261:Drivers/STM32L4xx_HAL_Driver/Src/stm32l4xx_hal_dac.c ****     }
1262:Drivers/STM32L4xx_HAL_Driver/Src/stm32l4xx_hal_dac.c **** #if !defined (STM32L451xx) & !defined (STM32L452xx) & !defined (STM32L462xx)
1263:Drivers/STM32L4xx_HAL_Driver/Src/stm32l4xx_hal_dac.c ****     else /* Channel 2 */
1264:Drivers/STM32L4xx_HAL_Driver/Src/stm32l4xx_hal_dac.c ****     {
1265:Drivers/STM32L4xx_HAL_Driver/Src/stm32l4xx_hal_dac.c ****       /* SHSR2 can be written when BWST2 is cleared */
1266:Drivers/STM32L4xx_HAL_Driver/Src/stm32l4xx_hal_dac.c **** 
1267:Drivers/STM32L4xx_HAL_Driver/Src/stm32l4xx_hal_dac.c ****       while (((hdac->Instance->SR) & DAC_SR_BWST2) != 0UL)
1268:Drivers/STM32L4xx_HAL_Driver/Src/stm32l4xx_hal_dac.c ****       {
1269:Drivers/STM32L4xx_HAL_Driver/Src/stm32l4xx_hal_dac.c ****         /* Check for the Timeout */
1270:Drivers/STM32L4xx_HAL_Driver/Src/stm32l4xx_hal_dac.c ****         if ((HAL_GetTick() - tickstart) > TIMEOUT_DAC_CALIBCONFIG)
1271:Drivers/STM32L4xx_HAL_Driver/Src/stm32l4xx_hal_dac.c ****         {
1272:Drivers/STM32L4xx_HAL_Driver/Src/stm32l4xx_hal_dac.c ****           /* Update error code */
1273:Drivers/STM32L4xx_HAL_Driver/Src/stm32l4xx_hal_dac.c ****           SET_BIT(hdac->ErrorCode, HAL_DAC_ERROR_TIMEOUT);
1274:Drivers/STM32L4xx_HAL_Driver/Src/stm32l4xx_hal_dac.c **** 
1275:Drivers/STM32L4xx_HAL_Driver/Src/stm32l4xx_hal_dac.c ****           /* Change the DMA state */
1276:Drivers/STM32L4xx_HAL_Driver/Src/stm32l4xx_hal_dac.c ****           hdac->State = HAL_DAC_STATE_TIMEOUT;
1277:Drivers/STM32L4xx_HAL_Driver/Src/stm32l4xx_hal_dac.c **** 
1278:Drivers/STM32L4xx_HAL_Driver/Src/stm32l4xx_hal_dac.c ****           return HAL_TIMEOUT;
1279:Drivers/STM32L4xx_HAL_Driver/Src/stm32l4xx_hal_dac.c ****         }
1280:Drivers/STM32L4xx_HAL_Driver/Src/stm32l4xx_hal_dac.c ****       }
1281:Drivers/STM32L4xx_HAL_Driver/Src/stm32l4xx_hal_dac.c ****       HAL_Delay(1U);
1282:Drivers/STM32L4xx_HAL_Driver/Src/stm32l4xx_hal_dac.c ****       hdac->Instance->SHSR2 = sConfig->DAC_SampleAndHoldConfig.DAC_SampleTime;
1283:Drivers/STM32L4xx_HAL_Driver/Src/stm32l4xx_hal_dac.c ****     }
1284:Drivers/STM32L4xx_HAL_Driver/Src/stm32l4xx_hal_dac.c **** #endif /* STM32L451xx STM32L452xx STM32L462xx */
1285:Drivers/STM32L4xx_HAL_Driver/Src/stm32l4xx_hal_dac.c **** 
1286:Drivers/STM32L4xx_HAL_Driver/Src/stm32l4xx_hal_dac.c ****     /* HoldTime */
1287:Drivers/STM32L4xx_HAL_Driver/Src/stm32l4xx_hal_dac.c ****     MODIFY_REG(hdac->Instance->SHHR, DAC_SHHR_THOLD1 << (Channel & 0x10UL), (sConfig->DAC_SampleAnd
1288:Drivers/STM32L4xx_HAL_Driver/Src/stm32l4xx_hal_dac.c ****     /* RefreshTime */
1289:Drivers/STM32L4xx_HAL_Driver/Src/stm32l4xx_hal_dac.c ****     MODIFY_REG(hdac->Instance->SHRR, DAC_SHRR_TREFRESH1 << (Channel & 0x10UL), (sConfig->DAC_Sample
1290:Drivers/STM32L4xx_HAL_Driver/Src/stm32l4xx_hal_dac.c ****   }
1291:Drivers/STM32L4xx_HAL_Driver/Src/stm32l4xx_hal_dac.c **** 
1292:Drivers/STM32L4xx_HAL_Driver/Src/stm32l4xx_hal_dac.c ****   if (sConfig->DAC_UserTrimming == DAC_TRIMMING_USER)
1293:Drivers/STM32L4xx_HAL_Driver/Src/stm32l4xx_hal_dac.c ****   /* USER TRIMMING */
1294:Drivers/STM32L4xx_HAL_Driver/Src/stm32l4xx_hal_dac.c ****   {
1295:Drivers/STM32L4xx_HAL_Driver/Src/stm32l4xx_hal_dac.c ****   /* Get the DAC CCR value */
1296:Drivers/STM32L4xx_HAL_Driver/Src/stm32l4xx_hal_dac.c ****   tmpreg1 = hdac->Instance->CCR;
1297:Drivers/STM32L4xx_HAL_Driver/Src/stm32l4xx_hal_dac.c ****   /* Clear trimming value */
1298:Drivers/STM32L4xx_HAL_Driver/Src/stm32l4xx_hal_dac.c ****     tmpreg1 &= ~(((uint32_t)(DAC_CCR_OTRIM1)) << (Channel & 0x10UL));
1299:Drivers/STM32L4xx_HAL_Driver/Src/stm32l4xx_hal_dac.c ****   /* Configure for the selected trimming offset */
1300:Drivers/STM32L4xx_HAL_Driver/Src/stm32l4xx_hal_dac.c ****   tmpreg2 = sConfig->DAC_TrimmingValue;
1301:Drivers/STM32L4xx_HAL_Driver/Src/stm32l4xx_hal_dac.c ****   /* Calculate CCR register value depending on DAC_Channel */
1302:Drivers/STM32L4xx_HAL_Driver/Src/stm32l4xx_hal_dac.c ****     tmpreg1 |= tmpreg2 << (Channel & 0x10UL);
1303:Drivers/STM32L4xx_HAL_Driver/Src/stm32l4xx_hal_dac.c ****   /* Write to DAC CCR */
1304:Drivers/STM32L4xx_HAL_Driver/Src/stm32l4xx_hal_dac.c ****   hdac->Instance->CCR = tmpreg1;
1305:Drivers/STM32L4xx_HAL_Driver/Src/stm32l4xx_hal_dac.c ****   }
1306:Drivers/STM32L4xx_HAL_Driver/Src/stm32l4xx_hal_dac.c ****   /* else factory trimming is used (factory setting are available at reset)*/
1307:Drivers/STM32L4xx_HAL_Driver/Src/stm32l4xx_hal_dac.c ****   /* SW Nothing has nothing to do */
1308:Drivers/STM32L4xx_HAL_Driver/Src/stm32l4xx_hal_dac.c **** 
1309:Drivers/STM32L4xx_HAL_Driver/Src/stm32l4xx_hal_dac.c ****   /* Get the DAC MCR value */
1310:Drivers/STM32L4xx_HAL_Driver/Src/stm32l4xx_hal_dac.c ****   tmpreg1 = hdac->Instance->MCR;
1311:Drivers/STM32L4xx_HAL_Driver/Src/stm32l4xx_hal_dac.c ****   /* Clear DAC_MCR_MODEx bits */
ARM GAS  /tmp/ccnfAKrW.s 			page 37


1312:Drivers/STM32L4xx_HAL_Driver/Src/stm32l4xx_hal_dac.c ****   tmpreg1 &= ~(((uint32_t)(DAC_MCR_MODE1)) << (Channel & 0x10UL));
1313:Drivers/STM32L4xx_HAL_Driver/Src/stm32l4xx_hal_dac.c ****   /* Configure for the selected DAC channel: mode, buffer output & on chip peripheral connect */
1314:Drivers/STM32L4xx_HAL_Driver/Src/stm32l4xx_hal_dac.c ****   tmpreg2 = (sConfig->DAC_SampleAndHold | sConfig->DAC_OutputBuffer | sConfig->DAC_ConnectOnChipPer
1315:Drivers/STM32L4xx_HAL_Driver/Src/stm32l4xx_hal_dac.c ****   /* Calculate MCR register value depending on DAC_Channel */
1316:Drivers/STM32L4xx_HAL_Driver/Src/stm32l4xx_hal_dac.c ****   tmpreg1 |= tmpreg2 << (Channel & 0x10UL);
1317:Drivers/STM32L4xx_HAL_Driver/Src/stm32l4xx_hal_dac.c ****   /* Write to DAC MCR */
1318:Drivers/STM32L4xx_HAL_Driver/Src/stm32l4xx_hal_dac.c ****   hdac->Instance->MCR = tmpreg1;
1319:Drivers/STM32L4xx_HAL_Driver/Src/stm32l4xx_hal_dac.c **** 
1320:Drivers/STM32L4xx_HAL_Driver/Src/stm32l4xx_hal_dac.c ****   /* DAC in normal operating mode hence clear DAC_CR_CENx bit */
1321:Drivers/STM32L4xx_HAL_Driver/Src/stm32l4xx_hal_dac.c ****   CLEAR_BIT(hdac->Instance->CR, DAC_CR_CEN1 << (Channel & 0x10UL));
1322:Drivers/STM32L4xx_HAL_Driver/Src/stm32l4xx_hal_dac.c **** 
1323:Drivers/STM32L4xx_HAL_Driver/Src/stm32l4xx_hal_dac.c ****   /* Get the DAC CR value */
1324:Drivers/STM32L4xx_HAL_Driver/Src/stm32l4xx_hal_dac.c ****   tmpreg1 = hdac->Instance->CR;
1325:Drivers/STM32L4xx_HAL_Driver/Src/stm32l4xx_hal_dac.c ****   /* Clear TENx, TSELx, WAVEx and MAMPx bits */
1326:Drivers/STM32L4xx_HAL_Driver/Src/stm32l4xx_hal_dac.c ****   tmpreg1 &= ~(((uint32_t)(DAC_CR_MAMP1 | DAC_CR_WAVE1 | DAC_CR_TSEL1 | DAC_CR_TEN1)) << (Channel &
1327:Drivers/STM32L4xx_HAL_Driver/Src/stm32l4xx_hal_dac.c ****   /* Configure for the selected DAC channel: trigger */
1328:Drivers/STM32L4xx_HAL_Driver/Src/stm32l4xx_hal_dac.c ****   /* Set TSELx and TENx bits according to DAC_Trigger value */
1329:Drivers/STM32L4xx_HAL_Driver/Src/stm32l4xx_hal_dac.c ****   tmpreg2 = sConfig->DAC_Trigger;
1330:Drivers/STM32L4xx_HAL_Driver/Src/stm32l4xx_hal_dac.c ****   /* Calculate CR register value depending on DAC_Channel */
1331:Drivers/STM32L4xx_HAL_Driver/Src/stm32l4xx_hal_dac.c ****   tmpreg1 |= tmpreg2 << (Channel & 0x10UL);
1332:Drivers/STM32L4xx_HAL_Driver/Src/stm32l4xx_hal_dac.c **** #if defined (STM32L4R5xx) || defined (STM32L4R7xx) || defined (STM32L4R9xx) || defined (STM32L4S5xx
1333:Drivers/STM32L4xx_HAL_Driver/Src/stm32l4xx_hal_dac.c ****   if (DAC_HIGH_FREQUENCY_INTERFACE_MODE_ABOVE_80MHZ == sConfig->DAC_HighFrequency)
1334:Drivers/STM32L4xx_HAL_Driver/Src/stm32l4xx_hal_dac.c ****   {
1335:Drivers/STM32L4xx_HAL_Driver/Src/stm32l4xx_hal_dac.c ****     tmpreg1 |= DAC_CR_HFSEL;
1336:Drivers/STM32L4xx_HAL_Driver/Src/stm32l4xx_hal_dac.c ****   }
1337:Drivers/STM32L4xx_HAL_Driver/Src/stm32l4xx_hal_dac.c ****   else
1338:Drivers/STM32L4xx_HAL_Driver/Src/stm32l4xx_hal_dac.c ****   {
1339:Drivers/STM32L4xx_HAL_Driver/Src/stm32l4xx_hal_dac.c ****     if (DAC_HIGH_FREQUENCY_INTERFACE_MODE_DISABLE == sConfig->DAC_HighFrequency)
1340:Drivers/STM32L4xx_HAL_Driver/Src/stm32l4xx_hal_dac.c ****     {
1341:Drivers/STM32L4xx_HAL_Driver/Src/stm32l4xx_hal_dac.c ****       tmpreg1 &= ~(DAC_CR_HFSEL);
1342:Drivers/STM32L4xx_HAL_Driver/Src/stm32l4xx_hal_dac.c ****     }
1343:Drivers/STM32L4xx_HAL_Driver/Src/stm32l4xx_hal_dac.c ****     else /* Automatic selection */
1344:Drivers/STM32L4xx_HAL_Driver/Src/stm32l4xx_hal_dac.c ****     {
1345:Drivers/STM32L4xx_HAL_Driver/Src/stm32l4xx_hal_dac.c ****       hclkfreq = HAL_RCC_GetHCLKFreq();
1346:Drivers/STM32L4xx_HAL_Driver/Src/stm32l4xx_hal_dac.c ****       if (hclkfreq > HFSEL_ENABLE_THRESHOLD_80MHZ)
1347:Drivers/STM32L4xx_HAL_Driver/Src/stm32l4xx_hal_dac.c ****       {
1348:Drivers/STM32L4xx_HAL_Driver/Src/stm32l4xx_hal_dac.c ****         /* High frequency enable when HCLK frequency higher than 80   */
1349:Drivers/STM32L4xx_HAL_Driver/Src/stm32l4xx_hal_dac.c ****          tmpreg1 |= DAC_CR_HFSEL;
1350:Drivers/STM32L4xx_HAL_Driver/Src/stm32l4xx_hal_dac.c ****       }
1351:Drivers/STM32L4xx_HAL_Driver/Src/stm32l4xx_hal_dac.c ****       else
1352:Drivers/STM32L4xx_HAL_Driver/Src/stm32l4xx_hal_dac.c ****       {
1353:Drivers/STM32L4xx_HAL_Driver/Src/stm32l4xx_hal_dac.c ****         /* High frequency disable when HCLK frequency higher than 80  */
1354:Drivers/STM32L4xx_HAL_Driver/Src/stm32l4xx_hal_dac.c ****         tmpreg1 &= ~(DAC_CR_HFSEL);
1355:Drivers/STM32L4xx_HAL_Driver/Src/stm32l4xx_hal_dac.c ****       }
1356:Drivers/STM32L4xx_HAL_Driver/Src/stm32l4xx_hal_dac.c ****     }
1357:Drivers/STM32L4xx_HAL_Driver/Src/stm32l4xx_hal_dac.c ****   }
1358:Drivers/STM32L4xx_HAL_Driver/Src/stm32l4xx_hal_dac.c **** 
1359:Drivers/STM32L4xx_HAL_Driver/Src/stm32l4xx_hal_dac.c **** #endif /* STM32L4R5xx STM32L4R7xx STM32L4R9xx STM32L4S5xx STM32L4S7xx STM32L4S9xx */
1360:Drivers/STM32L4xx_HAL_Driver/Src/stm32l4xx_hal_dac.c **** 
1361:Drivers/STM32L4xx_HAL_Driver/Src/stm32l4xx_hal_dac.c ****   /* Write to DAC CR */
1362:Drivers/STM32L4xx_HAL_Driver/Src/stm32l4xx_hal_dac.c ****   hdac->Instance->CR = tmpreg1;
1363:Drivers/STM32L4xx_HAL_Driver/Src/stm32l4xx_hal_dac.c ****   /* Disable wave generation */
1364:Drivers/STM32L4xx_HAL_Driver/Src/stm32l4xx_hal_dac.c ****   hdac->Instance->CR &= ~(DAC_CR_WAVE1 << (Channel & 0x10UL));
1365:Drivers/STM32L4xx_HAL_Driver/Src/stm32l4xx_hal_dac.c **** 
1366:Drivers/STM32L4xx_HAL_Driver/Src/stm32l4xx_hal_dac.c ****   /* Change DAC state */
1367:Drivers/STM32L4xx_HAL_Driver/Src/stm32l4xx_hal_dac.c ****   hdac->State = HAL_DAC_STATE_READY;
1368:Drivers/STM32L4xx_HAL_Driver/Src/stm32l4xx_hal_dac.c **** 
ARM GAS  /tmp/ccnfAKrW.s 			page 38


1369:Drivers/STM32L4xx_HAL_Driver/Src/stm32l4xx_hal_dac.c ****   /* Process unlocked */
1370:Drivers/STM32L4xx_HAL_Driver/Src/stm32l4xx_hal_dac.c ****   __HAL_UNLOCK(hdac);
1371:Drivers/STM32L4xx_HAL_Driver/Src/stm32l4xx_hal_dac.c **** 
1372:Drivers/STM32L4xx_HAL_Driver/Src/stm32l4xx_hal_dac.c ****   /* Return function status */
1373:Drivers/STM32L4xx_HAL_Driver/Src/stm32l4xx_hal_dac.c ****   return HAL_OK;
1374:Drivers/STM32L4xx_HAL_Driver/Src/stm32l4xx_hal_dac.c **** }
1375:Drivers/STM32L4xx_HAL_Driver/Src/stm32l4xx_hal_dac.c **** 
1376:Drivers/STM32L4xx_HAL_Driver/Src/stm32l4xx_hal_dac.c **** /**
1377:Drivers/STM32L4xx_HAL_Driver/Src/stm32l4xx_hal_dac.c ****   * @}
1378:Drivers/STM32L4xx_HAL_Driver/Src/stm32l4xx_hal_dac.c ****   */
1379:Drivers/STM32L4xx_HAL_Driver/Src/stm32l4xx_hal_dac.c **** 
1380:Drivers/STM32L4xx_HAL_Driver/Src/stm32l4xx_hal_dac.c **** /** @defgroup DAC_Exported_Functions_Group4 Peripheral State and Errors functions
1381:Drivers/STM32L4xx_HAL_Driver/Src/stm32l4xx_hal_dac.c ****  *  @brief   Peripheral State and Errors functions
1382:Drivers/STM32L4xx_HAL_Driver/Src/stm32l4xx_hal_dac.c ****  *
1383:Drivers/STM32L4xx_HAL_Driver/Src/stm32l4xx_hal_dac.c **** @verbatim
1384:Drivers/STM32L4xx_HAL_Driver/Src/stm32l4xx_hal_dac.c ****   ==============================================================================
1385:Drivers/STM32L4xx_HAL_Driver/Src/stm32l4xx_hal_dac.c ****             ##### Peripheral State and Errors functions #####
1386:Drivers/STM32L4xx_HAL_Driver/Src/stm32l4xx_hal_dac.c ****   ==============================================================================
1387:Drivers/STM32L4xx_HAL_Driver/Src/stm32l4xx_hal_dac.c ****     [..]
1388:Drivers/STM32L4xx_HAL_Driver/Src/stm32l4xx_hal_dac.c ****     This subsection provides functions allowing to
1389:Drivers/STM32L4xx_HAL_Driver/Src/stm32l4xx_hal_dac.c ****       (+) Check the DAC state.
1390:Drivers/STM32L4xx_HAL_Driver/Src/stm32l4xx_hal_dac.c ****       (+) Check the DAC Errors.
1391:Drivers/STM32L4xx_HAL_Driver/Src/stm32l4xx_hal_dac.c **** 
1392:Drivers/STM32L4xx_HAL_Driver/Src/stm32l4xx_hal_dac.c **** @endverbatim
1393:Drivers/STM32L4xx_HAL_Driver/Src/stm32l4xx_hal_dac.c ****   * @{
1394:Drivers/STM32L4xx_HAL_Driver/Src/stm32l4xx_hal_dac.c ****   */
1395:Drivers/STM32L4xx_HAL_Driver/Src/stm32l4xx_hal_dac.c **** 
1396:Drivers/STM32L4xx_HAL_Driver/Src/stm32l4xx_hal_dac.c **** /**
1397:Drivers/STM32L4xx_HAL_Driver/Src/stm32l4xx_hal_dac.c ****   * @brief  return the DAC handle state
1398:Drivers/STM32L4xx_HAL_Driver/Src/stm32l4xx_hal_dac.c ****   * @param  hdac pointer to a DAC_HandleTypeDef structure that contains
1399:Drivers/STM32L4xx_HAL_Driver/Src/stm32l4xx_hal_dac.c ****   *         the configuration information for the specified DAC.
1400:Drivers/STM32L4xx_HAL_Driver/Src/stm32l4xx_hal_dac.c ****   * @retval HAL state
1401:Drivers/STM32L4xx_HAL_Driver/Src/stm32l4xx_hal_dac.c ****   */
1402:Drivers/STM32L4xx_HAL_Driver/Src/stm32l4xx_hal_dac.c **** HAL_DAC_StateTypeDef HAL_DAC_GetState(DAC_HandleTypeDef *hdac)
1403:Drivers/STM32L4xx_HAL_Driver/Src/stm32l4xx_hal_dac.c **** {
1404:Drivers/STM32L4xx_HAL_Driver/Src/stm32l4xx_hal_dac.c ****   /* Return DAC handle state */
1405:Drivers/STM32L4xx_HAL_Driver/Src/stm32l4xx_hal_dac.c ****   return hdac->State;
1406:Drivers/STM32L4xx_HAL_Driver/Src/stm32l4xx_hal_dac.c **** }
1407:Drivers/STM32L4xx_HAL_Driver/Src/stm32l4xx_hal_dac.c **** 
1408:Drivers/STM32L4xx_HAL_Driver/Src/stm32l4xx_hal_dac.c **** 
1409:Drivers/STM32L4xx_HAL_Driver/Src/stm32l4xx_hal_dac.c **** /**
1410:Drivers/STM32L4xx_HAL_Driver/Src/stm32l4xx_hal_dac.c ****   * @brief  Return the DAC error code
1411:Drivers/STM32L4xx_HAL_Driver/Src/stm32l4xx_hal_dac.c ****   * @param  hdac pointer to a DAC_HandleTypeDef structure that contains
1412:Drivers/STM32L4xx_HAL_Driver/Src/stm32l4xx_hal_dac.c ****   *         the configuration information for the specified DAC.
1413:Drivers/STM32L4xx_HAL_Driver/Src/stm32l4xx_hal_dac.c ****   * @retval DAC Error Code
1414:Drivers/STM32L4xx_HAL_Driver/Src/stm32l4xx_hal_dac.c ****   */
1415:Drivers/STM32L4xx_HAL_Driver/Src/stm32l4xx_hal_dac.c **** uint32_t HAL_DAC_GetError(DAC_HandleTypeDef *hdac)
1416:Drivers/STM32L4xx_HAL_Driver/Src/stm32l4xx_hal_dac.c **** {
1417:Drivers/STM32L4xx_HAL_Driver/Src/stm32l4xx_hal_dac.c ****   return hdac->ErrorCode;
1418:Drivers/STM32L4xx_HAL_Driver/Src/stm32l4xx_hal_dac.c **** }
1419:Drivers/STM32L4xx_HAL_Driver/Src/stm32l4xx_hal_dac.c **** 
1420:Drivers/STM32L4xx_HAL_Driver/Src/stm32l4xx_hal_dac.c **** /**
1421:Drivers/STM32L4xx_HAL_Driver/Src/stm32l4xx_hal_dac.c ****   * @}
1422:Drivers/STM32L4xx_HAL_Driver/Src/stm32l4xx_hal_dac.c ****   */
1423:Drivers/STM32L4xx_HAL_Driver/Src/stm32l4xx_hal_dac.c **** 
1424:Drivers/STM32L4xx_HAL_Driver/Src/stm32l4xx_hal_dac.c **** /**
1425:Drivers/STM32L4xx_HAL_Driver/Src/stm32l4xx_hal_dac.c ****   * @}
ARM GAS  /tmp/ccnfAKrW.s 			page 39


1426:Drivers/STM32L4xx_HAL_Driver/Src/stm32l4xx_hal_dac.c ****   */
1427:Drivers/STM32L4xx_HAL_Driver/Src/stm32l4xx_hal_dac.c **** 
1428:Drivers/STM32L4xx_HAL_Driver/Src/stm32l4xx_hal_dac.c **** /** @addtogroup DAC_Exported_Functions
1429:Drivers/STM32L4xx_HAL_Driver/Src/stm32l4xx_hal_dac.c ****   * @{
1430:Drivers/STM32L4xx_HAL_Driver/Src/stm32l4xx_hal_dac.c ****   */
1431:Drivers/STM32L4xx_HAL_Driver/Src/stm32l4xx_hal_dac.c **** 
1432:Drivers/STM32L4xx_HAL_Driver/Src/stm32l4xx_hal_dac.c **** /** @addtogroup DAC_Exported_Functions_Group1
1433:Drivers/STM32L4xx_HAL_Driver/Src/stm32l4xx_hal_dac.c ****   * @{
1434:Drivers/STM32L4xx_HAL_Driver/Src/stm32l4xx_hal_dac.c ****   */
1435:Drivers/STM32L4xx_HAL_Driver/Src/stm32l4xx_hal_dac.c **** #if (USE_HAL_DAC_REGISTER_CALLBACKS == 1)
1436:Drivers/STM32L4xx_HAL_Driver/Src/stm32l4xx_hal_dac.c **** /**
1437:Drivers/STM32L4xx_HAL_Driver/Src/stm32l4xx_hal_dac.c ****   * @brief  Register a User DAC Callback
1438:Drivers/STM32L4xx_HAL_Driver/Src/stm32l4xx_hal_dac.c ****   *         To be used instead of the weak (surcharged) predefined callback
1439:Drivers/STM32L4xx_HAL_Driver/Src/stm32l4xx_hal_dac.c ****   * @param  hdac DAC handle
1440:Drivers/STM32L4xx_HAL_Driver/Src/stm32l4xx_hal_dac.c ****   * @param  CallbackID ID of the callback to be registered
1441:Drivers/STM32L4xx_HAL_Driver/Src/stm32l4xx_hal_dac.c ****   *         This parameter can be one of the following values:
1442:Drivers/STM32L4xx_HAL_Driver/Src/stm32l4xx_hal_dac.c ****   *          @arg @ref HAL_DAC_ERROR_INVALID_CALLBACK   DAC Error Callback ID
1443:Drivers/STM32L4xx_HAL_Driver/Src/stm32l4xx_hal_dac.c ****   *          @arg @ref HAL_DAC_CH1_COMPLETE_CB_ID       DAC CH1 Complete Callback ID
1444:Drivers/STM32L4xx_HAL_Driver/Src/stm32l4xx_hal_dac.c ****   *          @arg @ref HAL_DAC_CH1_HALF_COMPLETE_CB_ID  DAC CH1 Half Complete Callback ID
1445:Drivers/STM32L4xx_HAL_Driver/Src/stm32l4xx_hal_dac.c ****   *          @arg @ref HAL_DAC_CH1_ERROR_ID             DAC CH1 Error Callback ID
1446:Drivers/STM32L4xx_HAL_Driver/Src/stm32l4xx_hal_dac.c ****   *          @arg @ref HAL_DAC_CH1_UNDERRUN_CB_ID       DAC CH1 UnderRun Callback ID
1447:Drivers/STM32L4xx_HAL_Driver/Src/stm32l4xx_hal_dac.c ****   *          @arg @ref HAL_DAC_CH2_COMPLETE_CB_ID       DAC CH2 Complete Callback ID
1448:Drivers/STM32L4xx_HAL_Driver/Src/stm32l4xx_hal_dac.c ****   *          @arg @ref HAL_DAC_CH2_HALF_COMPLETE_CB_ID  DAC CH2 Half Complete Callback ID
1449:Drivers/STM32L4xx_HAL_Driver/Src/stm32l4xx_hal_dac.c ****   *          @arg @ref HAL_DAC_CH2_ERROR_ID             DAC CH2 Error Callback ID
1450:Drivers/STM32L4xx_HAL_Driver/Src/stm32l4xx_hal_dac.c ****   *          @arg @ref HAL_DAC_CH2_UNDERRUN_CB_ID       DAC CH2 UnderRun Callback ID
1451:Drivers/STM32L4xx_HAL_Driver/Src/stm32l4xx_hal_dac.c ****   *          @arg @ref HAL_DAC_MSPINIT_CB_ID            DAC MSP Init Callback ID
1452:Drivers/STM32L4xx_HAL_Driver/Src/stm32l4xx_hal_dac.c ****   *          @arg @ref HAL_DAC_MSPDEINIT_CB_ID          DAC MSP DeInit Callback ID
1453:Drivers/STM32L4xx_HAL_Driver/Src/stm32l4xx_hal_dac.c ****   *
1454:Drivers/STM32L4xx_HAL_Driver/Src/stm32l4xx_hal_dac.c ****   * @param  pCallback pointer to the Callback function
1455:Drivers/STM32L4xx_HAL_Driver/Src/stm32l4xx_hal_dac.c ****   * @retval status
1456:Drivers/STM32L4xx_HAL_Driver/Src/stm32l4xx_hal_dac.c ****   */
1457:Drivers/STM32L4xx_HAL_Driver/Src/stm32l4xx_hal_dac.c **** HAL_StatusTypeDef HAL_DAC_RegisterCallback(DAC_HandleTypeDef *hdac, HAL_DAC_CallbackIDTypeDef Callb
1458:Drivers/STM32L4xx_HAL_Driver/Src/stm32l4xx_hal_dac.c ****                                            pDAC_CallbackTypeDef pCallback)
1459:Drivers/STM32L4xx_HAL_Driver/Src/stm32l4xx_hal_dac.c **** {
1460:Drivers/STM32L4xx_HAL_Driver/Src/stm32l4xx_hal_dac.c ****   HAL_StatusTypeDef status = HAL_OK;
1461:Drivers/STM32L4xx_HAL_Driver/Src/stm32l4xx_hal_dac.c **** 
1462:Drivers/STM32L4xx_HAL_Driver/Src/stm32l4xx_hal_dac.c ****   if (pCallback == NULL)
1463:Drivers/STM32L4xx_HAL_Driver/Src/stm32l4xx_hal_dac.c ****   {
1464:Drivers/STM32L4xx_HAL_Driver/Src/stm32l4xx_hal_dac.c ****     /* Update the error code */
1465:Drivers/STM32L4xx_HAL_Driver/Src/stm32l4xx_hal_dac.c ****     hdac->ErrorCode |= HAL_DAC_ERROR_INVALID_CALLBACK;
1466:Drivers/STM32L4xx_HAL_Driver/Src/stm32l4xx_hal_dac.c ****     return HAL_ERROR;
1467:Drivers/STM32L4xx_HAL_Driver/Src/stm32l4xx_hal_dac.c ****   }
1468:Drivers/STM32L4xx_HAL_Driver/Src/stm32l4xx_hal_dac.c **** 
1469:Drivers/STM32L4xx_HAL_Driver/Src/stm32l4xx_hal_dac.c ****   /* Process locked */
1470:Drivers/STM32L4xx_HAL_Driver/Src/stm32l4xx_hal_dac.c ****   __HAL_LOCK(hdac);
1471:Drivers/STM32L4xx_HAL_Driver/Src/stm32l4xx_hal_dac.c **** 
1472:Drivers/STM32L4xx_HAL_Driver/Src/stm32l4xx_hal_dac.c ****   if (hdac->State == HAL_DAC_STATE_READY)
1473:Drivers/STM32L4xx_HAL_Driver/Src/stm32l4xx_hal_dac.c ****   {
1474:Drivers/STM32L4xx_HAL_Driver/Src/stm32l4xx_hal_dac.c ****     switch (CallbackID)
1475:Drivers/STM32L4xx_HAL_Driver/Src/stm32l4xx_hal_dac.c ****     {
1476:Drivers/STM32L4xx_HAL_Driver/Src/stm32l4xx_hal_dac.c ****     case HAL_DAC_CH1_COMPLETE_CB_ID :
1477:Drivers/STM32L4xx_HAL_Driver/Src/stm32l4xx_hal_dac.c ****       hdac->ConvCpltCallbackCh1 = pCallback;
1478:Drivers/STM32L4xx_HAL_Driver/Src/stm32l4xx_hal_dac.c ****       break;
1479:Drivers/STM32L4xx_HAL_Driver/Src/stm32l4xx_hal_dac.c ****     case HAL_DAC_CH1_HALF_COMPLETE_CB_ID :
1480:Drivers/STM32L4xx_HAL_Driver/Src/stm32l4xx_hal_dac.c ****       hdac->ConvHalfCpltCallbackCh1 = pCallback;
1481:Drivers/STM32L4xx_HAL_Driver/Src/stm32l4xx_hal_dac.c ****       break;
1482:Drivers/STM32L4xx_HAL_Driver/Src/stm32l4xx_hal_dac.c ****     case HAL_DAC_CH1_ERROR_ID :
ARM GAS  /tmp/ccnfAKrW.s 			page 40


1483:Drivers/STM32L4xx_HAL_Driver/Src/stm32l4xx_hal_dac.c ****       hdac->ErrorCallbackCh1 = pCallback;
1484:Drivers/STM32L4xx_HAL_Driver/Src/stm32l4xx_hal_dac.c ****       break;
1485:Drivers/STM32L4xx_HAL_Driver/Src/stm32l4xx_hal_dac.c ****     case HAL_DAC_CH1_UNDERRUN_CB_ID :
1486:Drivers/STM32L4xx_HAL_Driver/Src/stm32l4xx_hal_dac.c ****       hdac->DMAUnderrunCallbackCh1 = pCallback;
1487:Drivers/STM32L4xx_HAL_Driver/Src/stm32l4xx_hal_dac.c ****       break;
1488:Drivers/STM32L4xx_HAL_Driver/Src/stm32l4xx_hal_dac.c ****     case HAL_DAC_CH2_COMPLETE_CB_ID :
1489:Drivers/STM32L4xx_HAL_Driver/Src/stm32l4xx_hal_dac.c ****       hdac->ConvCpltCallbackCh2 = pCallback;
1490:Drivers/STM32L4xx_HAL_Driver/Src/stm32l4xx_hal_dac.c ****       break;
1491:Drivers/STM32L4xx_HAL_Driver/Src/stm32l4xx_hal_dac.c ****     case HAL_DAC_CH2_HALF_COMPLETE_CB_ID :
1492:Drivers/STM32L4xx_HAL_Driver/Src/stm32l4xx_hal_dac.c ****       hdac->ConvHalfCpltCallbackCh2 = pCallback;
1493:Drivers/STM32L4xx_HAL_Driver/Src/stm32l4xx_hal_dac.c ****       break;
1494:Drivers/STM32L4xx_HAL_Driver/Src/stm32l4xx_hal_dac.c ****     case HAL_DAC_CH2_ERROR_ID :
1495:Drivers/STM32L4xx_HAL_Driver/Src/stm32l4xx_hal_dac.c ****       hdac->ErrorCallbackCh2 = pCallback;
1496:Drivers/STM32L4xx_HAL_Driver/Src/stm32l4xx_hal_dac.c ****       break;
1497:Drivers/STM32L4xx_HAL_Driver/Src/stm32l4xx_hal_dac.c ****     case HAL_DAC_CH2_UNDERRUN_CB_ID :
1498:Drivers/STM32L4xx_HAL_Driver/Src/stm32l4xx_hal_dac.c ****       hdac->DMAUnderrunCallbackCh2 = pCallback;
1499:Drivers/STM32L4xx_HAL_Driver/Src/stm32l4xx_hal_dac.c ****       break;
1500:Drivers/STM32L4xx_HAL_Driver/Src/stm32l4xx_hal_dac.c ****     case HAL_DAC_MSPINIT_CB_ID :
1501:Drivers/STM32L4xx_HAL_Driver/Src/stm32l4xx_hal_dac.c ****       hdac->MspInitCallback = pCallback;
1502:Drivers/STM32L4xx_HAL_Driver/Src/stm32l4xx_hal_dac.c ****       break;
1503:Drivers/STM32L4xx_HAL_Driver/Src/stm32l4xx_hal_dac.c ****     case HAL_DAC_MSPDEINIT_CB_ID :
1504:Drivers/STM32L4xx_HAL_Driver/Src/stm32l4xx_hal_dac.c ****       hdac->MspDeInitCallback = pCallback;
1505:Drivers/STM32L4xx_HAL_Driver/Src/stm32l4xx_hal_dac.c ****       break;
1506:Drivers/STM32L4xx_HAL_Driver/Src/stm32l4xx_hal_dac.c ****     default :
1507:Drivers/STM32L4xx_HAL_Driver/Src/stm32l4xx_hal_dac.c ****       /* Update the error code */
1508:Drivers/STM32L4xx_HAL_Driver/Src/stm32l4xx_hal_dac.c ****       hdac->ErrorCode |= HAL_DAC_ERROR_INVALID_CALLBACK;
1509:Drivers/STM32L4xx_HAL_Driver/Src/stm32l4xx_hal_dac.c ****       /* update return status */
1510:Drivers/STM32L4xx_HAL_Driver/Src/stm32l4xx_hal_dac.c ****       status =  HAL_ERROR;
1511:Drivers/STM32L4xx_HAL_Driver/Src/stm32l4xx_hal_dac.c ****       break;
1512:Drivers/STM32L4xx_HAL_Driver/Src/stm32l4xx_hal_dac.c ****     }
1513:Drivers/STM32L4xx_HAL_Driver/Src/stm32l4xx_hal_dac.c ****   }
1514:Drivers/STM32L4xx_HAL_Driver/Src/stm32l4xx_hal_dac.c ****   else if (hdac->State == HAL_DAC_STATE_RESET)
1515:Drivers/STM32L4xx_HAL_Driver/Src/stm32l4xx_hal_dac.c ****   {
1516:Drivers/STM32L4xx_HAL_Driver/Src/stm32l4xx_hal_dac.c ****     switch (CallbackID)
1517:Drivers/STM32L4xx_HAL_Driver/Src/stm32l4xx_hal_dac.c ****     {
1518:Drivers/STM32L4xx_HAL_Driver/Src/stm32l4xx_hal_dac.c ****     case HAL_DAC_MSPINIT_CB_ID :
1519:Drivers/STM32L4xx_HAL_Driver/Src/stm32l4xx_hal_dac.c ****       hdac->MspInitCallback = pCallback;
1520:Drivers/STM32L4xx_HAL_Driver/Src/stm32l4xx_hal_dac.c ****       break;
1521:Drivers/STM32L4xx_HAL_Driver/Src/stm32l4xx_hal_dac.c ****     case HAL_DAC_MSPDEINIT_CB_ID :
1522:Drivers/STM32L4xx_HAL_Driver/Src/stm32l4xx_hal_dac.c ****       hdac->MspDeInitCallback = pCallback;
1523:Drivers/STM32L4xx_HAL_Driver/Src/stm32l4xx_hal_dac.c ****       break;
1524:Drivers/STM32L4xx_HAL_Driver/Src/stm32l4xx_hal_dac.c ****     default :
1525:Drivers/STM32L4xx_HAL_Driver/Src/stm32l4xx_hal_dac.c ****       /* Update the error code */
1526:Drivers/STM32L4xx_HAL_Driver/Src/stm32l4xx_hal_dac.c ****       hdac->ErrorCode |= HAL_DAC_ERROR_INVALID_CALLBACK;
1527:Drivers/STM32L4xx_HAL_Driver/Src/stm32l4xx_hal_dac.c ****       /* update return status */
1528:Drivers/STM32L4xx_HAL_Driver/Src/stm32l4xx_hal_dac.c ****       status =  HAL_ERROR;
1529:Drivers/STM32L4xx_HAL_Driver/Src/stm32l4xx_hal_dac.c ****       break;
1530:Drivers/STM32L4xx_HAL_Driver/Src/stm32l4xx_hal_dac.c ****     }
1531:Drivers/STM32L4xx_HAL_Driver/Src/stm32l4xx_hal_dac.c ****   }
1532:Drivers/STM32L4xx_HAL_Driver/Src/stm32l4xx_hal_dac.c ****   else
1533:Drivers/STM32L4xx_HAL_Driver/Src/stm32l4xx_hal_dac.c ****   {
1534:Drivers/STM32L4xx_HAL_Driver/Src/stm32l4xx_hal_dac.c ****     /* Update the error code */
1535:Drivers/STM32L4xx_HAL_Driver/Src/stm32l4xx_hal_dac.c ****     hdac->ErrorCode |= HAL_DAC_ERROR_INVALID_CALLBACK;
1536:Drivers/STM32L4xx_HAL_Driver/Src/stm32l4xx_hal_dac.c ****     /* update return status */
1537:Drivers/STM32L4xx_HAL_Driver/Src/stm32l4xx_hal_dac.c ****     status =  HAL_ERROR;
1538:Drivers/STM32L4xx_HAL_Driver/Src/stm32l4xx_hal_dac.c ****   }
1539:Drivers/STM32L4xx_HAL_Driver/Src/stm32l4xx_hal_dac.c **** 
ARM GAS  /tmp/ccnfAKrW.s 			page 41


1540:Drivers/STM32L4xx_HAL_Driver/Src/stm32l4xx_hal_dac.c ****   /* Release Lock */
1541:Drivers/STM32L4xx_HAL_Driver/Src/stm32l4xx_hal_dac.c ****   __HAL_UNLOCK(hdac);
1542:Drivers/STM32L4xx_HAL_Driver/Src/stm32l4xx_hal_dac.c ****   return status;
1543:Drivers/STM32L4xx_HAL_Driver/Src/stm32l4xx_hal_dac.c **** }
1544:Drivers/STM32L4xx_HAL_Driver/Src/stm32l4xx_hal_dac.c **** 
1545:Drivers/STM32L4xx_HAL_Driver/Src/stm32l4xx_hal_dac.c **** /**
1546:Drivers/STM32L4xx_HAL_Driver/Src/stm32l4xx_hal_dac.c ****   * @brief  Unregister a User DAC Callback
1547:Drivers/STM32L4xx_HAL_Driver/Src/stm32l4xx_hal_dac.c ****   *         DAC Callback is redirected to the weak (surcharged) predefined callback
1548:Drivers/STM32L4xx_HAL_Driver/Src/stm32l4xx_hal_dac.c ****   * @param  hdac DAC handle
1549:Drivers/STM32L4xx_HAL_Driver/Src/stm32l4xx_hal_dac.c ****   * @param  CallbackID ID of the callback to be unregistered
1550:Drivers/STM32L4xx_HAL_Driver/Src/stm32l4xx_hal_dac.c ****   *         This parameter can be one of the following values:
1551:Drivers/STM32L4xx_HAL_Driver/Src/stm32l4xx_hal_dac.c ****   *          @arg @ref HAL_DAC_CH1_COMPLETE_CB_ID          DAC CH1 tranfer Complete Callback ID
1552:Drivers/STM32L4xx_HAL_Driver/Src/stm32l4xx_hal_dac.c ****   *          @arg @ref HAL_DAC_CH1_HALF_COMPLETE_CB_ID     DAC CH1 Half Complete Callback ID
1553:Drivers/STM32L4xx_HAL_Driver/Src/stm32l4xx_hal_dac.c ****   *          @arg @ref HAL_DAC_CH1_ERROR_ID                DAC CH1 Error Callback ID
1554:Drivers/STM32L4xx_HAL_Driver/Src/stm32l4xx_hal_dac.c ****   *          @arg @ref HAL_DAC_CH1_UNDERRUN_CB_ID          DAC CH1 UnderRun Callback ID
1555:Drivers/STM32L4xx_HAL_Driver/Src/stm32l4xx_hal_dac.c ****   *          @arg @ref HAL_DAC_CH2_COMPLETE_CB_ID          DAC CH2 Complete Callback ID
1556:Drivers/STM32L4xx_HAL_Driver/Src/stm32l4xx_hal_dac.c ****   *          @arg @ref HAL_DAC_CH2_HALF_COMPLETE_CB_ID     DAC CH2 Half Complete Callback ID
1557:Drivers/STM32L4xx_HAL_Driver/Src/stm32l4xx_hal_dac.c ****   *          @arg @ref HAL_DAC_CH2_ERROR_ID                DAC CH2 Error Callback ID
1558:Drivers/STM32L4xx_HAL_Driver/Src/stm32l4xx_hal_dac.c ****   *          @arg @ref HAL_DAC_CH2_UNDERRUN_CB_ID          DAC CH2 UnderRun Callback ID
1559:Drivers/STM32L4xx_HAL_Driver/Src/stm32l4xx_hal_dac.c ****   *          @arg @ref HAL_DAC_MSPINIT_CB_ID               DAC MSP Init Callback ID
1560:Drivers/STM32L4xx_HAL_Driver/Src/stm32l4xx_hal_dac.c ****   *          @arg @ref HAL_DAC_MSPDEINIT_CB_ID             DAC MSP DeInit Callback ID
1561:Drivers/STM32L4xx_HAL_Driver/Src/stm32l4xx_hal_dac.c ****   *          @arg @ref HAL_DAC_ALL_CB_ID                   DAC All callbacks
1562:Drivers/STM32L4xx_HAL_Driver/Src/stm32l4xx_hal_dac.c ****   * @retval status
1563:Drivers/STM32L4xx_HAL_Driver/Src/stm32l4xx_hal_dac.c ****   */
1564:Drivers/STM32L4xx_HAL_Driver/Src/stm32l4xx_hal_dac.c **** HAL_StatusTypeDef HAL_DAC_UnRegisterCallback(DAC_HandleTypeDef *hdac, HAL_DAC_CallbackIDTypeDef Cal
1565:Drivers/STM32L4xx_HAL_Driver/Src/stm32l4xx_hal_dac.c **** {
1566:Drivers/STM32L4xx_HAL_Driver/Src/stm32l4xx_hal_dac.c ****   HAL_StatusTypeDef status = HAL_OK;
1567:Drivers/STM32L4xx_HAL_Driver/Src/stm32l4xx_hal_dac.c **** 
1568:Drivers/STM32L4xx_HAL_Driver/Src/stm32l4xx_hal_dac.c ****   /* Process locked */
1569:Drivers/STM32L4xx_HAL_Driver/Src/stm32l4xx_hal_dac.c ****   __HAL_LOCK(hdac);
1570:Drivers/STM32L4xx_HAL_Driver/Src/stm32l4xx_hal_dac.c **** 
1571:Drivers/STM32L4xx_HAL_Driver/Src/stm32l4xx_hal_dac.c ****   if (hdac->State == HAL_DAC_STATE_READY)
1572:Drivers/STM32L4xx_HAL_Driver/Src/stm32l4xx_hal_dac.c ****   {
1573:Drivers/STM32L4xx_HAL_Driver/Src/stm32l4xx_hal_dac.c ****     switch (CallbackID)
1574:Drivers/STM32L4xx_HAL_Driver/Src/stm32l4xx_hal_dac.c ****     {
1575:Drivers/STM32L4xx_HAL_Driver/Src/stm32l4xx_hal_dac.c ****     case HAL_DAC_CH1_COMPLETE_CB_ID :
1576:Drivers/STM32L4xx_HAL_Driver/Src/stm32l4xx_hal_dac.c ****       hdac->ConvCpltCallbackCh1 = HAL_DAC_ConvCpltCallbackCh1;
1577:Drivers/STM32L4xx_HAL_Driver/Src/stm32l4xx_hal_dac.c ****       break;
1578:Drivers/STM32L4xx_HAL_Driver/Src/stm32l4xx_hal_dac.c ****     case HAL_DAC_CH1_HALF_COMPLETE_CB_ID :
1579:Drivers/STM32L4xx_HAL_Driver/Src/stm32l4xx_hal_dac.c ****       hdac->ConvHalfCpltCallbackCh1 = HAL_DAC_ConvHalfCpltCallbackCh1;
1580:Drivers/STM32L4xx_HAL_Driver/Src/stm32l4xx_hal_dac.c ****       break;
1581:Drivers/STM32L4xx_HAL_Driver/Src/stm32l4xx_hal_dac.c ****     case HAL_DAC_CH1_ERROR_ID :
1582:Drivers/STM32L4xx_HAL_Driver/Src/stm32l4xx_hal_dac.c ****       hdac->ErrorCallbackCh1 = HAL_DAC_ErrorCallbackCh1;
1583:Drivers/STM32L4xx_HAL_Driver/Src/stm32l4xx_hal_dac.c ****       break;
1584:Drivers/STM32L4xx_HAL_Driver/Src/stm32l4xx_hal_dac.c ****     case HAL_DAC_CH1_UNDERRUN_CB_ID :
1585:Drivers/STM32L4xx_HAL_Driver/Src/stm32l4xx_hal_dac.c ****       hdac->DMAUnderrunCallbackCh1 = HAL_DAC_DMAUnderrunCallbackCh1;
1586:Drivers/STM32L4xx_HAL_Driver/Src/stm32l4xx_hal_dac.c ****       break;
1587:Drivers/STM32L4xx_HAL_Driver/Src/stm32l4xx_hal_dac.c ****     case HAL_DAC_CH2_COMPLETE_CB_ID :
1588:Drivers/STM32L4xx_HAL_Driver/Src/stm32l4xx_hal_dac.c ****       hdac->ConvCpltCallbackCh2 = HAL_DACEx_ConvCpltCallbackCh2;
1589:Drivers/STM32L4xx_HAL_Driver/Src/stm32l4xx_hal_dac.c ****       break;
1590:Drivers/STM32L4xx_HAL_Driver/Src/stm32l4xx_hal_dac.c ****     case HAL_DAC_CH2_HALF_COMPLETE_CB_ID :
1591:Drivers/STM32L4xx_HAL_Driver/Src/stm32l4xx_hal_dac.c ****       hdac->ConvHalfCpltCallbackCh2 = HAL_DACEx_ConvHalfCpltCallbackCh2;
1592:Drivers/STM32L4xx_HAL_Driver/Src/stm32l4xx_hal_dac.c ****       break;
1593:Drivers/STM32L4xx_HAL_Driver/Src/stm32l4xx_hal_dac.c ****     case HAL_DAC_CH2_ERROR_ID :
1594:Drivers/STM32L4xx_HAL_Driver/Src/stm32l4xx_hal_dac.c ****       hdac->ErrorCallbackCh2 = HAL_DACEx_ErrorCallbackCh2;
1595:Drivers/STM32L4xx_HAL_Driver/Src/stm32l4xx_hal_dac.c ****       break;
1596:Drivers/STM32L4xx_HAL_Driver/Src/stm32l4xx_hal_dac.c ****     case HAL_DAC_CH2_UNDERRUN_CB_ID :
ARM GAS  /tmp/ccnfAKrW.s 			page 42


1597:Drivers/STM32L4xx_HAL_Driver/Src/stm32l4xx_hal_dac.c ****       hdac->DMAUnderrunCallbackCh2 = HAL_DACEx_DMAUnderrunCallbackCh2;
1598:Drivers/STM32L4xx_HAL_Driver/Src/stm32l4xx_hal_dac.c ****       break;
1599:Drivers/STM32L4xx_HAL_Driver/Src/stm32l4xx_hal_dac.c ****     case HAL_DAC_MSPINIT_CB_ID :
1600:Drivers/STM32L4xx_HAL_Driver/Src/stm32l4xx_hal_dac.c ****       hdac->MspInitCallback = HAL_DAC_MspInit;
1601:Drivers/STM32L4xx_HAL_Driver/Src/stm32l4xx_hal_dac.c ****       break;
1602:Drivers/STM32L4xx_HAL_Driver/Src/stm32l4xx_hal_dac.c ****     case HAL_DAC_MSPDEINIT_CB_ID :
1603:Drivers/STM32L4xx_HAL_Driver/Src/stm32l4xx_hal_dac.c ****       hdac->MspDeInitCallback = HAL_DAC_MspDeInit;
1604:Drivers/STM32L4xx_HAL_Driver/Src/stm32l4xx_hal_dac.c ****       break;
1605:Drivers/STM32L4xx_HAL_Driver/Src/stm32l4xx_hal_dac.c ****     case HAL_DAC_ALL_CB_ID :
1606:Drivers/STM32L4xx_HAL_Driver/Src/stm32l4xx_hal_dac.c ****       hdac->ConvCpltCallbackCh1 = HAL_DAC_ConvCpltCallbackCh1;
1607:Drivers/STM32L4xx_HAL_Driver/Src/stm32l4xx_hal_dac.c ****       hdac->ConvHalfCpltCallbackCh1 = HAL_DAC_ConvHalfCpltCallbackCh1;
1608:Drivers/STM32L4xx_HAL_Driver/Src/stm32l4xx_hal_dac.c ****       hdac->ErrorCallbackCh1 = HAL_DAC_ErrorCallbackCh1;
1609:Drivers/STM32L4xx_HAL_Driver/Src/stm32l4xx_hal_dac.c ****       hdac->DMAUnderrunCallbackCh1 = HAL_DAC_DMAUnderrunCallbackCh1;
1610:Drivers/STM32L4xx_HAL_Driver/Src/stm32l4xx_hal_dac.c ****       hdac->ConvCpltCallbackCh2 = HAL_DACEx_ConvCpltCallbackCh2;
1611:Drivers/STM32L4xx_HAL_Driver/Src/stm32l4xx_hal_dac.c ****       hdac->ConvHalfCpltCallbackCh2 = HAL_DACEx_ConvHalfCpltCallbackCh2;
1612:Drivers/STM32L4xx_HAL_Driver/Src/stm32l4xx_hal_dac.c ****       hdac->ErrorCallbackCh2 = HAL_DACEx_ErrorCallbackCh2;
1613:Drivers/STM32L4xx_HAL_Driver/Src/stm32l4xx_hal_dac.c ****       hdac->DMAUnderrunCallbackCh2 = HAL_DACEx_DMAUnderrunCallbackCh2;
1614:Drivers/STM32L4xx_HAL_Driver/Src/stm32l4xx_hal_dac.c ****       hdac->MspInitCallback = HAL_DAC_MspInit;
1615:Drivers/STM32L4xx_HAL_Driver/Src/stm32l4xx_hal_dac.c ****       hdac->MspDeInitCallback = HAL_DAC_MspDeInit;
1616:Drivers/STM32L4xx_HAL_Driver/Src/stm32l4xx_hal_dac.c ****       break;
1617:Drivers/STM32L4xx_HAL_Driver/Src/stm32l4xx_hal_dac.c ****     default :
1618:Drivers/STM32L4xx_HAL_Driver/Src/stm32l4xx_hal_dac.c ****       /* Update the error code */
1619:Drivers/STM32L4xx_HAL_Driver/Src/stm32l4xx_hal_dac.c ****       hdac->ErrorCode |= HAL_DAC_ERROR_INVALID_CALLBACK;
1620:Drivers/STM32L4xx_HAL_Driver/Src/stm32l4xx_hal_dac.c ****       /* update return status */
1621:Drivers/STM32L4xx_HAL_Driver/Src/stm32l4xx_hal_dac.c ****       status =  HAL_ERROR;
1622:Drivers/STM32L4xx_HAL_Driver/Src/stm32l4xx_hal_dac.c ****       break;
1623:Drivers/STM32L4xx_HAL_Driver/Src/stm32l4xx_hal_dac.c ****     }
1624:Drivers/STM32L4xx_HAL_Driver/Src/stm32l4xx_hal_dac.c ****   }
1625:Drivers/STM32L4xx_HAL_Driver/Src/stm32l4xx_hal_dac.c ****   else if (hdac->State == HAL_DAC_STATE_RESET)
1626:Drivers/STM32L4xx_HAL_Driver/Src/stm32l4xx_hal_dac.c ****   {
1627:Drivers/STM32L4xx_HAL_Driver/Src/stm32l4xx_hal_dac.c ****     switch (CallbackID)
1628:Drivers/STM32L4xx_HAL_Driver/Src/stm32l4xx_hal_dac.c ****     {
1629:Drivers/STM32L4xx_HAL_Driver/Src/stm32l4xx_hal_dac.c ****     case HAL_DAC_MSPINIT_CB_ID :
1630:Drivers/STM32L4xx_HAL_Driver/Src/stm32l4xx_hal_dac.c ****       hdac->MspInitCallback = HAL_DAC_MspInit;
1631:Drivers/STM32L4xx_HAL_Driver/Src/stm32l4xx_hal_dac.c ****       break;
1632:Drivers/STM32L4xx_HAL_Driver/Src/stm32l4xx_hal_dac.c ****     case HAL_DAC_MSPDEINIT_CB_ID :
1633:Drivers/STM32L4xx_HAL_Driver/Src/stm32l4xx_hal_dac.c ****       hdac->MspDeInitCallback = HAL_DAC_MspDeInit;
1634:Drivers/STM32L4xx_HAL_Driver/Src/stm32l4xx_hal_dac.c ****       break;
1635:Drivers/STM32L4xx_HAL_Driver/Src/stm32l4xx_hal_dac.c ****     default :
1636:Drivers/STM32L4xx_HAL_Driver/Src/stm32l4xx_hal_dac.c ****       /* Update the error code */
1637:Drivers/STM32L4xx_HAL_Driver/Src/stm32l4xx_hal_dac.c ****       hdac->ErrorCode |= HAL_DAC_ERROR_INVALID_CALLBACK;
1638:Drivers/STM32L4xx_HAL_Driver/Src/stm32l4xx_hal_dac.c ****       /* update return status */
1639:Drivers/STM32L4xx_HAL_Driver/Src/stm32l4xx_hal_dac.c ****       status =  HAL_ERROR;
1640:Drivers/STM32L4xx_HAL_Driver/Src/stm32l4xx_hal_dac.c ****       break;
1641:Drivers/STM32L4xx_HAL_Driver/Src/stm32l4xx_hal_dac.c ****     }
1642:Drivers/STM32L4xx_HAL_Driver/Src/stm32l4xx_hal_dac.c ****   }
1643:Drivers/STM32L4xx_HAL_Driver/Src/stm32l4xx_hal_dac.c ****   else
1644:Drivers/STM32L4xx_HAL_Driver/Src/stm32l4xx_hal_dac.c ****   {
1645:Drivers/STM32L4xx_HAL_Driver/Src/stm32l4xx_hal_dac.c ****     /* Update the error code */
1646:Drivers/STM32L4xx_HAL_Driver/Src/stm32l4xx_hal_dac.c ****     hdac->ErrorCode |= HAL_DAC_ERROR_INVALID_CALLBACK;
1647:Drivers/STM32L4xx_HAL_Driver/Src/stm32l4xx_hal_dac.c ****     /* update return status */
1648:Drivers/STM32L4xx_HAL_Driver/Src/stm32l4xx_hal_dac.c ****     status =  HAL_ERROR;
1649:Drivers/STM32L4xx_HAL_Driver/Src/stm32l4xx_hal_dac.c ****   }
1650:Drivers/STM32L4xx_HAL_Driver/Src/stm32l4xx_hal_dac.c **** 
1651:Drivers/STM32L4xx_HAL_Driver/Src/stm32l4xx_hal_dac.c ****   /* Release Lock */
1652:Drivers/STM32L4xx_HAL_Driver/Src/stm32l4xx_hal_dac.c ****   __HAL_UNLOCK(hdac);
1653:Drivers/STM32L4xx_HAL_Driver/Src/stm32l4xx_hal_dac.c ****   return status;
ARM GAS  /tmp/ccnfAKrW.s 			page 43


1654:Drivers/STM32L4xx_HAL_Driver/Src/stm32l4xx_hal_dac.c **** }
1655:Drivers/STM32L4xx_HAL_Driver/Src/stm32l4xx_hal_dac.c **** #endif /* USE_HAL_DAC_REGISTER_CALLBACKS */
1656:Drivers/STM32L4xx_HAL_Driver/Src/stm32l4xx_hal_dac.c **** 
1657:Drivers/STM32L4xx_HAL_Driver/Src/stm32l4xx_hal_dac.c **** /**
1658:Drivers/STM32L4xx_HAL_Driver/Src/stm32l4xx_hal_dac.c ****   * @}
1659:Drivers/STM32L4xx_HAL_Driver/Src/stm32l4xx_hal_dac.c ****   */
1660:Drivers/STM32L4xx_HAL_Driver/Src/stm32l4xx_hal_dac.c **** 
1661:Drivers/STM32L4xx_HAL_Driver/Src/stm32l4xx_hal_dac.c **** /**
1662:Drivers/STM32L4xx_HAL_Driver/Src/stm32l4xx_hal_dac.c ****   * @}
1663:Drivers/STM32L4xx_HAL_Driver/Src/stm32l4xx_hal_dac.c ****   */
1664:Drivers/STM32L4xx_HAL_Driver/Src/stm32l4xx_hal_dac.c **** 
1665:Drivers/STM32L4xx_HAL_Driver/Src/stm32l4xx_hal_dac.c **** /** @addtogroup DAC_Private_Functions
1666:Drivers/STM32L4xx_HAL_Driver/Src/stm32l4xx_hal_dac.c ****   * @{
1667:Drivers/STM32L4xx_HAL_Driver/Src/stm32l4xx_hal_dac.c ****   */
1668:Drivers/STM32L4xx_HAL_Driver/Src/stm32l4xx_hal_dac.c **** 
1669:Drivers/STM32L4xx_HAL_Driver/Src/stm32l4xx_hal_dac.c **** /**
1670:Drivers/STM32L4xx_HAL_Driver/Src/stm32l4xx_hal_dac.c ****   * @brief  DMA conversion complete callback.
1671:Drivers/STM32L4xx_HAL_Driver/Src/stm32l4xx_hal_dac.c ****   * @param  hdma pointer to a DMA_HandleTypeDef structure that contains
1672:Drivers/STM32L4xx_HAL_Driver/Src/stm32l4xx_hal_dac.c ****   *                the configuration information for the specified DMA module.
1673:Drivers/STM32L4xx_HAL_Driver/Src/stm32l4xx_hal_dac.c ****   * @retval None
1674:Drivers/STM32L4xx_HAL_Driver/Src/stm32l4xx_hal_dac.c ****   */
1675:Drivers/STM32L4xx_HAL_Driver/Src/stm32l4xx_hal_dac.c **** void DAC_DMAConvCpltCh1(DMA_HandleTypeDef *hdma)
1676:Drivers/STM32L4xx_HAL_Driver/Src/stm32l4xx_hal_dac.c **** {
 710              		.loc 1 1676 0
 711              		.cfi_startproc
 712              		@ args = 0, pretend = 0, frame = 0
 713              		@ frame_needed = 0, uses_anonymous_args = 0
 714              	.LVL60:
 715              		.loc 1 1676 0
 716 0000 10B5     		push	{r4, lr}
 717              	.LCFI17:
 718              		.cfi_def_cfa_offset 8
 719              		.cfi_offset 4, -8
 720              		.cfi_offset 14, -4
1677:Drivers/STM32L4xx_HAL_Driver/Src/stm32l4xx_hal_dac.c ****   DAC_HandleTypeDef *hdac = (DAC_HandleTypeDef *)((DMA_HandleTypeDef *)hdma)->Parent;
 721              		.loc 1 1677 0
 722 0002 846A     		ldr	r4, [r0, #40]
 723              	.LVL61:
1678:Drivers/STM32L4xx_HAL_Driver/Src/stm32l4xx_hal_dac.c **** 
1679:Drivers/STM32L4xx_HAL_Driver/Src/stm32l4xx_hal_dac.c **** #if (USE_HAL_DAC_REGISTER_CALLBACKS == 1)
1680:Drivers/STM32L4xx_HAL_Driver/Src/stm32l4xx_hal_dac.c ****   hdac->ConvCpltCallbackCh1(hdac);
1681:Drivers/STM32L4xx_HAL_Driver/Src/stm32l4xx_hal_dac.c **** #else
1682:Drivers/STM32L4xx_HAL_Driver/Src/stm32l4xx_hal_dac.c ****   HAL_DAC_ConvCpltCallbackCh1(hdac);
 724              		.loc 1 1682 0
 725 0004 2046     		mov	r0, r4
 726              	.LVL62:
 727 0006 FFF7FEFF 		bl	HAL_DAC_ConvCpltCallbackCh1
 728              	.LVL63:
1683:Drivers/STM32L4xx_HAL_Driver/Src/stm32l4xx_hal_dac.c **** #endif /* USE_HAL_DAC_REGISTER_CALLBACKS */
1684:Drivers/STM32L4xx_HAL_Driver/Src/stm32l4xx_hal_dac.c **** 
1685:Drivers/STM32L4xx_HAL_Driver/Src/stm32l4xx_hal_dac.c ****   hdac->State = HAL_DAC_STATE_READY;
 729              		.loc 1 1685 0
 730 000a 0123     		movs	r3, #1
 731 000c 2371     		strb	r3, [r4, #4]
 732 000e 10BD     		pop	{r4, pc}
 733              		.cfi_endproc
 734              	.LFE148:
ARM GAS  /tmp/ccnfAKrW.s 			page 44


 736              		.section	.text.HAL_DAC_ConvHalfCpltCallbackCh1,"ax",%progbits
 737              		.align	1
 738              		.weak	HAL_DAC_ConvHalfCpltCallbackCh1
 739              		.syntax unified
 740              		.thumb
 741              		.thumb_func
 742              		.fpu fpv4-sp-d16
 744              	HAL_DAC_ConvHalfCpltCallbackCh1:
 745              	.LFB141:
1084:Drivers/STM32L4xx_HAL_Driver/Src/stm32l4xx_hal_dac.c ****   /* Prevent unused argument(s) compilation warning */
 746              		.loc 1 1084 0
 747              		.cfi_startproc
 748              		@ args = 0, pretend = 0, frame = 0
 749              		@ frame_needed = 0, uses_anonymous_args = 0
 750              		@ link register save eliminated.
 751              	.LVL64:
 752 0000 7047     		bx	lr
 753              		.cfi_endproc
 754              	.LFE141:
 756              		.section	.text.DAC_DMAHalfConvCpltCh1,"ax",%progbits
 757              		.align	1
 758              		.global	DAC_DMAHalfConvCpltCh1
 759              		.syntax unified
 760              		.thumb
 761              		.thumb_func
 762              		.fpu fpv4-sp-d16
 764              	DAC_DMAHalfConvCpltCh1:
 765              	.LFB149:
1686:Drivers/STM32L4xx_HAL_Driver/Src/stm32l4xx_hal_dac.c **** }
1687:Drivers/STM32L4xx_HAL_Driver/Src/stm32l4xx_hal_dac.c **** 
1688:Drivers/STM32L4xx_HAL_Driver/Src/stm32l4xx_hal_dac.c **** /**
1689:Drivers/STM32L4xx_HAL_Driver/Src/stm32l4xx_hal_dac.c ****   * @brief  DMA half transfer complete callback.
1690:Drivers/STM32L4xx_HAL_Driver/Src/stm32l4xx_hal_dac.c ****   * @param  hdma pointer to a DMA_HandleTypeDef structure that contains
1691:Drivers/STM32L4xx_HAL_Driver/Src/stm32l4xx_hal_dac.c ****   *                the configuration information for the specified DMA module.
1692:Drivers/STM32L4xx_HAL_Driver/Src/stm32l4xx_hal_dac.c ****   * @retval None
1693:Drivers/STM32L4xx_HAL_Driver/Src/stm32l4xx_hal_dac.c ****   */
1694:Drivers/STM32L4xx_HAL_Driver/Src/stm32l4xx_hal_dac.c **** void DAC_DMAHalfConvCpltCh1(DMA_HandleTypeDef *hdma)
1695:Drivers/STM32L4xx_HAL_Driver/Src/stm32l4xx_hal_dac.c **** {
 766              		.loc 1 1695 0
 767              		.cfi_startproc
 768              		@ args = 0, pretend = 0, frame = 0
 769              		@ frame_needed = 0, uses_anonymous_args = 0
 770              	.LVL65:
 771              		.loc 1 1695 0
 772 0000 08B5     		push	{r3, lr}
 773              	.LCFI18:
 774              		.cfi_def_cfa_offset 8
 775              		.cfi_offset 3, -8
 776              		.cfi_offset 14, -4
 777              	.LVL66:
1696:Drivers/STM32L4xx_HAL_Driver/Src/stm32l4xx_hal_dac.c ****   DAC_HandleTypeDef *hdac = (DAC_HandleTypeDef *)((DMA_HandleTypeDef *)hdma)->Parent;
1697:Drivers/STM32L4xx_HAL_Driver/Src/stm32l4xx_hal_dac.c ****   /* Conversion complete callback */
1698:Drivers/STM32L4xx_HAL_Driver/Src/stm32l4xx_hal_dac.c **** #if (USE_HAL_DAC_REGISTER_CALLBACKS == 1)
1699:Drivers/STM32L4xx_HAL_Driver/Src/stm32l4xx_hal_dac.c ****   hdac->ConvHalfCpltCallbackCh1(hdac);
1700:Drivers/STM32L4xx_HAL_Driver/Src/stm32l4xx_hal_dac.c **** #else
1701:Drivers/STM32L4xx_HAL_Driver/Src/stm32l4xx_hal_dac.c ****   HAL_DAC_ConvHalfCpltCallbackCh1(hdac);
 778              		.loc 1 1701 0
ARM GAS  /tmp/ccnfAKrW.s 			page 45


 779 0002 806A     		ldr	r0, [r0, #40]
 780              	.LVL67:
 781 0004 FFF7FEFF 		bl	HAL_DAC_ConvHalfCpltCallbackCh1
 782              	.LVL68:
 783 0008 08BD     		pop	{r3, pc}
 784              		.cfi_endproc
 785              	.LFE149:
 787              		.section	.text.HAL_DAC_ErrorCallbackCh1,"ax",%progbits
 788              		.align	1
 789              		.weak	HAL_DAC_ErrorCallbackCh1
 790              		.syntax unified
 791              		.thumb
 792              		.thumb_func
 793              		.fpu fpv4-sp-d16
 795              	HAL_DAC_ErrorCallbackCh1:
 796              	.LFB142:
1100:Drivers/STM32L4xx_HAL_Driver/Src/stm32l4xx_hal_dac.c ****   /* Prevent unused argument(s) compilation warning */
 797              		.loc 1 1100 0
 798              		.cfi_startproc
 799              		@ args = 0, pretend = 0, frame = 0
 800              		@ frame_needed = 0, uses_anonymous_args = 0
 801              		@ link register save eliminated.
 802              	.LVL69:
 803 0000 7047     		bx	lr
 804              		.cfi_endproc
 805              	.LFE142:
 807              		.section	.text.DAC_DMAErrorCh1,"ax",%progbits
 808              		.align	1
 809              		.global	DAC_DMAErrorCh1
 810              		.syntax unified
 811              		.thumb
 812              		.thumb_func
 813              		.fpu fpv4-sp-d16
 815              	DAC_DMAErrorCh1:
 816              	.LFB150:
1702:Drivers/STM32L4xx_HAL_Driver/Src/stm32l4xx_hal_dac.c **** #endif  /* USE_HAL_DAC_REGISTER_CALLBACKS */
1703:Drivers/STM32L4xx_HAL_Driver/Src/stm32l4xx_hal_dac.c **** }
1704:Drivers/STM32L4xx_HAL_Driver/Src/stm32l4xx_hal_dac.c **** 
1705:Drivers/STM32L4xx_HAL_Driver/Src/stm32l4xx_hal_dac.c **** /**
1706:Drivers/STM32L4xx_HAL_Driver/Src/stm32l4xx_hal_dac.c ****   * @brief  DMA error callback
1707:Drivers/STM32L4xx_HAL_Driver/Src/stm32l4xx_hal_dac.c ****   * @param  hdma pointer to a DMA_HandleTypeDef structure that contains
1708:Drivers/STM32L4xx_HAL_Driver/Src/stm32l4xx_hal_dac.c ****   *                the configuration information for the specified DMA module.
1709:Drivers/STM32L4xx_HAL_Driver/Src/stm32l4xx_hal_dac.c ****   * @retval None
1710:Drivers/STM32L4xx_HAL_Driver/Src/stm32l4xx_hal_dac.c ****   */
1711:Drivers/STM32L4xx_HAL_Driver/Src/stm32l4xx_hal_dac.c **** void DAC_DMAErrorCh1(DMA_HandleTypeDef *hdma)
1712:Drivers/STM32L4xx_HAL_Driver/Src/stm32l4xx_hal_dac.c **** {
 817              		.loc 1 1712 0
 818              		.cfi_startproc
 819              		@ args = 0, pretend = 0, frame = 0
 820              		@ frame_needed = 0, uses_anonymous_args = 0
 821              	.LVL70:
 822              		.loc 1 1712 0
 823 0000 10B5     		push	{r4, lr}
 824              	.LCFI19:
 825              		.cfi_def_cfa_offset 8
 826              		.cfi_offset 4, -8
 827              		.cfi_offset 14, -4
ARM GAS  /tmp/ccnfAKrW.s 			page 46


1713:Drivers/STM32L4xx_HAL_Driver/Src/stm32l4xx_hal_dac.c ****   DAC_HandleTypeDef *hdac = (DAC_HandleTypeDef *)((DMA_HandleTypeDef *)hdma)->Parent;
 828              		.loc 1 1713 0
 829 0002 846A     		ldr	r4, [r0, #40]
 830              	.LVL71:
1714:Drivers/STM32L4xx_HAL_Driver/Src/stm32l4xx_hal_dac.c **** 
1715:Drivers/STM32L4xx_HAL_Driver/Src/stm32l4xx_hal_dac.c ****   /* Set DAC error code to DMA error */
1716:Drivers/STM32L4xx_HAL_Driver/Src/stm32l4xx_hal_dac.c ****   hdac->ErrorCode |= HAL_DAC_ERROR_DMA;
 831              		.loc 1 1716 0
 832 0004 2369     		ldr	r3, [r4, #16]
 833 0006 43F00403 		orr	r3, r3, #4
 834 000a 2361     		str	r3, [r4, #16]
1717:Drivers/STM32L4xx_HAL_Driver/Src/stm32l4xx_hal_dac.c **** 
1718:Drivers/STM32L4xx_HAL_Driver/Src/stm32l4xx_hal_dac.c **** #if (USE_HAL_DAC_REGISTER_CALLBACKS == 1)
1719:Drivers/STM32L4xx_HAL_Driver/Src/stm32l4xx_hal_dac.c ****   hdac->ErrorCallbackCh1(hdac);
1720:Drivers/STM32L4xx_HAL_Driver/Src/stm32l4xx_hal_dac.c **** #else
1721:Drivers/STM32L4xx_HAL_Driver/Src/stm32l4xx_hal_dac.c ****   HAL_DAC_ErrorCallbackCh1(hdac);
 835              		.loc 1 1721 0
 836 000c 2046     		mov	r0, r4
 837              	.LVL72:
 838 000e FFF7FEFF 		bl	HAL_DAC_ErrorCallbackCh1
 839              	.LVL73:
1722:Drivers/STM32L4xx_HAL_Driver/Src/stm32l4xx_hal_dac.c **** #endif /* USE_HAL_DAC_REGISTER_CALLBACKS */
1723:Drivers/STM32L4xx_HAL_Driver/Src/stm32l4xx_hal_dac.c **** 
1724:Drivers/STM32L4xx_HAL_Driver/Src/stm32l4xx_hal_dac.c ****   hdac->State = HAL_DAC_STATE_READY;
 840              		.loc 1 1724 0
 841 0012 0123     		movs	r3, #1
 842 0014 2371     		strb	r3, [r4, #4]
 843 0016 10BD     		pop	{r4, pc}
 844              		.cfi_endproc
 845              	.LFE150:
 847              		.section	.text.HAL_DAC_DMAUnderrunCallbackCh1,"ax",%progbits
 848              		.align	1
 849              		.weak	HAL_DAC_DMAUnderrunCallbackCh1
 850              		.syntax unified
 851              		.thumb
 852              		.thumb_func
 853              		.fpu fpv4-sp-d16
 855              	HAL_DAC_DMAUnderrunCallbackCh1:
 856              	.LFB143:
1116:Drivers/STM32L4xx_HAL_Driver/Src/stm32l4xx_hal_dac.c ****   /* Prevent unused argument(s) compilation warning */
 857              		.loc 1 1116 0
 858              		.cfi_startproc
 859              		@ args = 0, pretend = 0, frame = 0
 860              		@ frame_needed = 0, uses_anonymous_args = 0
 861              		@ link register save eliminated.
 862              	.LVL74:
 863 0000 7047     		bx	lr
 864              		.cfi_endproc
 865              	.LFE143:
 867              		.section	.text.HAL_DAC_IRQHandler,"ax",%progbits
 868              		.align	1
 869              		.global	HAL_DAC_IRQHandler
 870              		.syntax unified
 871              		.thumb
 872              		.thumb_func
 873              		.fpu fpv4-sp-d16
 875              	HAL_DAC_IRQHandler:
ARM GAS  /tmp/ccnfAKrW.s 			page 47


 876              	.LFB138:
 960:Drivers/STM32L4xx_HAL_Driver/Src/stm32l4xx_hal_dac.c ****   if (__HAL_DAC_GET_IT_SOURCE(hdac, DAC_IT_DMAUDR1))
 877              		.loc 1 960 0
 878              		.cfi_startproc
 879              		@ args = 0, pretend = 0, frame = 0
 880              		@ frame_needed = 0, uses_anonymous_args = 0
 881              	.LVL75:
 960:Drivers/STM32L4xx_HAL_Driver/Src/stm32l4xx_hal_dac.c ****   if (__HAL_DAC_GET_IT_SOURCE(hdac, DAC_IT_DMAUDR1))
 882              		.loc 1 960 0
 883 0000 10B5     		push	{r4, lr}
 884              	.LCFI20:
 885              		.cfi_def_cfa_offset 8
 886              		.cfi_offset 4, -8
 887              		.cfi_offset 14, -4
 888 0002 0446     		mov	r4, r0
 961:Drivers/STM32L4xx_HAL_Driver/Src/stm32l4xx_hal_dac.c ****   {
 889              		.loc 1 961 0
 890 0004 0368     		ldr	r3, [r0]
 891 0006 1A68     		ldr	r2, [r3]
 892 0008 12F4005F 		tst	r2, #8192
 893 000c 03D0     		beq	.L78
 964:Drivers/STM32L4xx_HAL_Driver/Src/stm32l4xx_hal_dac.c ****     {
 894              		.loc 1 964 0
 895 000e 5A6B     		ldr	r2, [r3, #52]
 896 0010 12F4005F 		tst	r2, #8192
 897 0014 09D1     		bne	.L81
 898              	.LVL76:
 899              	.L78:
 989:Drivers/STM32L4xx_HAL_Driver/Src/stm32l4xx_hal_dac.c ****   {
 900              		.loc 1 989 0
 901 0016 2368     		ldr	r3, [r4]
 902 0018 1A68     		ldr	r2, [r3]
 903 001a 12F0005F 		tst	r2, #536870912
 904 001e 03D0     		beq	.L77
 992:Drivers/STM32L4xx_HAL_Driver/Src/stm32l4xx_hal_dac.c ****     {
 905              		.loc 1 992 0
 906 0020 5A6B     		ldr	r2, [r3, #52]
 907 0022 12F0005F 		tst	r2, #536870912
 908 0026 11D1     		bne	.L82
 909              	.L77:
 910 0028 10BD     		pop	{r4, pc}
 911              	.LVL77:
 912              	.L81:
 967:Drivers/STM32L4xx_HAL_Driver/Src/stm32l4xx_hal_dac.c **** 
 913              		.loc 1 967 0
 914 002a 0422     		movs	r2, #4
 915 002c 0271     		strb	r2, [r0, #4]
 970:Drivers/STM32L4xx_HAL_Driver/Src/stm32l4xx_hal_dac.c **** 
 916              		.loc 1 970 0
 917 002e 0269     		ldr	r2, [r0, #16]
 918 0030 42F00102 		orr	r2, r2, #1
 919 0034 0261     		str	r2, [r0, #16]
 973:Drivers/STM32L4xx_HAL_Driver/Src/stm32l4xx_hal_dac.c **** 
 920              		.loc 1 973 0
 921 0036 4FF40052 		mov	r2, #8192
 922 003a 5A63     		str	r2, [r3, #52]
 976:Drivers/STM32L4xx_HAL_Driver/Src/stm32l4xx_hal_dac.c **** 
ARM GAS  /tmp/ccnfAKrW.s 			page 48


 923              		.loc 1 976 0
 924 003c 0268     		ldr	r2, [r0]
 925 003e 1368     		ldr	r3, [r2]
 926 0040 23F48053 		bic	r3, r3, #4096
 927 0044 1360     		str	r3, [r2]
 982:Drivers/STM32L4xx_HAL_Driver/Src/stm32l4xx_hal_dac.c **** #endif /* USE_HAL_DAC_REGISTER_CALLBACKS */
 928              		.loc 1 982 0
 929 0046 FFF7FEFF 		bl	HAL_DAC_DMAUnderrunCallbackCh1
 930              	.LVL78:
 931 004a E4E7     		b	.L78
 932              	.L82:
 995:Drivers/STM32L4xx_HAL_Driver/Src/stm32l4xx_hal_dac.c **** 
 933              		.loc 1 995 0
 934 004c 0422     		movs	r2, #4
 935 004e 2271     		strb	r2, [r4, #4]
 998:Drivers/STM32L4xx_HAL_Driver/Src/stm32l4xx_hal_dac.c **** 
 936              		.loc 1 998 0
 937 0050 2269     		ldr	r2, [r4, #16]
 938 0052 42F00202 		orr	r2, r2, #2
 939 0056 2261     		str	r2, [r4, #16]
1001:Drivers/STM32L4xx_HAL_Driver/Src/stm32l4xx_hal_dac.c **** 
 940              		.loc 1 1001 0
 941 0058 4FF00052 		mov	r2, #536870912
 942 005c 5A63     		str	r2, [r3, #52]
1004:Drivers/STM32L4xx_HAL_Driver/Src/stm32l4xx_hal_dac.c **** 
 943              		.loc 1 1004 0
 944 005e 2268     		ldr	r2, [r4]
 945 0060 1368     		ldr	r3, [r2]
 946 0062 23F08053 		bic	r3, r3, #268435456
 947 0066 1360     		str	r3, [r2]
1010:Drivers/STM32L4xx_HAL_Driver/Src/stm32l4xx_hal_dac.c **** #endif /* USE_HAL_DAC_REGISTER_CALLBACKS */
 948              		.loc 1 1010 0
 949 0068 2046     		mov	r0, r4
 950 006a FFF7FEFF 		bl	HAL_DACEx_DMAUnderrunCallbackCh2
 951              	.LVL79:
1017:Drivers/STM32L4xx_HAL_Driver/Src/stm32l4xx_hal_dac.c **** 
 952              		.loc 1 1017 0
 953 006e DBE7     		b	.L77
 954              		.cfi_endproc
 955              	.LFE138:
 957              		.section	.text.HAL_DAC_GetValue,"ax",%progbits
 958              		.align	1
 959              		.global	HAL_DAC_GetValue
 960              		.syntax unified
 961              		.thumb
 962              		.thumb_func
 963              		.fpu fpv4-sp-d16
 965              	HAL_DAC_GetValue:
 966              	.LFB144:
1155:Drivers/STM32L4xx_HAL_Driver/Src/stm32l4xx_hal_dac.c ****   /* Check the parameters */
 967              		.loc 1 1155 0
 968              		.cfi_startproc
 969              		@ args = 0, pretend = 0, frame = 0
 970              		@ frame_needed = 0, uses_anonymous_args = 0
 971              		@ link register save eliminated.
 972              	.LVL80:
1170:Drivers/STM32L4xx_HAL_Driver/Src/stm32l4xx_hal_dac.c ****   {
ARM GAS  /tmp/ccnfAKrW.s 			page 49


 973              		.loc 1 1170 0
 974 0000 11B1     		cbz	r1, .L86
1176:Drivers/STM32L4xx_HAL_Driver/Src/stm32l4xx_hal_dac.c ****   }
 975              		.loc 1 1176 0
 976 0002 0368     		ldr	r3, [r0]
 977 0004 186B     		ldr	r0, [r3, #48]
 978              	.LVL81:
1181:Drivers/STM32L4xx_HAL_Driver/Src/stm32l4xx_hal_dac.c **** 
 979              		.loc 1 1181 0
 980 0006 7047     		bx	lr
 981              	.LVL82:
 982              	.L86:
1172:Drivers/STM32L4xx_HAL_Driver/Src/stm32l4xx_hal_dac.c ****   }
 983              		.loc 1 1172 0
 984 0008 0368     		ldr	r3, [r0]
 985 000a D86A     		ldr	r0, [r3, #44]
 986              	.LVL83:
 987 000c 7047     		bx	lr
 988              		.cfi_endproc
 989              	.LFE144:
 991              		.section	.text.HAL_DAC_ConfigChannel,"ax",%progbits
 992              		.align	1
 993              		.global	HAL_DAC_ConfigChannel
 994              		.syntax unified
 995              		.thumb
 996              		.thumb_func
 997              		.fpu fpv4-sp-d16
 999              	HAL_DAC_ConfigChannel:
 1000              	.LFB145:
1200:Drivers/STM32L4xx_HAL_Driver/Src/stm32l4xx_hal_dac.c ****   uint32_t tmpreg1;
 1001              		.loc 1 1200 0
 1002              		.cfi_startproc
 1003              		@ args = 0, pretend = 0, frame = 0
 1004              		@ frame_needed = 0, uses_anonymous_args = 0
 1005              	.LVL84:
 1006 0000 F8B5     		push	{r3, r4, r5, r6, r7, lr}
 1007              	.LCFI21:
 1008              		.cfi_def_cfa_offset 24
 1009              		.cfi_offset 3, -24
 1010              		.cfi_offset 4, -20
 1011              		.cfi_offset 5, -16
 1012              		.cfi_offset 6, -12
 1013              		.cfi_offset 7, -8
 1014              		.cfi_offset 14, -4
 1015              	.LVL85:
1230:Drivers/STM32L4xx_HAL_Driver/Src/stm32l4xx_hal_dac.c **** 
 1016              		.loc 1 1230 0
 1017 0002 4379     		ldrb	r3, [r0, #5]	@ zero_extendqisi2
 1018 0004 012B     		cmp	r3, #1
 1019 0006 00F09480 		beq	.L96
 1020 000a 1646     		mov	r6, r2
 1021 000c 0D46     		mov	r5, r1
 1022 000e 0446     		mov	r4, r0
1230:Drivers/STM32L4xx_HAL_Driver/Src/stm32l4xx_hal_dac.c **** 
 1023              		.loc 1 1230 0 is_stmt 0 discriminator 2
 1024 0010 0123     		movs	r3, #1
 1025 0012 4371     		strb	r3, [r0, #5]
ARM GAS  /tmp/ccnfAKrW.s 			page 50


1233:Drivers/STM32L4xx_HAL_Driver/Src/stm32l4xx_hal_dac.c **** 
 1026              		.loc 1 1233 0 is_stmt 1 discriminator 2
 1027 0014 0223     		movs	r3, #2
 1028 0016 0371     		strb	r3, [r0, #4]
1235:Drivers/STM32L4xx_HAL_Driver/Src/stm32l4xx_hal_dac.c ****   /* Sample on old configuration */
 1029              		.loc 1 1235 0 discriminator 2
 1030 0018 0B68     		ldr	r3, [r1]
 1031 001a 042B     		cmp	r3, #4
 1032 001c 32D0     		beq	.L98
 1033              	.LVL86:
 1034              	.L89:
1292:Drivers/STM32L4xx_HAL_Driver/Src/stm32l4xx_hal_dac.c ****   /* USER TRIMMING */
 1035              		.loc 1 1292 0
 1036 001e 2B69     		ldr	r3, [r5, #16]
 1037 0020 012B     		cmp	r3, #1
 1038 0022 79D0     		beq	.L99
 1039              	.L95:
1310:Drivers/STM32L4xx_HAL_Driver/Src/stm32l4xx_hal_dac.c ****   /* Clear DAC_MCR_MODEx bits */
 1040              		.loc 1 1310 0
 1041 0024 2068     		ldr	r0, [r4]
 1042 0026 C36B     		ldr	r3, [r0, #60]
 1043              	.LVL87:
1312:Drivers/STM32L4xx_HAL_Driver/Src/stm32l4xx_hal_dac.c ****   /* Configure for the selected DAC channel: mode, buffer output & on chip peripheral connect */
 1044              		.loc 1 1312 0
 1045 0028 06F01002 		and	r2, r6, #16
 1046 002c 0721     		movs	r1, #7
 1047 002e 9140     		lsls	r1, r1, r2
 1048 0030 23EA0101 		bic	r1, r3, r1
 1049              	.LVL88:
1314:Drivers/STM32L4xx_HAL_Driver/Src/stm32l4xx_hal_dac.c ****   /* Calculate MCR register value depending on DAC_Channel */
 1050              		.loc 1 1314 0
 1051 0034 2B68     		ldr	r3, [r5]
 1052 0036 AE68     		ldr	r6, [r5, #8]
 1053              	.LVL89:
 1054 0038 3343     		orrs	r3, r3, r6
 1055 003a EE68     		ldr	r6, [r5, #12]
 1056 003c 3343     		orrs	r3, r3, r6
 1057              	.LVL90:
1316:Drivers/STM32L4xx_HAL_Driver/Src/stm32l4xx_hal_dac.c ****   /* Write to DAC MCR */
 1058              		.loc 1 1316 0
 1059 003e 9340     		lsls	r3, r3, r2
 1060              	.LVL91:
 1061 0040 0B43     		orrs	r3, r3, r1
 1062              	.LVL92:
1318:Drivers/STM32L4xx_HAL_Driver/Src/stm32l4xx_hal_dac.c **** 
 1063              		.loc 1 1318 0
 1064 0042 C363     		str	r3, [r0, #60]
 1065              	.LVL93:
1321:Drivers/STM32L4xx_HAL_Driver/Src/stm32l4xx_hal_dac.c **** 
 1066              		.loc 1 1321 0
 1067 0044 2068     		ldr	r0, [r4]
 1068 0046 0368     		ldr	r3, [r0]
 1069              	.LVL94:
 1070 0048 4FF48041 		mov	r1, #16384
 1071 004c 9140     		lsls	r1, r1, r2
 1072 004e 23EA0103 		bic	r3, r3, r1
 1073 0052 0360     		str	r3, [r0]
ARM GAS  /tmp/ccnfAKrW.s 			page 51


1324:Drivers/STM32L4xx_HAL_Driver/Src/stm32l4xx_hal_dac.c ****   /* Clear TENx, TSELx, WAVEx and MAMPx bits */
 1074              		.loc 1 1324 0
 1075 0054 2068     		ldr	r0, [r4]
 1076 0056 0368     		ldr	r3, [r0]
 1077              	.LVL95:
1326:Drivers/STM32L4xx_HAL_Driver/Src/stm32l4xx_hal_dac.c ****   /* Configure for the selected DAC channel: trigger */
 1078              		.loc 1 1326 0
 1079 0058 40F6FC71 		movw	r1, #4092
 1080 005c 9140     		lsls	r1, r1, r2
 1081 005e 23EA0103 		bic	r3, r3, r1
 1082              	.LVL96:
1329:Drivers/STM32L4xx_HAL_Driver/Src/stm32l4xx_hal_dac.c ****   /* Calculate CR register value depending on DAC_Channel */
 1083              		.loc 1 1329 0
 1084 0062 6968     		ldr	r1, [r5, #4]
 1085              	.LVL97:
1331:Drivers/STM32L4xx_HAL_Driver/Src/stm32l4xx_hal_dac.c **** #if defined (STM32L4R5xx) || defined (STM32L4R7xx) || defined (STM32L4R9xx) || defined (STM32L4S5xx
 1086              		.loc 1 1331 0
 1087 0064 9140     		lsls	r1, r1, r2
 1088              	.LVL98:
 1089 0066 0B43     		orrs	r3, r3, r1
 1090              	.LVL99:
1362:Drivers/STM32L4xx_HAL_Driver/Src/stm32l4xx_hal_dac.c ****   /* Disable wave generation */
 1091              		.loc 1 1362 0
 1092 0068 0360     		str	r3, [r0]
 1093              	.LVL100:
1364:Drivers/STM32L4xx_HAL_Driver/Src/stm32l4xx_hal_dac.c **** 
 1094              		.loc 1 1364 0
 1095 006a 2068     		ldr	r0, [r4]
 1096 006c 0368     		ldr	r3, [r0]
 1097              	.LVL101:
 1098 006e C021     		movs	r1, #192
 1099 0070 01FA02F2 		lsl	r2, r1, r2
 1100 0074 23EA0202 		bic	r2, r3, r2
 1101 0078 0260     		str	r2, [r0]
1367:Drivers/STM32L4xx_HAL_Driver/Src/stm32l4xx_hal_dac.c **** 
 1102              		.loc 1 1367 0
 1103 007a 0123     		movs	r3, #1
 1104 007c 2371     		strb	r3, [r4, #4]
1370:Drivers/STM32L4xx_HAL_Driver/Src/stm32l4xx_hal_dac.c **** 
 1105              		.loc 1 1370 0
 1106 007e 0020     		movs	r0, #0
 1107 0080 6071     		strb	r0, [r4, #5]
1373:Drivers/STM32L4xx_HAL_Driver/Src/stm32l4xx_hal_dac.c **** }
 1108              		.loc 1 1373 0
 1109 0082 F8BD     		pop	{r3, r4, r5, r6, r7, pc}
 1110              	.LVL102:
 1111              	.L98:
1239:Drivers/STM32L4xx_HAL_Driver/Src/stm32l4xx_hal_dac.c ****     {
 1112              		.loc 1 1239 0
 1113 0084 72B1     		cbz	r2, .L100
 1114              	.LVL103:
 1115              	.L90:
1267:Drivers/STM32L4xx_HAL_Driver/Src/stm32l4xx_hal_dac.c ****       {
 1116              		.loc 1 1267 0
 1117 0086 2368     		ldr	r3, [r4]
 1118 0088 5B6B     		ldr	r3, [r3, #52]
 1119 008a 002B     		cmp	r3, #0
ARM GAS  /tmp/ccnfAKrW.s 			page 52


 1120 008c 25DA     		bge	.L101
1270:Drivers/STM32L4xx_HAL_Driver/Src/stm32l4xx_hal_dac.c ****         {
 1121              		.loc 1 1270 0
 1122 008e FFF7FEFF 		bl	HAL_GetTick
 1123              	.LVL104:
 1124 0092 0128     		cmp	r0, #1
 1125 0094 F7D9     		bls	.L90
1273:Drivers/STM32L4xx_HAL_Driver/Src/stm32l4xx_hal_dac.c **** 
 1126              		.loc 1 1273 0
 1127 0096 2369     		ldr	r3, [r4, #16]
 1128 0098 43F00803 		orr	r3, r3, #8
 1129 009c 2361     		str	r3, [r4, #16]
1276:Drivers/STM32L4xx_HAL_Driver/Src/stm32l4xx_hal_dac.c **** 
 1130              		.loc 1 1276 0
 1131 009e 0320     		movs	r0, #3
 1132 00a0 2071     		strb	r0, [r4, #4]
1278:Drivers/STM32L4xx_HAL_Driver/Src/stm32l4xx_hal_dac.c ****         }
 1133              		.loc 1 1278 0
 1134 00a2 F8BD     		pop	{r3, r4, r5, r6, r7, pc}
 1135              	.LVL105:
 1136              	.L100:
1242:Drivers/STM32L4xx_HAL_Driver/Src/stm32l4xx_hal_dac.c **** 
 1137              		.loc 1 1242 0
 1138 00a4 FFF7FEFF 		bl	HAL_GetTick
 1139              	.LVL106:
 1140 00a8 0746     		mov	r7, r0
 1141              	.LVL107:
 1142              	.L91:
1245:Drivers/STM32L4xx_HAL_Driver/Src/stm32l4xx_hal_dac.c ****       {
 1143              		.loc 1 1245 0
 1144 00aa 2368     		ldr	r3, [r4]
 1145 00ac 5B6B     		ldr	r3, [r3, #52]
 1146 00ae 13F4004F 		tst	r3, #32768
 1147 00b2 0BD0     		beq	.L102
1248:Drivers/STM32L4xx_HAL_Driver/Src/stm32l4xx_hal_dac.c ****         {
 1148              		.loc 1 1248 0
 1149 00b4 FFF7FEFF 		bl	HAL_GetTick
 1150              	.LVL108:
 1151 00b8 C01B     		subs	r0, r0, r7
 1152 00ba 0128     		cmp	r0, #1
 1153 00bc F5D9     		bls	.L91
1251:Drivers/STM32L4xx_HAL_Driver/Src/stm32l4xx_hal_dac.c **** 
 1154              		.loc 1 1251 0
 1155 00be 2369     		ldr	r3, [r4, #16]
 1156 00c0 43F00803 		orr	r3, r3, #8
 1157 00c4 2361     		str	r3, [r4, #16]
1254:Drivers/STM32L4xx_HAL_Driver/Src/stm32l4xx_hal_dac.c **** 
 1158              		.loc 1 1254 0
 1159 00c6 0320     		movs	r0, #3
 1160 00c8 2071     		strb	r0, [r4, #4]
1256:Drivers/STM32L4xx_HAL_Driver/Src/stm32l4xx_hal_dac.c ****         }
 1161              		.loc 1 1256 0
 1162 00ca F8BD     		pop	{r3, r4, r5, r6, r7, pc}
 1163              	.LVL109:
 1164              	.L102:
1259:Drivers/STM32L4xx_HAL_Driver/Src/stm32l4xx_hal_dac.c ****       hdac->Instance->SHSR1 = sConfig->DAC_SampleAndHoldConfig.DAC_SampleTime;
 1165              		.loc 1 1259 0
ARM GAS  /tmp/ccnfAKrW.s 			page 53


 1166 00cc 0120     		movs	r0, #1
 1167 00ce FFF7FEFF 		bl	HAL_Delay
 1168              	.LVL110:
1260:Drivers/STM32L4xx_HAL_Driver/Src/stm32l4xx_hal_dac.c ****     }
 1169              		.loc 1 1260 0
 1170 00d2 2368     		ldr	r3, [r4]
 1171 00d4 AA69     		ldr	r2, [r5, #24]
 1172 00d6 1A64     		str	r2, [r3, #64]
 1173 00d8 05E0     		b	.L93
 1174              	.LVL111:
 1175              	.L101:
1281:Drivers/STM32L4xx_HAL_Driver/Src/stm32l4xx_hal_dac.c ****       hdac->Instance->SHSR2 = sConfig->DAC_SampleAndHoldConfig.DAC_SampleTime;
 1176              		.loc 1 1281 0
 1177 00da 0120     		movs	r0, #1
 1178 00dc FFF7FEFF 		bl	HAL_Delay
 1179              	.LVL112:
1282:Drivers/STM32L4xx_HAL_Driver/Src/stm32l4xx_hal_dac.c ****     }
 1180              		.loc 1 1282 0
 1181 00e0 2368     		ldr	r3, [r4]
 1182 00e2 AA69     		ldr	r2, [r5, #24]
 1183 00e4 5A64     		str	r2, [r3, #68]
 1184              	.LVL113:
 1185              	.L93:
1287:Drivers/STM32L4xx_HAL_Driver/Src/stm32l4xx_hal_dac.c ****     /* RefreshTime */
 1186              		.loc 1 1287 0
 1187 00e6 2068     		ldr	r0, [r4]
 1188 00e8 836C     		ldr	r3, [r0, #72]
 1189 00ea 06F01002 		and	r2, r6, #16
 1190 00ee 40F2FF31 		movw	r1, #1023
 1191 00f2 9140     		lsls	r1, r1, r2
 1192 00f4 23EA0103 		bic	r3, r3, r1
 1193 00f8 E969     		ldr	r1, [r5, #28]
 1194 00fa 9140     		lsls	r1, r1, r2
 1195 00fc 0B43     		orrs	r3, r3, r1
 1196 00fe 8364     		str	r3, [r0, #72]
1289:Drivers/STM32L4xx_HAL_Driver/Src/stm32l4xx_hal_dac.c ****   }
 1197              		.loc 1 1289 0
 1198 0100 2068     		ldr	r0, [r4]
 1199 0102 C36C     		ldr	r3, [r0, #76]
 1200 0104 FF21     		movs	r1, #255
 1201 0106 9140     		lsls	r1, r1, r2
 1202 0108 23EA0103 		bic	r3, r3, r1
 1203 010c 296A     		ldr	r1, [r5, #32]
 1204 010e 01FA02F2 		lsl	r2, r1, r2
 1205 0112 1343     		orrs	r3, r3, r2
 1206 0114 C364     		str	r3, [r0, #76]
 1207 0116 82E7     		b	.L89
 1208              	.L99:
1296:Drivers/STM32L4xx_HAL_Driver/Src/stm32l4xx_hal_dac.c ****   /* Clear trimming value */
 1209              		.loc 1 1296 0
 1210 0118 2068     		ldr	r0, [r4]
 1211 011a 836B     		ldr	r3, [r0, #56]
 1212              	.LVL114:
1298:Drivers/STM32L4xx_HAL_Driver/Src/stm32l4xx_hal_dac.c ****   /* Configure for the selected trimming offset */
 1213              		.loc 1 1298 0
 1214 011c 06F01007 		and	r7, r6, #16
 1215 0120 1F21     		movs	r1, #31
ARM GAS  /tmp/ccnfAKrW.s 			page 54


 1216 0122 B940     		lsls	r1, r1, r7
 1217 0124 23EA0103 		bic	r3, r3, r1
 1218              	.LVL115:
1300:Drivers/STM32L4xx_HAL_Driver/Src/stm32l4xx_hal_dac.c ****   /* Calculate CCR register value depending on DAC_Channel */
 1219              		.loc 1 1300 0
 1220 0128 6A69     		ldr	r2, [r5, #20]
 1221              	.LVL116:
1302:Drivers/STM32L4xx_HAL_Driver/Src/stm32l4xx_hal_dac.c ****   /* Write to DAC CCR */
 1222              		.loc 1 1302 0
 1223 012a BA40     		lsls	r2, r2, r7
 1224              	.LVL117:
 1225 012c 1343     		orrs	r3, r3, r2
 1226              	.LVL118:
1304:Drivers/STM32L4xx_HAL_Driver/Src/stm32l4xx_hal_dac.c ****   }
 1227              		.loc 1 1304 0
 1228 012e 8363     		str	r3, [r0, #56]
 1229              	.LVL119:
 1230 0130 78E7     		b	.L95
 1231              	.LVL120:
 1232              	.L96:
1230:Drivers/STM32L4xx_HAL_Driver/Src/stm32l4xx_hal_dac.c **** 
 1233              		.loc 1 1230 0
 1234 0132 0220     		movs	r0, #2
 1235              	.LVL121:
1374:Drivers/STM32L4xx_HAL_Driver/Src/stm32l4xx_hal_dac.c **** 
 1236              		.loc 1 1374 0
 1237 0134 F8BD     		pop	{r3, r4, r5, r6, r7, pc}
 1238              		.cfi_endproc
 1239              	.LFE145:
 1241              		.section	.text.HAL_DAC_GetState,"ax",%progbits
 1242              		.align	1
 1243              		.global	HAL_DAC_GetState
 1244              		.syntax unified
 1245              		.thumb
 1246              		.thumb_func
 1247              		.fpu fpv4-sp-d16
 1249              	HAL_DAC_GetState:
 1250              	.LFB146:
1403:Drivers/STM32L4xx_HAL_Driver/Src/stm32l4xx_hal_dac.c ****   /* Return DAC handle state */
 1251              		.loc 1 1403 0
 1252              		.cfi_startproc
 1253              		@ args = 0, pretend = 0, frame = 0
 1254              		@ frame_needed = 0, uses_anonymous_args = 0
 1255              		@ link register save eliminated.
 1256              	.LVL122:
1405:Drivers/STM32L4xx_HAL_Driver/Src/stm32l4xx_hal_dac.c **** }
 1257              		.loc 1 1405 0
 1258 0000 0079     		ldrb	r0, [r0, #4]	@ zero_extendqisi2
 1259              	.LVL123:
1406:Drivers/STM32L4xx_HAL_Driver/Src/stm32l4xx_hal_dac.c **** 
 1260              		.loc 1 1406 0
 1261 0002 7047     		bx	lr
 1262              		.cfi_endproc
 1263              	.LFE146:
 1265              		.section	.text.HAL_DAC_GetError,"ax",%progbits
 1266              		.align	1
 1267              		.global	HAL_DAC_GetError
ARM GAS  /tmp/ccnfAKrW.s 			page 55


 1268              		.syntax unified
 1269              		.thumb
 1270              		.thumb_func
 1271              		.fpu fpv4-sp-d16
 1273              	HAL_DAC_GetError:
 1274              	.LFB147:
1416:Drivers/STM32L4xx_HAL_Driver/Src/stm32l4xx_hal_dac.c ****   return hdac->ErrorCode;
 1275              		.loc 1 1416 0
 1276              		.cfi_startproc
 1277              		@ args = 0, pretend = 0, frame = 0
 1278              		@ frame_needed = 0, uses_anonymous_args = 0
 1279              		@ link register save eliminated.
 1280              	.LVL124:
1417:Drivers/STM32L4xx_HAL_Driver/Src/stm32l4xx_hal_dac.c **** }
 1281              		.loc 1 1417 0
 1282 0000 0069     		ldr	r0, [r0, #16]
 1283              	.LVL125:
1418:Drivers/STM32L4xx_HAL_Driver/Src/stm32l4xx_hal_dac.c **** 
 1284              		.loc 1 1418 0
 1285 0002 7047     		bx	lr
 1286              		.cfi_endproc
 1287              	.LFE147:
 1289              		.text
 1290              	.Letext0:
 1291              		.file 2 "/usr/include/newlib/machine/_default_types.h"
 1292              		.file 3 "/usr/include/newlib/sys/_stdint.h"
 1293              		.file 4 "Drivers/CMSIS/Include/core_cm4.h"
 1294              		.file 5 "Drivers/CMSIS/Device/ST/STM32L4xx/Include/system_stm32l4xx.h"
 1295              		.file 6 "Drivers/CMSIS/Device/ST/STM32L4xx/Include/stm32l475xx.h"
 1296              		.file 7 "Drivers/STM32L4xx_HAL_Driver/Inc/stm32l4xx_hal_def.h"
 1297              		.file 8 "Drivers/STM32L4xx_HAL_Driver/Inc/stm32l4xx_hal_dma.h"
 1298              		.file 9 "Drivers/STM32L4xx_HAL_Driver/Inc/stm32l4xx_hal_dac.h"
 1299              		.file 10 "Drivers/STM32L4xx_HAL_Driver/Inc/stm32l4xx_hal_flash.h"
 1300              		.file 11 "Drivers/STM32L4xx_HAL_Driver/Inc/stm32l4xx_hal.h"
 1301              		.file 12 "Drivers/STM32L4xx_HAL_Driver/Inc/stm32l4xx_hal_dac_ex.h"
ARM GAS  /tmp/ccnfAKrW.s 			page 56

