ARM GAS  /tmp/ccap8I6O.s 			page 1


   1              		.cpu cortex-m4
   2              		.eabi_attribute 27, 1
   3              		.eabi_attribute 28, 1
   4              		.eabi_attribute 20, 1
   5              		.eabi_attribute 21, 1
   6              		.eabi_attribute 23, 3
   7              		.eabi_attribute 24, 1
   8              		.eabi_attribute 25, 1
   9              		.eabi_attribute 26, 1
  10              		.eabi_attribute 30, 2
  11              		.eabi_attribute 34, 1
  12              		.eabi_attribute 18, 4
  13              		.file	"stm32l4xx_hal_rcc.c"
  14              		.text
  15              	.Ltext0:
  16              		.cfi_sections	.debug_frame
  17              		.section	.text.HAL_RCC_DeInit,"ax",%progbits
  18              		.align	1
  19              		.p2align 2,,3
  20              		.global	HAL_RCC_DeInit
  21              		.syntax unified
  22              		.thumb
  23              		.thumb_func
  24              		.fpu fpv4-sp-d16
  26              	HAL_RCC_DeInit:
  27              	.LFB130:
  28              		.file 1 "Drivers/STM32L4xx_HAL_Driver/Src/stm32l4xx_hal_rcc.c"
   1:Drivers/STM32L4xx_HAL_Driver/Src/stm32l4xx_hal_rcc.c **** /**
   2:Drivers/STM32L4xx_HAL_Driver/Src/stm32l4xx_hal_rcc.c ****   ******************************************************************************
   3:Drivers/STM32L4xx_HAL_Driver/Src/stm32l4xx_hal_rcc.c ****   * @file    stm32l4xx_hal_rcc.c
   4:Drivers/STM32L4xx_HAL_Driver/Src/stm32l4xx_hal_rcc.c ****   * @author  MCD Application Team
   5:Drivers/STM32L4xx_HAL_Driver/Src/stm32l4xx_hal_rcc.c ****   * @brief   RCC HAL module driver.
   6:Drivers/STM32L4xx_HAL_Driver/Src/stm32l4xx_hal_rcc.c ****   *          This file provides firmware functions to manage the following
   7:Drivers/STM32L4xx_HAL_Driver/Src/stm32l4xx_hal_rcc.c ****   *          functionalities of the Reset and Clock Control (RCC) peripheral:
   8:Drivers/STM32L4xx_HAL_Driver/Src/stm32l4xx_hal_rcc.c ****   *           + Initialization and de-initialization functions
   9:Drivers/STM32L4xx_HAL_Driver/Src/stm32l4xx_hal_rcc.c ****   *           + Peripheral Control functions
  10:Drivers/STM32L4xx_HAL_Driver/Src/stm32l4xx_hal_rcc.c ****   *
  11:Drivers/STM32L4xx_HAL_Driver/Src/stm32l4xx_hal_rcc.c ****   @verbatim
  12:Drivers/STM32L4xx_HAL_Driver/Src/stm32l4xx_hal_rcc.c ****   ==============================================================================
  13:Drivers/STM32L4xx_HAL_Driver/Src/stm32l4xx_hal_rcc.c ****                       ##### RCC specific features #####
  14:Drivers/STM32L4xx_HAL_Driver/Src/stm32l4xx_hal_rcc.c ****   ==============================================================================
  15:Drivers/STM32L4xx_HAL_Driver/Src/stm32l4xx_hal_rcc.c ****     [..]
  16:Drivers/STM32L4xx_HAL_Driver/Src/stm32l4xx_hal_rcc.c ****       After reset the device is running from Multiple Speed Internal oscillator
  17:Drivers/STM32L4xx_HAL_Driver/Src/stm32l4xx_hal_rcc.c ****       (4 MHz) with Flash 0 wait state. Flash prefetch buffer, D-Cache
  18:Drivers/STM32L4xx_HAL_Driver/Src/stm32l4xx_hal_rcc.c ****       and I-Cache are disabled, and all peripherals are off except internal
  19:Drivers/STM32L4xx_HAL_Driver/Src/stm32l4xx_hal_rcc.c ****       SRAM, Flash and JTAG.
  20:Drivers/STM32L4xx_HAL_Driver/Src/stm32l4xx_hal_rcc.c **** 
  21:Drivers/STM32L4xx_HAL_Driver/Src/stm32l4xx_hal_rcc.c ****       (+) There is no prescaler on High speed (AHBs) and Low speed (APBs) busses:
  22:Drivers/STM32L4xx_HAL_Driver/Src/stm32l4xx_hal_rcc.c ****           all peripherals mapped on these busses are running at MSI speed.
  23:Drivers/STM32L4xx_HAL_Driver/Src/stm32l4xx_hal_rcc.c ****       (+) The clock for all peripherals is switched off, except the SRAM and FLASH.
  24:Drivers/STM32L4xx_HAL_Driver/Src/stm32l4xx_hal_rcc.c ****       (+) All GPIOs are in analog mode, except the JTAG pins which
  25:Drivers/STM32L4xx_HAL_Driver/Src/stm32l4xx_hal_rcc.c ****           are assigned to be used for debug purpose.
  26:Drivers/STM32L4xx_HAL_Driver/Src/stm32l4xx_hal_rcc.c **** 
  27:Drivers/STM32L4xx_HAL_Driver/Src/stm32l4xx_hal_rcc.c ****     [..]
  28:Drivers/STM32L4xx_HAL_Driver/Src/stm32l4xx_hal_rcc.c ****       Once the device started from reset, the user application has to:
  29:Drivers/STM32L4xx_HAL_Driver/Src/stm32l4xx_hal_rcc.c ****       (+) Configure the clock source to be used to drive the System clock
  30:Drivers/STM32L4xx_HAL_Driver/Src/stm32l4xx_hal_rcc.c ****           (if the application needs higher frequency/performance)
ARM GAS  /tmp/ccap8I6O.s 			page 2


  31:Drivers/STM32L4xx_HAL_Driver/Src/stm32l4xx_hal_rcc.c ****       (+) Configure the System clock frequency and Flash settings
  32:Drivers/STM32L4xx_HAL_Driver/Src/stm32l4xx_hal_rcc.c ****       (+) Configure the AHB and APB busses prescalers
  33:Drivers/STM32L4xx_HAL_Driver/Src/stm32l4xx_hal_rcc.c ****       (+) Enable the clock for the peripheral(s) to be used
  34:Drivers/STM32L4xx_HAL_Driver/Src/stm32l4xx_hal_rcc.c ****       (+) Configure the clock source(s) for peripherals which clocks are not
  35:Drivers/STM32L4xx_HAL_Driver/Src/stm32l4xx_hal_rcc.c ****           derived from the System clock (SAIx, RTC, ADC, USB OTG FS/SDMMC1/RNG)
  36:Drivers/STM32L4xx_HAL_Driver/Src/stm32l4xx_hal_rcc.c **** 
  37:Drivers/STM32L4xx_HAL_Driver/Src/stm32l4xx_hal_rcc.c ****   @endverbatim
  38:Drivers/STM32L4xx_HAL_Driver/Src/stm32l4xx_hal_rcc.c ****   ******************************************************************************
  39:Drivers/STM32L4xx_HAL_Driver/Src/stm32l4xx_hal_rcc.c ****   * @attention
  40:Drivers/STM32L4xx_HAL_Driver/Src/stm32l4xx_hal_rcc.c ****   *
  41:Drivers/STM32L4xx_HAL_Driver/Src/stm32l4xx_hal_rcc.c ****   * <h2><center>&copy; Copyright (c) 2017 STMicroelectronics.
  42:Drivers/STM32L4xx_HAL_Driver/Src/stm32l4xx_hal_rcc.c ****   * All rights reserved.</center></h2>
  43:Drivers/STM32L4xx_HAL_Driver/Src/stm32l4xx_hal_rcc.c ****   *
  44:Drivers/STM32L4xx_HAL_Driver/Src/stm32l4xx_hal_rcc.c ****   * This software component is licensed by ST under BSD 3-Clause license,
  45:Drivers/STM32L4xx_HAL_Driver/Src/stm32l4xx_hal_rcc.c ****   * the "License"; You may not use this file except in compliance with the
  46:Drivers/STM32L4xx_HAL_Driver/Src/stm32l4xx_hal_rcc.c ****   * License. You may obtain a copy of the License at:
  47:Drivers/STM32L4xx_HAL_Driver/Src/stm32l4xx_hal_rcc.c ****   *                        opensource.org/licenses/BSD-3-Clause
  48:Drivers/STM32L4xx_HAL_Driver/Src/stm32l4xx_hal_rcc.c ****   *
  49:Drivers/STM32L4xx_HAL_Driver/Src/stm32l4xx_hal_rcc.c ****   ******************************************************************************
  50:Drivers/STM32L4xx_HAL_Driver/Src/stm32l4xx_hal_rcc.c ****   */
  51:Drivers/STM32L4xx_HAL_Driver/Src/stm32l4xx_hal_rcc.c **** 
  52:Drivers/STM32L4xx_HAL_Driver/Src/stm32l4xx_hal_rcc.c **** /* Includes ------------------------------------------------------------------*/
  53:Drivers/STM32L4xx_HAL_Driver/Src/stm32l4xx_hal_rcc.c **** #include "stm32l4xx_hal.h"
  54:Drivers/STM32L4xx_HAL_Driver/Src/stm32l4xx_hal_rcc.c **** 
  55:Drivers/STM32L4xx_HAL_Driver/Src/stm32l4xx_hal_rcc.c **** /** @addtogroup STM32L4xx_HAL_Driver
  56:Drivers/STM32L4xx_HAL_Driver/Src/stm32l4xx_hal_rcc.c ****   * @{
  57:Drivers/STM32L4xx_HAL_Driver/Src/stm32l4xx_hal_rcc.c ****   */
  58:Drivers/STM32L4xx_HAL_Driver/Src/stm32l4xx_hal_rcc.c **** 
  59:Drivers/STM32L4xx_HAL_Driver/Src/stm32l4xx_hal_rcc.c **** /** @defgroup RCC RCC
  60:Drivers/STM32L4xx_HAL_Driver/Src/stm32l4xx_hal_rcc.c ****   * @brief RCC HAL module driver
  61:Drivers/STM32L4xx_HAL_Driver/Src/stm32l4xx_hal_rcc.c ****   * @{
  62:Drivers/STM32L4xx_HAL_Driver/Src/stm32l4xx_hal_rcc.c ****   */
  63:Drivers/STM32L4xx_HAL_Driver/Src/stm32l4xx_hal_rcc.c **** 
  64:Drivers/STM32L4xx_HAL_Driver/Src/stm32l4xx_hal_rcc.c **** #ifdef HAL_RCC_MODULE_ENABLED
  65:Drivers/STM32L4xx_HAL_Driver/Src/stm32l4xx_hal_rcc.c **** 
  66:Drivers/STM32L4xx_HAL_Driver/Src/stm32l4xx_hal_rcc.c **** /* Private typedef -----------------------------------------------------------*/
  67:Drivers/STM32L4xx_HAL_Driver/Src/stm32l4xx_hal_rcc.c **** /* Private define ------------------------------------------------------------*/
  68:Drivers/STM32L4xx_HAL_Driver/Src/stm32l4xx_hal_rcc.c **** /** @defgroup RCC_Private_Constants RCC Private Constants
  69:Drivers/STM32L4xx_HAL_Driver/Src/stm32l4xx_hal_rcc.c ****  * @{
  70:Drivers/STM32L4xx_HAL_Driver/Src/stm32l4xx_hal_rcc.c ****  */
  71:Drivers/STM32L4xx_HAL_Driver/Src/stm32l4xx_hal_rcc.c **** #define HSE_TIMEOUT_VALUE          HSE_STARTUP_TIMEOUT
  72:Drivers/STM32L4xx_HAL_Driver/Src/stm32l4xx_hal_rcc.c **** #define HSI_TIMEOUT_VALUE          2U    /* 2 ms (minimum Tick + 1) */
  73:Drivers/STM32L4xx_HAL_Driver/Src/stm32l4xx_hal_rcc.c **** #define MSI_TIMEOUT_VALUE          2U    /* 2 ms (minimum Tick + 1) */
  74:Drivers/STM32L4xx_HAL_Driver/Src/stm32l4xx_hal_rcc.c **** #if defined(RCC_CSR_LSIPREDIV)
  75:Drivers/STM32L4xx_HAL_Driver/Src/stm32l4xx_hal_rcc.c **** #define LSI_TIMEOUT_VALUE          17U   /* 17 ms (16 ms starting time + 1) */
  76:Drivers/STM32L4xx_HAL_Driver/Src/stm32l4xx_hal_rcc.c **** #else
  77:Drivers/STM32L4xx_HAL_Driver/Src/stm32l4xx_hal_rcc.c **** #define LSI_TIMEOUT_VALUE          2U    /* 2 ms (minimum Tick + 1) */
  78:Drivers/STM32L4xx_HAL_Driver/Src/stm32l4xx_hal_rcc.c **** #endif /* RCC_CSR_LSIPREDIV */
  79:Drivers/STM32L4xx_HAL_Driver/Src/stm32l4xx_hal_rcc.c **** #define HSI48_TIMEOUT_VALUE        2U    /* 2 ms (minimum Tick + 1) */
  80:Drivers/STM32L4xx_HAL_Driver/Src/stm32l4xx_hal_rcc.c **** #define PLL_TIMEOUT_VALUE          2U    /* 2 ms (minimum Tick + 1) */
  81:Drivers/STM32L4xx_HAL_Driver/Src/stm32l4xx_hal_rcc.c **** #define CLOCKSWITCH_TIMEOUT_VALUE  5000U /* 5 s    */
  82:Drivers/STM32L4xx_HAL_Driver/Src/stm32l4xx_hal_rcc.c **** /**
  83:Drivers/STM32L4xx_HAL_Driver/Src/stm32l4xx_hal_rcc.c ****   * @}
  84:Drivers/STM32L4xx_HAL_Driver/Src/stm32l4xx_hal_rcc.c ****   */
  85:Drivers/STM32L4xx_HAL_Driver/Src/stm32l4xx_hal_rcc.c **** 
  86:Drivers/STM32L4xx_HAL_Driver/Src/stm32l4xx_hal_rcc.c **** /* Private macro -------------------------------------------------------------*/
  87:Drivers/STM32L4xx_HAL_Driver/Src/stm32l4xx_hal_rcc.c **** /** @defgroup RCC_Private_Macros RCC Private Macros
ARM GAS  /tmp/ccap8I6O.s 			page 3


  88:Drivers/STM32L4xx_HAL_Driver/Src/stm32l4xx_hal_rcc.c ****   * @{
  89:Drivers/STM32L4xx_HAL_Driver/Src/stm32l4xx_hal_rcc.c ****   */
  90:Drivers/STM32L4xx_HAL_Driver/Src/stm32l4xx_hal_rcc.c **** #define __MCO1_CLK_ENABLE()   __HAL_RCC_GPIOA_CLK_ENABLE()
  91:Drivers/STM32L4xx_HAL_Driver/Src/stm32l4xx_hal_rcc.c **** #define MCO1_GPIO_PORT        GPIOA
  92:Drivers/STM32L4xx_HAL_Driver/Src/stm32l4xx_hal_rcc.c **** #define MCO1_PIN              GPIO_PIN_8
  93:Drivers/STM32L4xx_HAL_Driver/Src/stm32l4xx_hal_rcc.c **** 
  94:Drivers/STM32L4xx_HAL_Driver/Src/stm32l4xx_hal_rcc.c **** #define RCC_PLL_OSCSOURCE_CONFIG(__HAL_RCC_PLLSOURCE__) \
  95:Drivers/STM32L4xx_HAL_Driver/Src/stm32l4xx_hal_rcc.c ****             (MODIFY_REG(RCC->PLLCFGR, RCC_PLLCFGR_PLLSRC, (__HAL_RCC_PLLSOURCE__)))
  96:Drivers/STM32L4xx_HAL_Driver/Src/stm32l4xx_hal_rcc.c **** /**
  97:Drivers/STM32L4xx_HAL_Driver/Src/stm32l4xx_hal_rcc.c ****   * @}
  98:Drivers/STM32L4xx_HAL_Driver/Src/stm32l4xx_hal_rcc.c ****   */
  99:Drivers/STM32L4xx_HAL_Driver/Src/stm32l4xx_hal_rcc.c **** 
 100:Drivers/STM32L4xx_HAL_Driver/Src/stm32l4xx_hal_rcc.c **** /* Private variables ---------------------------------------------------------*/
 101:Drivers/STM32L4xx_HAL_Driver/Src/stm32l4xx_hal_rcc.c **** 
 102:Drivers/STM32L4xx_HAL_Driver/Src/stm32l4xx_hal_rcc.c **** /* Private function prototypes -----------------------------------------------*/
 103:Drivers/STM32L4xx_HAL_Driver/Src/stm32l4xx_hal_rcc.c **** /** @defgroup RCC_Private_Functions RCC Private Functions
 104:Drivers/STM32L4xx_HAL_Driver/Src/stm32l4xx_hal_rcc.c ****   * @{
 105:Drivers/STM32L4xx_HAL_Driver/Src/stm32l4xx_hal_rcc.c ****   */
 106:Drivers/STM32L4xx_HAL_Driver/Src/stm32l4xx_hal_rcc.c **** static HAL_StatusTypeDef RCC_SetFlashLatencyFromMSIRange(uint32_t msirange);
 107:Drivers/STM32L4xx_HAL_Driver/Src/stm32l4xx_hal_rcc.c **** #if defined(STM32L4R5xx) || defined(STM32L4R7xx) || defined(STM32L4R9xx) || defined(STM32L4S5xx) ||
 108:Drivers/STM32L4xx_HAL_Driver/Src/stm32l4xx_hal_rcc.c **** static uint32_t          RCC_GetSysClockFreqFromPLLSource(void);
 109:Drivers/STM32L4xx_HAL_Driver/Src/stm32l4xx_hal_rcc.c **** #endif
 110:Drivers/STM32L4xx_HAL_Driver/Src/stm32l4xx_hal_rcc.c **** /**
 111:Drivers/STM32L4xx_HAL_Driver/Src/stm32l4xx_hal_rcc.c ****   * @}
 112:Drivers/STM32L4xx_HAL_Driver/Src/stm32l4xx_hal_rcc.c ****   */
 113:Drivers/STM32L4xx_HAL_Driver/Src/stm32l4xx_hal_rcc.c **** 
 114:Drivers/STM32L4xx_HAL_Driver/Src/stm32l4xx_hal_rcc.c **** /* Exported functions --------------------------------------------------------*/
 115:Drivers/STM32L4xx_HAL_Driver/Src/stm32l4xx_hal_rcc.c **** 
 116:Drivers/STM32L4xx_HAL_Driver/Src/stm32l4xx_hal_rcc.c **** /** @defgroup RCC_Exported_Functions RCC Exported Functions
 117:Drivers/STM32L4xx_HAL_Driver/Src/stm32l4xx_hal_rcc.c ****   * @{
 118:Drivers/STM32L4xx_HAL_Driver/Src/stm32l4xx_hal_rcc.c ****   */
 119:Drivers/STM32L4xx_HAL_Driver/Src/stm32l4xx_hal_rcc.c **** 
 120:Drivers/STM32L4xx_HAL_Driver/Src/stm32l4xx_hal_rcc.c **** /** @defgroup RCC_Exported_Functions_Group1 Initialization and de-initialization functions
 121:Drivers/STM32L4xx_HAL_Driver/Src/stm32l4xx_hal_rcc.c ****   *  @brief    Initialization and Configuration functions
 122:Drivers/STM32L4xx_HAL_Driver/Src/stm32l4xx_hal_rcc.c ****   *
 123:Drivers/STM32L4xx_HAL_Driver/Src/stm32l4xx_hal_rcc.c ****   @verbatim
 124:Drivers/STM32L4xx_HAL_Driver/Src/stm32l4xx_hal_rcc.c ****  ===============================================================================
 125:Drivers/STM32L4xx_HAL_Driver/Src/stm32l4xx_hal_rcc.c ****            ##### Initialization and de-initialization functions #####
 126:Drivers/STM32L4xx_HAL_Driver/Src/stm32l4xx_hal_rcc.c ****  ===============================================================================
 127:Drivers/STM32L4xx_HAL_Driver/Src/stm32l4xx_hal_rcc.c ****     [..]
 128:Drivers/STM32L4xx_HAL_Driver/Src/stm32l4xx_hal_rcc.c ****       This section provides functions allowing to configure the internal and external oscillators
 129:Drivers/STM32L4xx_HAL_Driver/Src/stm32l4xx_hal_rcc.c ****       (HSE, HSI, LSE, MSI, LSI, PLL, CSS and MCO) and the System busses clocks (SYSCLK, AHB, APB1
 130:Drivers/STM32L4xx_HAL_Driver/Src/stm32l4xx_hal_rcc.c ****        and APB2).
 131:Drivers/STM32L4xx_HAL_Driver/Src/stm32l4xx_hal_rcc.c **** 
 132:Drivers/STM32L4xx_HAL_Driver/Src/stm32l4xx_hal_rcc.c ****     [..] Internal/external clock and PLL configuration
 133:Drivers/STM32L4xx_HAL_Driver/Src/stm32l4xx_hal_rcc.c ****          (+) HSI (high-speed internal): 16 MHz factory-trimmed RC used directly or through
 134:Drivers/STM32L4xx_HAL_Driver/Src/stm32l4xx_hal_rcc.c ****              the PLL as System clock source.
 135:Drivers/STM32L4xx_HAL_Driver/Src/stm32l4xx_hal_rcc.c **** 
 136:Drivers/STM32L4xx_HAL_Driver/Src/stm32l4xx_hal_rcc.c ****          (+) MSI (Mutiple Speed Internal): Its frequency is software trimmable from 100KHZ to 48MHZ
 137:Drivers/STM32L4xx_HAL_Driver/Src/stm32l4xx_hal_rcc.c ****              It can be used to generate the clock for the USB OTG FS (48 MHz).
 138:Drivers/STM32L4xx_HAL_Driver/Src/stm32l4xx_hal_rcc.c ****              The number of flash wait states is automatically adjusted when MSI range is updated wi
 139:Drivers/STM32L4xx_HAL_Driver/Src/stm32l4xx_hal_rcc.c ****              HAL_RCC_OscConfig() and the MSI is used as System clock source.
 140:Drivers/STM32L4xx_HAL_Driver/Src/stm32l4xx_hal_rcc.c **** 
 141:Drivers/STM32L4xx_HAL_Driver/Src/stm32l4xx_hal_rcc.c ****          (+) LSI (low-speed internal): 32 KHz low consumption RC used as IWDG and/or RTC
 142:Drivers/STM32L4xx_HAL_Driver/Src/stm32l4xx_hal_rcc.c ****              clock source.
 143:Drivers/STM32L4xx_HAL_Driver/Src/stm32l4xx_hal_rcc.c **** 
 144:Drivers/STM32L4xx_HAL_Driver/Src/stm32l4xx_hal_rcc.c ****          (+) HSE (high-speed external): 4 to 48 MHz crystal oscillator used directly or
ARM GAS  /tmp/ccap8I6O.s 			page 4


 145:Drivers/STM32L4xx_HAL_Driver/Src/stm32l4xx_hal_rcc.c ****              through the PLL as System clock source. Can be used also optionally as RTC clock sourc
 146:Drivers/STM32L4xx_HAL_Driver/Src/stm32l4xx_hal_rcc.c **** 
 147:Drivers/STM32L4xx_HAL_Driver/Src/stm32l4xx_hal_rcc.c ****          (+) LSE (low-speed external): 32.768 KHz oscillator used optionally as RTC clock source.
 148:Drivers/STM32L4xx_HAL_Driver/Src/stm32l4xx_hal_rcc.c **** 
 149:Drivers/STM32L4xx_HAL_Driver/Src/stm32l4xx_hal_rcc.c ****          (+) PLL (clocked by HSI, HSE or MSI) providing up to three independent output clocks:
 150:Drivers/STM32L4xx_HAL_Driver/Src/stm32l4xx_hal_rcc.c ****            (++) The first output is used to generate the high speed system clock (up to 80MHz).
 151:Drivers/STM32L4xx_HAL_Driver/Src/stm32l4xx_hal_rcc.c ****            (++) The second output is used to generate the clock for the USB OTG FS (48 MHz),
 152:Drivers/STM32L4xx_HAL_Driver/Src/stm32l4xx_hal_rcc.c ****                 the random analog generator (<=48 MHz) and the SDMMC1 (<= 48 MHz).
 153:Drivers/STM32L4xx_HAL_Driver/Src/stm32l4xx_hal_rcc.c ****            (++) The third output is used to generate an accurate clock to achieve
 154:Drivers/STM32L4xx_HAL_Driver/Src/stm32l4xx_hal_rcc.c ****                 high-quality audio performance on SAI interface.
 155:Drivers/STM32L4xx_HAL_Driver/Src/stm32l4xx_hal_rcc.c **** 
 156:Drivers/STM32L4xx_HAL_Driver/Src/stm32l4xx_hal_rcc.c ****          (+) PLLSAI1 (clocked by HSI, HSE or MSI) providing up to three independent output clocks:
 157:Drivers/STM32L4xx_HAL_Driver/Src/stm32l4xx_hal_rcc.c ****            (++) The first output is used to generate SAR ADC1 clock.
 158:Drivers/STM32L4xx_HAL_Driver/Src/stm32l4xx_hal_rcc.c ****            (++) The second output is used to generate the clock for the USB OTG FS (48 MHz),
 159:Drivers/STM32L4xx_HAL_Driver/Src/stm32l4xx_hal_rcc.c ****                 the random analog generator (<=48 MHz) and the SDMMC1 (<= 48 MHz).
 160:Drivers/STM32L4xx_HAL_Driver/Src/stm32l4xx_hal_rcc.c ****            (++) The Third output is used to generate an accurate clock to achieve
 161:Drivers/STM32L4xx_HAL_Driver/Src/stm32l4xx_hal_rcc.c ****                 high-quality audio performance on SAI interface.
 162:Drivers/STM32L4xx_HAL_Driver/Src/stm32l4xx_hal_rcc.c **** 
 163:Drivers/STM32L4xx_HAL_Driver/Src/stm32l4xx_hal_rcc.c ****          (+) PLLSAI2 (clocked by HSI, HSE or MSI) providing up to two independent output clocks:
 164:Drivers/STM32L4xx_HAL_Driver/Src/stm32l4xx_hal_rcc.c ****            (++) The first output is used to generate SAR ADC2 clock.
 165:Drivers/STM32L4xx_HAL_Driver/Src/stm32l4xx_hal_rcc.c ****            (++) The second  output is used to generate an accurate clock to achieve
 166:Drivers/STM32L4xx_HAL_Driver/Src/stm32l4xx_hal_rcc.c ****                 high-quality audio performance on SAI interface.
 167:Drivers/STM32L4xx_HAL_Driver/Src/stm32l4xx_hal_rcc.c **** 
 168:Drivers/STM32L4xx_HAL_Driver/Src/stm32l4xx_hal_rcc.c ****          (+) CSS (Clock security system): once enabled, if a HSE clock failure occurs
 169:Drivers/STM32L4xx_HAL_Driver/Src/stm32l4xx_hal_rcc.c ****             (HSE used directly or through PLL as System clock source), the System clock
 170:Drivers/STM32L4xx_HAL_Driver/Src/stm32l4xx_hal_rcc.c ****              is automatically switched to HSI and an interrupt is generated if enabled.
 171:Drivers/STM32L4xx_HAL_Driver/Src/stm32l4xx_hal_rcc.c ****              The interrupt is linked to the Cortex-M4 NMI (Non-Maskable Interrupt)
 172:Drivers/STM32L4xx_HAL_Driver/Src/stm32l4xx_hal_rcc.c ****              exception vector.
 173:Drivers/STM32L4xx_HAL_Driver/Src/stm32l4xx_hal_rcc.c **** 
 174:Drivers/STM32L4xx_HAL_Driver/Src/stm32l4xx_hal_rcc.c ****          (+) MCO (microcontroller clock output): used to output MSI, LSI, HSI, LSE, HSE or
 175:Drivers/STM32L4xx_HAL_Driver/Src/stm32l4xx_hal_rcc.c ****              main PLL clock (through a configurable prescaler) on PA8 pin.
 176:Drivers/STM32L4xx_HAL_Driver/Src/stm32l4xx_hal_rcc.c **** 
 177:Drivers/STM32L4xx_HAL_Driver/Src/stm32l4xx_hal_rcc.c ****     [..] System, AHB and APB busses clocks configuration
 178:Drivers/STM32L4xx_HAL_Driver/Src/stm32l4xx_hal_rcc.c ****          (+) Several clock sources can be used to drive the System clock (SYSCLK): MSI, HSI,
 179:Drivers/STM32L4xx_HAL_Driver/Src/stm32l4xx_hal_rcc.c ****              HSE and main PLL.
 180:Drivers/STM32L4xx_HAL_Driver/Src/stm32l4xx_hal_rcc.c ****              The AHB clock (HCLK) is derived from System clock through configurable
 181:Drivers/STM32L4xx_HAL_Driver/Src/stm32l4xx_hal_rcc.c ****              prescaler and used to clock the CPU, memory and peripherals mapped
 182:Drivers/STM32L4xx_HAL_Driver/Src/stm32l4xx_hal_rcc.c ****              on AHB bus (DMA, GPIO...). APB1 (PCLK1) and APB2 (PCLK2) clocks are derived
 183:Drivers/STM32L4xx_HAL_Driver/Src/stm32l4xx_hal_rcc.c ****              from AHB clock through configurable prescalers and used to clock
 184:Drivers/STM32L4xx_HAL_Driver/Src/stm32l4xx_hal_rcc.c ****              the peripherals mapped on these busses. You can use
 185:Drivers/STM32L4xx_HAL_Driver/Src/stm32l4xx_hal_rcc.c ****              "HAL_RCC_GetSysClockFreq()" function to retrieve the frequencies of these clocks.
 186:Drivers/STM32L4xx_HAL_Driver/Src/stm32l4xx_hal_rcc.c **** 
 187:Drivers/STM32L4xx_HAL_Driver/Src/stm32l4xx_hal_rcc.c ****          -@- All the peripheral clocks are derived from the System clock (SYSCLK) except:
 188:Drivers/STM32L4xx_HAL_Driver/Src/stm32l4xx_hal_rcc.c **** 
 189:Drivers/STM32L4xx_HAL_Driver/Src/stm32l4xx_hal_rcc.c ****            (+@) SAI: the SAI clock can be derived either from a specific PLL (PLLSAI1) or (PLLSAI2)
 190:Drivers/STM32L4xx_HAL_Driver/Src/stm32l4xx_hal_rcc.c ****                 from an external clock mapped on the SAI_CKIN pin.
 191:Drivers/STM32L4xx_HAL_Driver/Src/stm32l4xx_hal_rcc.c ****                 You have to use HAL_RCCEx_PeriphCLKConfig() function to configure this clock.
 192:Drivers/STM32L4xx_HAL_Driver/Src/stm32l4xx_hal_rcc.c ****            (+@) RTC: the RTC clock can be derived either from the LSI, LSE or HSE clock
 193:Drivers/STM32L4xx_HAL_Driver/Src/stm32l4xx_hal_rcc.c ****                 divided by 2 to 31.
 194:Drivers/STM32L4xx_HAL_Driver/Src/stm32l4xx_hal_rcc.c ****                 You have to use __HAL_RCC_RTC_ENABLE() and HAL_RCCEx_PeriphCLKConfig() function
 195:Drivers/STM32L4xx_HAL_Driver/Src/stm32l4xx_hal_rcc.c ****                 to configure this clock.
 196:Drivers/STM32L4xx_HAL_Driver/Src/stm32l4xx_hal_rcc.c ****            (+@) USB OTG FS, SDMMC1 and RNG: USB OTG FS requires a frequency equal to 48 MHz
 197:Drivers/STM32L4xx_HAL_Driver/Src/stm32l4xx_hal_rcc.c ****                 to work correctly, while the SDMMC1 and RNG peripherals require a frequency
 198:Drivers/STM32L4xx_HAL_Driver/Src/stm32l4xx_hal_rcc.c ****                 equal or lower than to 48 MHz. This clock is derived of the main PLL or PLLSAI1
 199:Drivers/STM32L4xx_HAL_Driver/Src/stm32l4xx_hal_rcc.c ****                 through PLLQ divider. You have to enable the peripheral clock and use
 200:Drivers/STM32L4xx_HAL_Driver/Src/stm32l4xx_hal_rcc.c ****                 HAL_RCCEx_PeriphCLKConfig() function to configure this clock.
 201:Drivers/STM32L4xx_HAL_Driver/Src/stm32l4xx_hal_rcc.c ****            (+@) IWDG clock which is always the LSI clock.
ARM GAS  /tmp/ccap8I6O.s 			page 5


 202:Drivers/STM32L4xx_HAL_Driver/Src/stm32l4xx_hal_rcc.c **** 
 203:Drivers/STM32L4xx_HAL_Driver/Src/stm32l4xx_hal_rcc.c **** 
 204:Drivers/STM32L4xx_HAL_Driver/Src/stm32l4xx_hal_rcc.c ****          (+) The maximum frequency of the SYSCLK, HCLK, PCLK1 and PCLK2 is 80 MHz.
 205:Drivers/STM32L4xx_HAL_Driver/Src/stm32l4xx_hal_rcc.c ****              The clock source frequency should be adapted depending on the device voltage range
 206:Drivers/STM32L4xx_HAL_Driver/Src/stm32l4xx_hal_rcc.c ****              as listed in the Reference Manual "Clock source frequency versus voltage scaling" chap
 207:Drivers/STM32L4xx_HAL_Driver/Src/stm32l4xx_hal_rcc.c **** 
 208:Drivers/STM32L4xx_HAL_Driver/Src/stm32l4xx_hal_rcc.c ****   @endverbatim
 209:Drivers/STM32L4xx_HAL_Driver/Src/stm32l4xx_hal_rcc.c **** 
 210:Drivers/STM32L4xx_HAL_Driver/Src/stm32l4xx_hal_rcc.c ****            Table 1. HCLK clock frequency for STM32L4Rx/STM32L4Sx devices
 211:Drivers/STM32L4xx_HAL_Driver/Src/stm32l4xx_hal_rcc.c ****            +--------------------------------------------------------+
 212:Drivers/STM32L4xx_HAL_Driver/Src/stm32l4xx_hal_rcc.c ****            | Latency         |     HCLK clock frequency (MHz)       |
 213:Drivers/STM32L4xx_HAL_Driver/Src/stm32l4xx_hal_rcc.c ****            |                 |--------------------------------------|
 214:Drivers/STM32L4xx_HAL_Driver/Src/stm32l4xx_hal_rcc.c ****            |                 |  voltage range 1  | voltage range 2  |
 215:Drivers/STM32L4xx_HAL_Driver/Src/stm32l4xx_hal_rcc.c ****            |                 |       1.2 V       |     1.0 V        |
 216:Drivers/STM32L4xx_HAL_Driver/Src/stm32l4xx_hal_rcc.c ****            |-----------------|-------------------|------------------|
 217:Drivers/STM32L4xx_HAL_Driver/Src/stm32l4xx_hal_rcc.c ****            |0WS(1 CPU cycles)|   0 < HCLK <= 20  |  0 < HCLK <= 8   |
 218:Drivers/STM32L4xx_HAL_Driver/Src/stm32l4xx_hal_rcc.c ****            |-----------------|-------------------|------------------|
 219:Drivers/STM32L4xx_HAL_Driver/Src/stm32l4xx_hal_rcc.c ****            |1WS(2 CPU cycles)|  20 < HCLK <= 40  |  8 < HCLK <= 16  |
 220:Drivers/STM32L4xx_HAL_Driver/Src/stm32l4xx_hal_rcc.c ****            |-----------------|-------------------|------------------|
 221:Drivers/STM32L4xx_HAL_Driver/Src/stm32l4xx_hal_rcc.c ****            |2WS(3 CPU cycles)|  40 < HCLK <= 60  | 16 < HCLK <= 26  |
 222:Drivers/STM32L4xx_HAL_Driver/Src/stm32l4xx_hal_rcc.c ****            |-----------------|-------------------|------------------|
 223:Drivers/STM32L4xx_HAL_Driver/Src/stm32l4xx_hal_rcc.c ****            |3WS(4 CPU cycles)|  60 < HCLK <= 80  | 16 < HCLK <= 26  |
 224:Drivers/STM32L4xx_HAL_Driver/Src/stm32l4xx_hal_rcc.c ****            |-----------------|-------------------|------------------|
 225:Drivers/STM32L4xx_HAL_Driver/Src/stm32l4xx_hal_rcc.c ****            |4WS(5 CPU cycles)|  80 < HCLK <= 100 | 16 < HCLK <= 26  |
 226:Drivers/STM32L4xx_HAL_Driver/Src/stm32l4xx_hal_rcc.c ****            |-----------------|-------------------|------------------|
 227:Drivers/STM32L4xx_HAL_Driver/Src/stm32l4xx_hal_rcc.c ****            |5WS(6 CPU cycles)| 100 < HCLK <= 120 | 16 < HCLK <= 26  |
 228:Drivers/STM32L4xx_HAL_Driver/Src/stm32l4xx_hal_rcc.c ****            +--------------------------------------------------------+
 229:Drivers/STM32L4xx_HAL_Driver/Src/stm32l4xx_hal_rcc.c **** 
 230:Drivers/STM32L4xx_HAL_Driver/Src/stm32l4xx_hal_rcc.c ****            Table 2. HCLK clock frequency for other STM32L4 devices
 231:Drivers/STM32L4xx_HAL_Driver/Src/stm32l4xx_hal_rcc.c ****            +-------------------------------------------------------+
 232:Drivers/STM32L4xx_HAL_Driver/Src/stm32l4xx_hal_rcc.c ****            | Latency         |    HCLK clock frequency (MHz)       |
 233:Drivers/STM32L4xx_HAL_Driver/Src/stm32l4xx_hal_rcc.c ****            |                 |-------------------------------------|
 234:Drivers/STM32L4xx_HAL_Driver/Src/stm32l4xx_hal_rcc.c ****            |                 | voltage range 1  | voltage range 2  |
 235:Drivers/STM32L4xx_HAL_Driver/Src/stm32l4xx_hal_rcc.c ****            |                 |      1.2 V       |     1.0 V        |
 236:Drivers/STM32L4xx_HAL_Driver/Src/stm32l4xx_hal_rcc.c ****            |-----------------|------------------|------------------|
 237:Drivers/STM32L4xx_HAL_Driver/Src/stm32l4xx_hal_rcc.c ****            |0WS(1 CPU cycles)|  0 < HCLK <= 16  |  0 < HCLK <= 6   |
 238:Drivers/STM32L4xx_HAL_Driver/Src/stm32l4xx_hal_rcc.c ****            |-----------------|------------------|------------------|
 239:Drivers/STM32L4xx_HAL_Driver/Src/stm32l4xx_hal_rcc.c ****            |1WS(2 CPU cycles)| 16 < HCLK <= 32  |  6 < HCLK <= 12  |
 240:Drivers/STM32L4xx_HAL_Driver/Src/stm32l4xx_hal_rcc.c ****            |-----------------|------------------|------------------|
 241:Drivers/STM32L4xx_HAL_Driver/Src/stm32l4xx_hal_rcc.c ****            |2WS(3 CPU cycles)| 32 < HCLK <= 48  | 12 < HCLK <= 18  |
 242:Drivers/STM32L4xx_HAL_Driver/Src/stm32l4xx_hal_rcc.c ****            |-----------------|------------------|------------------|
 243:Drivers/STM32L4xx_HAL_Driver/Src/stm32l4xx_hal_rcc.c ****            |3WS(4 CPU cycles)| 48 < HCLK <= 64  | 18 < HCLK <= 26  |
 244:Drivers/STM32L4xx_HAL_Driver/Src/stm32l4xx_hal_rcc.c ****            |-----------------|------------------|------------------|
 245:Drivers/STM32L4xx_HAL_Driver/Src/stm32l4xx_hal_rcc.c ****            |4WS(5 CPU cycles)| 64 < HCLK <= 80  | 18 < HCLK <= 26  |
 246:Drivers/STM32L4xx_HAL_Driver/Src/stm32l4xx_hal_rcc.c ****            +-------------------------------------------------------+
 247:Drivers/STM32L4xx_HAL_Driver/Src/stm32l4xx_hal_rcc.c ****   * @{
 248:Drivers/STM32L4xx_HAL_Driver/Src/stm32l4xx_hal_rcc.c ****   */
 249:Drivers/STM32L4xx_HAL_Driver/Src/stm32l4xx_hal_rcc.c **** 
 250:Drivers/STM32L4xx_HAL_Driver/Src/stm32l4xx_hal_rcc.c **** /**
 251:Drivers/STM32L4xx_HAL_Driver/Src/stm32l4xx_hal_rcc.c ****   * @brief  Reset the RCC clock configuration to the default reset state.
 252:Drivers/STM32L4xx_HAL_Driver/Src/stm32l4xx_hal_rcc.c ****   * @note   The default reset state of the clock configuration is given below:
 253:Drivers/STM32L4xx_HAL_Driver/Src/stm32l4xx_hal_rcc.c ****   *            - MSI ON and used as system clock source
 254:Drivers/STM32L4xx_HAL_Driver/Src/stm32l4xx_hal_rcc.c ****   *            - HSE, HSI, PLL, PLLSAI1 and PLLSAI2 OFF
 255:Drivers/STM32L4xx_HAL_Driver/Src/stm32l4xx_hal_rcc.c ****   *            - AHB, APB1 and APB2 prescalers set to 1.
 256:Drivers/STM32L4xx_HAL_Driver/Src/stm32l4xx_hal_rcc.c ****   *            - CSS, MCO1 OFF
 257:Drivers/STM32L4xx_HAL_Driver/Src/stm32l4xx_hal_rcc.c ****   *            - All interrupts disabled
 258:Drivers/STM32L4xx_HAL_Driver/Src/stm32l4xx_hal_rcc.c ****   *            - All interrupt and reset flags cleared
ARM GAS  /tmp/ccap8I6O.s 			page 6


 259:Drivers/STM32L4xx_HAL_Driver/Src/stm32l4xx_hal_rcc.c ****   * @note   This function does not modify the configuration of the
 260:Drivers/STM32L4xx_HAL_Driver/Src/stm32l4xx_hal_rcc.c ****   *            - Peripheral clock sources
 261:Drivers/STM32L4xx_HAL_Driver/Src/stm32l4xx_hal_rcc.c ****   *            - LSI, LSE and RTC clocks (Backup domain)
 262:Drivers/STM32L4xx_HAL_Driver/Src/stm32l4xx_hal_rcc.c ****   * @retval HAL status
 263:Drivers/STM32L4xx_HAL_Driver/Src/stm32l4xx_hal_rcc.c ****   */
 264:Drivers/STM32L4xx_HAL_Driver/Src/stm32l4xx_hal_rcc.c **** HAL_StatusTypeDef HAL_RCC_DeInit(void)
 265:Drivers/STM32L4xx_HAL_Driver/Src/stm32l4xx_hal_rcc.c **** {
  29              		.loc 1 265 0
  30              		.cfi_startproc
  31              		@ args = 0, pretend = 0, frame = 0
  32              		@ frame_needed = 0, uses_anonymous_args = 0
  33 0000 F8B5     		push	{r3, r4, r5, r6, r7, lr}
  34              	.LCFI0:
  35              		.cfi_def_cfa_offset 24
  36              		.cfi_offset 3, -24
  37              		.cfi_offset 4, -20
  38              		.cfi_offset 5, -16
  39              		.cfi_offset 6, -12
  40              		.cfi_offset 7, -8
  41              		.cfi_offset 14, -4
 266:Drivers/STM32L4xx_HAL_Driver/Src/stm32l4xx_hal_rcc.c ****   uint32_t tickstart;
 267:Drivers/STM32L4xx_HAL_Driver/Src/stm32l4xx_hal_rcc.c **** 
 268:Drivers/STM32L4xx_HAL_Driver/Src/stm32l4xx_hal_rcc.c ****   /* Reset to default System clock */
 269:Drivers/STM32L4xx_HAL_Driver/Src/stm32l4xx_hal_rcc.c ****   /* Set MSION bit */
 270:Drivers/STM32L4xx_HAL_Driver/Src/stm32l4xx_hal_rcc.c ****   SET_BIT(RCC->CR, RCC_CR_MSION);
  42              		.loc 1 270 0
  43 0002 354C     		ldr	r4, .L15
  44 0004 2368     		ldr	r3, [r4]
  45 0006 43F00103 		orr	r3, r3, #1
  46 000a 2360     		str	r3, [r4]
 271:Drivers/STM32L4xx_HAL_Driver/Src/stm32l4xx_hal_rcc.c **** 
 272:Drivers/STM32L4xx_HAL_Driver/Src/stm32l4xx_hal_rcc.c ****   /* Insure MSIRDY bit is set before writing default MSIRANGE value */
 273:Drivers/STM32L4xx_HAL_Driver/Src/stm32l4xx_hal_rcc.c ****   /* Get start tick */
 274:Drivers/STM32L4xx_HAL_Driver/Src/stm32l4xx_hal_rcc.c ****   tickstart = HAL_GetTick();
  47              		.loc 1 274 0
  48 000c FFF7FEFF 		bl	HAL_GetTick
  49              	.LVL0:
  50 0010 0546     		mov	r5, r0
  51              	.LVL1:
 275:Drivers/STM32L4xx_HAL_Driver/Src/stm32l4xx_hal_rcc.c **** 
 276:Drivers/STM32L4xx_HAL_Driver/Src/stm32l4xx_hal_rcc.c ****   /* Wait till MSI is ready */
 277:Drivers/STM32L4xx_HAL_Driver/Src/stm32l4xx_hal_rcc.c ****   while(READ_BIT(RCC->CR, RCC_CR_MSIRDY) == 0U)
  52              		.loc 1 277 0
  53 0012 04E0     		b	.L2
  54              	.LVL2:
  55              	.L4:
 278:Drivers/STM32L4xx_HAL_Driver/Src/stm32l4xx_hal_rcc.c ****   {
 279:Drivers/STM32L4xx_HAL_Driver/Src/stm32l4xx_hal_rcc.c ****     if((HAL_GetTick() - tickstart) > MSI_TIMEOUT_VALUE)
  56              		.loc 1 279 0
  57 0014 FFF7FEFF 		bl	HAL_GetTick
  58              	.LVL3:
  59 0018 401B     		subs	r0, r0, r5
  60 001a 0228     		cmp	r0, #2
  61 001c 16D8     		bhi	.L6
  62              	.L2:
 277:Drivers/STM32L4xx_HAL_Driver/Src/stm32l4xx_hal_rcc.c ****   {
  63              		.loc 1 277 0
ARM GAS  /tmp/ccap8I6O.s 			page 7


  64 001e 2368     		ldr	r3, [r4]
  65 0020 9B07     		lsls	r3, r3, #30
  66 0022 F7D5     		bpl	.L4
 280:Drivers/STM32L4xx_HAL_Driver/Src/stm32l4xx_hal_rcc.c ****     {
 281:Drivers/STM32L4xx_HAL_Driver/Src/stm32l4xx_hal_rcc.c ****       return HAL_TIMEOUT;
 282:Drivers/STM32L4xx_HAL_Driver/Src/stm32l4xx_hal_rcc.c ****     }
 283:Drivers/STM32L4xx_HAL_Driver/Src/stm32l4xx_hal_rcc.c ****   }
 284:Drivers/STM32L4xx_HAL_Driver/Src/stm32l4xx_hal_rcc.c **** 
 285:Drivers/STM32L4xx_HAL_Driver/Src/stm32l4xx_hal_rcc.c ****   /* Set MSIRANGE default value */
 286:Drivers/STM32L4xx_HAL_Driver/Src/stm32l4xx_hal_rcc.c ****   MODIFY_REG(RCC->CR, RCC_CR_MSIRANGE, RCC_MSIRANGE_6);
  67              		.loc 1 286 0
  68 0024 2368     		ldr	r3, [r4]
 287:Drivers/STM32L4xx_HAL_Driver/Src/stm32l4xx_hal_rcc.c **** 
 288:Drivers/STM32L4xx_HAL_Driver/Src/stm32l4xx_hal_rcc.c ****   /* Reset CFGR register (MSI is selected as system clock source) */
 289:Drivers/STM32L4xx_HAL_Driver/Src/stm32l4xx_hal_rcc.c ****   CLEAR_REG(RCC->CFGR);
 290:Drivers/STM32L4xx_HAL_Driver/Src/stm32l4xx_hal_rcc.c **** 
 291:Drivers/STM32L4xx_HAL_Driver/Src/stm32l4xx_hal_rcc.c ****   /* Update the SystemCoreClock global variable for MSI as system clock source */
 292:Drivers/STM32L4xx_HAL_Driver/Src/stm32l4xx_hal_rcc.c ****   SystemCoreClock = MSI_VALUE;
 293:Drivers/STM32L4xx_HAL_Driver/Src/stm32l4xx_hal_rcc.c **** 
 294:Drivers/STM32L4xx_HAL_Driver/Src/stm32l4xx_hal_rcc.c ****   /* Configure the source of time base considering new system clock settings  */
 295:Drivers/STM32L4xx_HAL_Driver/Src/stm32l4xx_hal_rcc.c ****   if(HAL_InitTick(uwTickPrio) != HAL_OK)
  69              		.loc 1 295 0
  70 0026 2D48     		ldr	r0, .L15+4
 292:Drivers/STM32L4xx_HAL_Driver/Src/stm32l4xx_hal_rcc.c **** 
  71              		.loc 1 292 0
  72 0028 2D4A     		ldr	r2, .L15+8
  73 002a 2E49     		ldr	r1, .L15+12
 286:Drivers/STM32L4xx_HAL_Driver/Src/stm32l4xx_hal_rcc.c **** 
  74              		.loc 1 286 0
  75 002c 23F0F003 		bic	r3, r3, #240
  76 0030 43F06003 		orr	r3, r3, #96
 289:Drivers/STM32L4xx_HAL_Driver/Src/stm32l4xx_hal_rcc.c **** 
  77              		.loc 1 289 0
  78 0034 0025     		movs	r5, #0
  79              	.LVL4:
 286:Drivers/STM32L4xx_HAL_Driver/Src/stm32l4xx_hal_rcc.c **** 
  80              		.loc 1 286 0
  81 0036 2360     		str	r3, [r4]
 289:Drivers/STM32L4xx_HAL_Driver/Src/stm32l4xx_hal_rcc.c **** 
  82              		.loc 1 289 0
  83 0038 A560     		str	r5, [r4, #8]
  84              		.loc 1 295 0
  85 003a 0068     		ldr	r0, [r0]
 292:Drivers/STM32L4xx_HAL_Driver/Src/stm32l4xx_hal_rcc.c **** 
  86              		.loc 1 292 0
  87 003c 1160     		str	r1, [r2]
  88              		.loc 1 295 0
  89 003e FFF7FEFF 		bl	HAL_InitTick
  90              	.LVL5:
  91 0042 0446     		mov	r4, r0
  92 0044 28B1     		cbz	r0, .L14
 296:Drivers/STM32L4xx_HAL_Driver/Src/stm32l4xx_hal_rcc.c ****   {
 297:Drivers/STM32L4xx_HAL_Driver/Src/stm32l4xx_hal_rcc.c ****     return HAL_ERROR;
  93              		.loc 1 297 0
  94 0046 0124     		movs	r4, #1
 298:Drivers/STM32L4xx_HAL_Driver/Src/stm32l4xx_hal_rcc.c ****   }
 299:Drivers/STM32L4xx_HAL_Driver/Src/stm32l4xx_hal_rcc.c **** 
ARM GAS  /tmp/ccap8I6O.s 			page 8


 300:Drivers/STM32L4xx_HAL_Driver/Src/stm32l4xx_hal_rcc.c ****   /* Insure MSI selected as system clock source */
 301:Drivers/STM32L4xx_HAL_Driver/Src/stm32l4xx_hal_rcc.c ****   /* Get start tick */
 302:Drivers/STM32L4xx_HAL_Driver/Src/stm32l4xx_hal_rcc.c ****   tickstart = HAL_GetTick();
 303:Drivers/STM32L4xx_HAL_Driver/Src/stm32l4xx_hal_rcc.c **** 
 304:Drivers/STM32L4xx_HAL_Driver/Src/stm32l4xx_hal_rcc.c ****   /* Wait till system clock source is ready */
 305:Drivers/STM32L4xx_HAL_Driver/Src/stm32l4xx_hal_rcc.c ****   while(READ_BIT(RCC->CFGR, RCC_CFGR_SWS) != RCC_CFGR_SWS_MSI)
 306:Drivers/STM32L4xx_HAL_Driver/Src/stm32l4xx_hal_rcc.c ****   {
 307:Drivers/STM32L4xx_HAL_Driver/Src/stm32l4xx_hal_rcc.c ****     if((HAL_GetTick() - tickstart) > CLOCKSWITCH_TIMEOUT_VALUE)
 308:Drivers/STM32L4xx_HAL_Driver/Src/stm32l4xx_hal_rcc.c ****     {
 309:Drivers/STM32L4xx_HAL_Driver/Src/stm32l4xx_hal_rcc.c ****       return HAL_TIMEOUT;
 310:Drivers/STM32L4xx_HAL_Driver/Src/stm32l4xx_hal_rcc.c ****     }
 311:Drivers/STM32L4xx_HAL_Driver/Src/stm32l4xx_hal_rcc.c ****   }
 312:Drivers/STM32L4xx_HAL_Driver/Src/stm32l4xx_hal_rcc.c **** 
 313:Drivers/STM32L4xx_HAL_Driver/Src/stm32l4xx_hal_rcc.c ****   /* Reset HSION, HSIKERON, HSIASFS, HSEON, HSECSSON, PLLON, PLLSAIxON bits */
 314:Drivers/STM32L4xx_HAL_Driver/Src/stm32l4xx_hal_rcc.c **** #if defined(RCC_PLLSAI2_SUPPORT)
 315:Drivers/STM32L4xx_HAL_Driver/Src/stm32l4xx_hal_rcc.c **** 
 316:Drivers/STM32L4xx_HAL_Driver/Src/stm32l4xx_hal_rcc.c ****   CLEAR_BIT(RCC->CR, RCC_CR_HSEON | RCC_CR_HSION | RCC_CR_HSIKERON| RCC_CR_HSIASFS | RCC_CR_PLLON |
 317:Drivers/STM32L4xx_HAL_Driver/Src/stm32l4xx_hal_rcc.c **** 
 318:Drivers/STM32L4xx_HAL_Driver/Src/stm32l4xx_hal_rcc.c **** #elif defined(RCC_PLLSAI1_SUPPORT)
 319:Drivers/STM32L4xx_HAL_Driver/Src/stm32l4xx_hal_rcc.c **** 
 320:Drivers/STM32L4xx_HAL_Driver/Src/stm32l4xx_hal_rcc.c ****   CLEAR_BIT(RCC->CR, RCC_CR_HSEON | RCC_CR_HSION | RCC_CR_HSIKERON| RCC_CR_HSIASFS | RCC_CR_PLLON |
 321:Drivers/STM32L4xx_HAL_Driver/Src/stm32l4xx_hal_rcc.c **** 
 322:Drivers/STM32L4xx_HAL_Driver/Src/stm32l4xx_hal_rcc.c **** #else
 323:Drivers/STM32L4xx_HAL_Driver/Src/stm32l4xx_hal_rcc.c **** 
 324:Drivers/STM32L4xx_HAL_Driver/Src/stm32l4xx_hal_rcc.c ****   CLEAR_BIT(RCC->CR, RCC_CR_HSEON | RCC_CR_HSION | RCC_CR_HSIKERON| RCC_CR_HSIASFS | RCC_CR_PLLON);
 325:Drivers/STM32L4xx_HAL_Driver/Src/stm32l4xx_hal_rcc.c **** 
 326:Drivers/STM32L4xx_HAL_Driver/Src/stm32l4xx_hal_rcc.c **** #endif /* RCC_PLLSAI2_SUPPORT */
 327:Drivers/STM32L4xx_HAL_Driver/Src/stm32l4xx_hal_rcc.c **** 
 328:Drivers/STM32L4xx_HAL_Driver/Src/stm32l4xx_hal_rcc.c ****   /* Insure PLLRDY, PLLSAI1RDY and PLLSAI2RDY (if present) are reset */
 329:Drivers/STM32L4xx_HAL_Driver/Src/stm32l4xx_hal_rcc.c ****   /* Get start tick */
 330:Drivers/STM32L4xx_HAL_Driver/Src/stm32l4xx_hal_rcc.c ****   tickstart = HAL_GetTick();
 331:Drivers/STM32L4xx_HAL_Driver/Src/stm32l4xx_hal_rcc.c **** 
 332:Drivers/STM32L4xx_HAL_Driver/Src/stm32l4xx_hal_rcc.c **** #if defined(RCC_PLLSAI2_SUPPORT)
 333:Drivers/STM32L4xx_HAL_Driver/Src/stm32l4xx_hal_rcc.c **** 
 334:Drivers/STM32L4xx_HAL_Driver/Src/stm32l4xx_hal_rcc.c ****   while(READ_BIT(RCC->CR, RCC_CR_PLLRDY | RCC_CR_PLLSAI1RDY | RCC_CR_PLLSAI2RDY) != 0U)
 335:Drivers/STM32L4xx_HAL_Driver/Src/stm32l4xx_hal_rcc.c **** 
 336:Drivers/STM32L4xx_HAL_Driver/Src/stm32l4xx_hal_rcc.c **** #elif defined(RCC_PLLSAI1_SUPPORT)
 337:Drivers/STM32L4xx_HAL_Driver/Src/stm32l4xx_hal_rcc.c **** 
 338:Drivers/STM32L4xx_HAL_Driver/Src/stm32l4xx_hal_rcc.c ****   while(READ_BIT(RCC->CR, RCC_CR_PLLRDY | RCC_CR_PLLSAI1RDY) != 0U)
 339:Drivers/STM32L4xx_HAL_Driver/Src/stm32l4xx_hal_rcc.c **** 
 340:Drivers/STM32L4xx_HAL_Driver/Src/stm32l4xx_hal_rcc.c **** #else
 341:Drivers/STM32L4xx_HAL_Driver/Src/stm32l4xx_hal_rcc.c **** 
 342:Drivers/STM32L4xx_HAL_Driver/Src/stm32l4xx_hal_rcc.c ****   while(READ_BIT(RCC->CR, RCC_CR_PLLRDY) != 0U)
 343:Drivers/STM32L4xx_HAL_Driver/Src/stm32l4xx_hal_rcc.c **** 
 344:Drivers/STM32L4xx_HAL_Driver/Src/stm32l4xx_hal_rcc.c **** #endif
 345:Drivers/STM32L4xx_HAL_Driver/Src/stm32l4xx_hal_rcc.c ****   {
 346:Drivers/STM32L4xx_HAL_Driver/Src/stm32l4xx_hal_rcc.c ****     if((HAL_GetTick() - tickstart) > PLL_TIMEOUT_VALUE)
 347:Drivers/STM32L4xx_HAL_Driver/Src/stm32l4xx_hal_rcc.c ****     {
 348:Drivers/STM32L4xx_HAL_Driver/Src/stm32l4xx_hal_rcc.c ****       return HAL_TIMEOUT;
 349:Drivers/STM32L4xx_HAL_Driver/Src/stm32l4xx_hal_rcc.c ****     }
 350:Drivers/STM32L4xx_HAL_Driver/Src/stm32l4xx_hal_rcc.c ****   }
 351:Drivers/STM32L4xx_HAL_Driver/Src/stm32l4xx_hal_rcc.c **** 
 352:Drivers/STM32L4xx_HAL_Driver/Src/stm32l4xx_hal_rcc.c ****   /* Reset PLLCFGR register */
 353:Drivers/STM32L4xx_HAL_Driver/Src/stm32l4xx_hal_rcc.c ****   CLEAR_REG(RCC->PLLCFGR);
 354:Drivers/STM32L4xx_HAL_Driver/Src/stm32l4xx_hal_rcc.c ****   SET_BIT(RCC->PLLCFGR, RCC_PLLCFGR_PLLN_4 );
 355:Drivers/STM32L4xx_HAL_Driver/Src/stm32l4xx_hal_rcc.c **** 
 356:Drivers/STM32L4xx_HAL_Driver/Src/stm32l4xx_hal_rcc.c **** #if defined(RCC_PLLSAI1_SUPPORT)
ARM GAS  /tmp/ccap8I6O.s 			page 9


 357:Drivers/STM32L4xx_HAL_Driver/Src/stm32l4xx_hal_rcc.c **** 
 358:Drivers/STM32L4xx_HAL_Driver/Src/stm32l4xx_hal_rcc.c ****   /* Reset PLLSAI1CFGR register */
 359:Drivers/STM32L4xx_HAL_Driver/Src/stm32l4xx_hal_rcc.c ****   CLEAR_REG(RCC->PLLSAI1CFGR);
 360:Drivers/STM32L4xx_HAL_Driver/Src/stm32l4xx_hal_rcc.c ****   SET_BIT(RCC->PLLSAI1CFGR,  RCC_PLLSAI1CFGR_PLLSAI1N_4 );
 361:Drivers/STM32L4xx_HAL_Driver/Src/stm32l4xx_hal_rcc.c **** 
 362:Drivers/STM32L4xx_HAL_Driver/Src/stm32l4xx_hal_rcc.c **** #endif /* RCC_PLLSAI1_SUPPORT */
 363:Drivers/STM32L4xx_HAL_Driver/Src/stm32l4xx_hal_rcc.c **** 
 364:Drivers/STM32L4xx_HAL_Driver/Src/stm32l4xx_hal_rcc.c **** #if defined(RCC_PLLSAI2_SUPPORT)
 365:Drivers/STM32L4xx_HAL_Driver/Src/stm32l4xx_hal_rcc.c **** 
 366:Drivers/STM32L4xx_HAL_Driver/Src/stm32l4xx_hal_rcc.c ****   /* Reset PLLSAI2CFGR register */
 367:Drivers/STM32L4xx_HAL_Driver/Src/stm32l4xx_hal_rcc.c ****   CLEAR_REG(RCC->PLLSAI2CFGR);
 368:Drivers/STM32L4xx_HAL_Driver/Src/stm32l4xx_hal_rcc.c ****   SET_BIT(RCC->PLLSAI2CFGR,  RCC_PLLSAI2CFGR_PLLSAI2N_4 );
 369:Drivers/STM32L4xx_HAL_Driver/Src/stm32l4xx_hal_rcc.c **** 
 370:Drivers/STM32L4xx_HAL_Driver/Src/stm32l4xx_hal_rcc.c **** #endif /* RCC_PLLSAI2_SUPPORT */
 371:Drivers/STM32L4xx_HAL_Driver/Src/stm32l4xx_hal_rcc.c **** 
 372:Drivers/STM32L4xx_HAL_Driver/Src/stm32l4xx_hal_rcc.c ****   /* Reset HSEBYP bit */
 373:Drivers/STM32L4xx_HAL_Driver/Src/stm32l4xx_hal_rcc.c ****   CLEAR_BIT(RCC->CR, RCC_CR_HSEBYP);
 374:Drivers/STM32L4xx_HAL_Driver/Src/stm32l4xx_hal_rcc.c **** 
 375:Drivers/STM32L4xx_HAL_Driver/Src/stm32l4xx_hal_rcc.c ****   /* Disable all interrupts */
 376:Drivers/STM32L4xx_HAL_Driver/Src/stm32l4xx_hal_rcc.c ****   CLEAR_REG(RCC->CIER);
 377:Drivers/STM32L4xx_HAL_Driver/Src/stm32l4xx_hal_rcc.c **** 
 378:Drivers/STM32L4xx_HAL_Driver/Src/stm32l4xx_hal_rcc.c ****   /* Clear all interrupt flags */
 379:Drivers/STM32L4xx_HAL_Driver/Src/stm32l4xx_hal_rcc.c ****   WRITE_REG(RCC->CICR, 0xFFFFFFFFU);
 380:Drivers/STM32L4xx_HAL_Driver/Src/stm32l4xx_hal_rcc.c **** 
 381:Drivers/STM32L4xx_HAL_Driver/Src/stm32l4xx_hal_rcc.c ****   /* Clear all reset flags */
 382:Drivers/STM32L4xx_HAL_Driver/Src/stm32l4xx_hal_rcc.c ****   SET_BIT(RCC->CSR, RCC_CSR_RMVF);
 383:Drivers/STM32L4xx_HAL_Driver/Src/stm32l4xx_hal_rcc.c **** 
 384:Drivers/STM32L4xx_HAL_Driver/Src/stm32l4xx_hal_rcc.c ****   return HAL_OK;
 385:Drivers/STM32L4xx_HAL_Driver/Src/stm32l4xx_hal_rcc.c **** }
  95              		.loc 1 385 0
  96 0048 2046     		mov	r0, r4
  97 004a F8BD     		pop	{r3, r4, r5, r6, r7, pc}
  98              	.L6:
 281:Drivers/STM32L4xx_HAL_Driver/Src/stm32l4xx_hal_rcc.c ****     }
  99              		.loc 1 281 0
 100 004c 0324     		movs	r4, #3
 101              	.L3:
 102              		.loc 1 385 0
 103 004e 2046     		mov	r0, r4
 104 0050 F8BD     		pop	{r3, r4, r5, r6, r7, pc}
 105              	.L14:
 302:Drivers/STM32L4xx_HAL_Driver/Src/stm32l4xx_hal_rcc.c **** 
 106              		.loc 1 302 0
 107 0052 FFF7FEFF 		bl	HAL_GetTick
 108              	.LVL6:
 305:Drivers/STM32L4xx_HAL_Driver/Src/stm32l4xx_hal_rcc.c ****   {
 109              		.loc 1 305 0
 110 0056 05F18045 		add	r5, r5, #1073741824
 302:Drivers/STM32L4xx_HAL_Driver/Src/stm32l4xx_hal_rcc.c **** 
 111              		.loc 1 302 0
 112 005a 0746     		mov	r7, r0
 113              	.LVL7:
 305:Drivers/STM32L4xx_HAL_Driver/Src/stm32l4xx_hal_rcc.c ****   {
 114              		.loc 1 305 0
 115 005c 05F50435 		add	r5, r5, #135168
 307:Drivers/STM32L4xx_HAL_Driver/Src/stm32l4xx_hal_rcc.c ****     {
 116              		.loc 1 307 0
ARM GAS  /tmp/ccap8I6O.s 			page 10


 117 0060 41F28836 		movw	r6, #5000
 305:Drivers/STM32L4xx_HAL_Driver/Src/stm32l4xx_hal_rcc.c ****   {
 118              		.loc 1 305 0
 119 0064 04E0     		b	.L5
 120              	.LVL8:
 121              	.L7:
 307:Drivers/STM32L4xx_HAL_Driver/Src/stm32l4xx_hal_rcc.c ****     {
 122              		.loc 1 307 0
 123 0066 FFF7FEFF 		bl	HAL_GetTick
 124              	.LVL9:
 125 006a C01B     		subs	r0, r0, r7
 126 006c B042     		cmp	r0, r6
 127 006e EDD8     		bhi	.L6
 128              	.L5:
 305:Drivers/STM32L4xx_HAL_Driver/Src/stm32l4xx_hal_rcc.c ****   {
 129              		.loc 1 305 0
 130 0070 AB68     		ldr	r3, [r5, #8]
 131 0072 13F00C0F 		tst	r3, #12
 132 0076 F6D1     		bne	.L7
 316:Drivers/STM32L4xx_HAL_Driver/Src/stm32l4xx_hal_rcc.c **** 
 133              		.loc 1 316 0
 134 0078 2A68     		ldr	r2, [r5]
 135 007a 1B4B     		ldr	r3, .L15+16
 334:Drivers/STM32L4xx_HAL_Driver/Src/stm32l4xx_hal_rcc.c **** 
 136              		.loc 1 334 0
 137 007c 164E     		ldr	r6, .L15
 316:Drivers/STM32L4xx_HAL_Driver/Src/stm32l4xx_hal_rcc.c **** 
 138              		.loc 1 316 0
 139 007e 1340     		ands	r3, r3, r2
 140 0080 2B60     		str	r3, [r5]
 330:Drivers/STM32L4xx_HAL_Driver/Src/stm32l4xx_hal_rcc.c **** 
 141              		.loc 1 330 0
 142 0082 FFF7FEFF 		bl	HAL_GetTick
 143              	.LVL10:
 144 0086 0546     		mov	r5, r0
 145              	.LVL11:
 334:Drivers/STM32L4xx_HAL_Driver/Src/stm32l4xx_hal_rcc.c **** 
 146              		.loc 1 334 0
 147 0088 04E0     		b	.L8
 148              	.LVL12:
 149              	.L9:
 346:Drivers/STM32L4xx_HAL_Driver/Src/stm32l4xx_hal_rcc.c ****     {
 150              		.loc 1 346 0
 151 008a FFF7FEFF 		bl	HAL_GetTick
 152              	.LVL13:
 153 008e 401B     		subs	r0, r0, r5
 154 0090 0228     		cmp	r0, #2
 155 0092 DBD8     		bhi	.L6
 156              	.L8:
 334:Drivers/STM32L4xx_HAL_Driver/Src/stm32l4xx_hal_rcc.c **** 
 157              		.loc 1 334 0
 158 0094 3368     		ldr	r3, [r6]
 159 0096 13F02853 		ands	r3, r3, #704643072
 160 009a F6D1     		bne	.L9
 353:Drivers/STM32L4xx_HAL_Driver/Src/stm32l4xx_hal_rcc.c ****   SET_BIT(RCC->PLLCFGR, RCC_PLLCFGR_PLLN_4 );
 161              		.loc 1 353 0
 162 009c F360     		str	r3, [r6, #12]
ARM GAS  /tmp/ccap8I6O.s 			page 11


 354:Drivers/STM32L4xx_HAL_Driver/Src/stm32l4xx_hal_rcc.c **** 
 163              		.loc 1 354 0
 164 009e F268     		ldr	r2, [r6, #12]
 165 00a0 42F48052 		orr	r2, r2, #4096
 166 00a4 F260     		str	r2, [r6, #12]
 359:Drivers/STM32L4xx_HAL_Driver/Src/stm32l4xx_hal_rcc.c ****   SET_BIT(RCC->PLLSAI1CFGR,  RCC_PLLSAI1CFGR_PLLSAI1N_4 );
 167              		.loc 1 359 0
 168 00a6 3361     		str	r3, [r6, #16]
 360:Drivers/STM32L4xx_HAL_Driver/Src/stm32l4xx_hal_rcc.c **** 
 169              		.loc 1 360 0
 170 00a8 3269     		ldr	r2, [r6, #16]
 171 00aa 42F48052 		orr	r2, r2, #4096
 172 00ae 3261     		str	r2, [r6, #16]
 367:Drivers/STM32L4xx_HAL_Driver/Src/stm32l4xx_hal_rcc.c ****   SET_BIT(RCC->PLLSAI2CFGR,  RCC_PLLSAI2CFGR_PLLSAI2N_4 );
 173              		.loc 1 367 0
 174 00b0 7361     		str	r3, [r6, #20]
 368:Drivers/STM32L4xx_HAL_Driver/Src/stm32l4xx_hal_rcc.c **** 
 175              		.loc 1 368 0
 176 00b2 7269     		ldr	r2, [r6, #20]
 177 00b4 42F48052 		orr	r2, r2, #4096
 178 00b8 7261     		str	r2, [r6, #20]
 373:Drivers/STM32L4xx_HAL_Driver/Src/stm32l4xx_hal_rcc.c **** 
 179              		.loc 1 373 0
 180 00ba 3268     		ldr	r2, [r6]
 379:Drivers/STM32L4xx_HAL_Driver/Src/stm32l4xx_hal_rcc.c **** 
 181              		.loc 1 379 0
 182 00bc 4FF0FF31 		mov	r1, #-1
 373:Drivers/STM32L4xx_HAL_Driver/Src/stm32l4xx_hal_rcc.c **** 
 183              		.loc 1 373 0
 184 00c0 22F48022 		bic	r2, r2, #262144
 185 00c4 3260     		str	r2, [r6]
 376:Drivers/STM32L4xx_HAL_Driver/Src/stm32l4xx_hal_rcc.c **** 
 186              		.loc 1 376 0
 187 00c6 B361     		str	r3, [r6, #24]
 379:Drivers/STM32L4xx_HAL_Driver/Src/stm32l4xx_hal_rcc.c **** 
 188              		.loc 1 379 0
 189 00c8 3162     		str	r1, [r6, #32]
 382:Drivers/STM32L4xx_HAL_Driver/Src/stm32l4xx_hal_rcc.c **** 
 190              		.loc 1 382 0
 191 00ca D6F89430 		ldr	r3, [r6, #148]
 192 00ce 43F40003 		orr	r3, r3, #8388608
 193 00d2 C6F89430 		str	r3, [r6, #148]
 384:Drivers/STM32L4xx_HAL_Driver/Src/stm32l4xx_hal_rcc.c **** }
 194              		.loc 1 384 0
 195 00d6 BAE7     		b	.L3
 196              	.L16:
 197              		.align	2
 198              	.L15:
 199 00d8 00100240 		.word	1073876992
 200 00dc 00000000 		.word	uwTickPrio
 201 00e0 00000000 		.word	SystemCoreClock
 202 00e4 00093D00 		.word	4000000
 203 00e8 FFF4FEEA 		.word	-352389889
 204              		.cfi_endproc
 205              	.LFE130:
 207              		.section	.text.HAL_RCC_MCOConfig,"ax",%progbits
 208              		.align	1
ARM GAS  /tmp/ccap8I6O.s 			page 12


 209              		.p2align 2,,3
 210              		.global	HAL_RCC_MCOConfig
 211              		.syntax unified
 212              		.thumb
 213              		.thumb_func
 214              		.fpu fpv4-sp-d16
 216              	HAL_RCC_MCOConfig:
 217              	.LFB133:
 386:Drivers/STM32L4xx_HAL_Driver/Src/stm32l4xx_hal_rcc.c **** 
 387:Drivers/STM32L4xx_HAL_Driver/Src/stm32l4xx_hal_rcc.c **** /**
 388:Drivers/STM32L4xx_HAL_Driver/Src/stm32l4xx_hal_rcc.c ****   * @brief  Initialize the RCC Oscillators according to the specified parameters in the
 389:Drivers/STM32L4xx_HAL_Driver/Src/stm32l4xx_hal_rcc.c ****   *         RCC_OscInitTypeDef.
 390:Drivers/STM32L4xx_HAL_Driver/Src/stm32l4xx_hal_rcc.c ****   * @param  RCC_OscInitStruct  pointer to an RCC_OscInitTypeDef structure that
 391:Drivers/STM32L4xx_HAL_Driver/Src/stm32l4xx_hal_rcc.c ****   *         contains the configuration information for the RCC Oscillators.
 392:Drivers/STM32L4xx_HAL_Driver/Src/stm32l4xx_hal_rcc.c ****   * @note   The PLL is not disabled when used as system clock.
 393:Drivers/STM32L4xx_HAL_Driver/Src/stm32l4xx_hal_rcc.c ****   * @note   Transitions LSE Bypass to LSE On and LSE On to LSE Bypass are not
 394:Drivers/STM32L4xx_HAL_Driver/Src/stm32l4xx_hal_rcc.c ****   *         supported by this macro. User should request a transition to LSE Off
 395:Drivers/STM32L4xx_HAL_Driver/Src/stm32l4xx_hal_rcc.c ****   *         first and then LSE On or LSE Bypass.
 396:Drivers/STM32L4xx_HAL_Driver/Src/stm32l4xx_hal_rcc.c ****   * @note   Transition HSE Bypass to HSE On and HSE On to HSE Bypass are not
 397:Drivers/STM32L4xx_HAL_Driver/Src/stm32l4xx_hal_rcc.c ****   *         supported by this macro. User should request a transition to HSE Off
 398:Drivers/STM32L4xx_HAL_Driver/Src/stm32l4xx_hal_rcc.c ****   *         first and then HSE On or HSE Bypass.
 399:Drivers/STM32L4xx_HAL_Driver/Src/stm32l4xx_hal_rcc.c ****   * @retval HAL status
 400:Drivers/STM32L4xx_HAL_Driver/Src/stm32l4xx_hal_rcc.c ****   */
 401:Drivers/STM32L4xx_HAL_Driver/Src/stm32l4xx_hal_rcc.c **** HAL_StatusTypeDef HAL_RCC_OscConfig(RCC_OscInitTypeDef  *RCC_OscInitStruct)
 402:Drivers/STM32L4xx_HAL_Driver/Src/stm32l4xx_hal_rcc.c **** {
 403:Drivers/STM32L4xx_HAL_Driver/Src/stm32l4xx_hal_rcc.c ****   uint32_t tickstart;
 404:Drivers/STM32L4xx_HAL_Driver/Src/stm32l4xx_hal_rcc.c ****   HAL_StatusTypeDef status;
 405:Drivers/STM32L4xx_HAL_Driver/Src/stm32l4xx_hal_rcc.c ****   uint32_t sysclk_source, pll_config;
 406:Drivers/STM32L4xx_HAL_Driver/Src/stm32l4xx_hal_rcc.c **** 
 407:Drivers/STM32L4xx_HAL_Driver/Src/stm32l4xx_hal_rcc.c ****   /* Check Null pointer */
 408:Drivers/STM32L4xx_HAL_Driver/Src/stm32l4xx_hal_rcc.c ****   if(RCC_OscInitStruct == NULL)
 409:Drivers/STM32L4xx_HAL_Driver/Src/stm32l4xx_hal_rcc.c ****   {
 410:Drivers/STM32L4xx_HAL_Driver/Src/stm32l4xx_hal_rcc.c ****     return HAL_ERROR;
 411:Drivers/STM32L4xx_HAL_Driver/Src/stm32l4xx_hal_rcc.c ****   }
 412:Drivers/STM32L4xx_HAL_Driver/Src/stm32l4xx_hal_rcc.c **** 
 413:Drivers/STM32L4xx_HAL_Driver/Src/stm32l4xx_hal_rcc.c ****   /* Check the parameters */
 414:Drivers/STM32L4xx_HAL_Driver/Src/stm32l4xx_hal_rcc.c ****   assert_param(IS_RCC_OSCILLATORTYPE(RCC_OscInitStruct->OscillatorType));
 415:Drivers/STM32L4xx_HAL_Driver/Src/stm32l4xx_hal_rcc.c **** 
 416:Drivers/STM32L4xx_HAL_Driver/Src/stm32l4xx_hal_rcc.c ****   sysclk_source = __HAL_RCC_GET_SYSCLK_SOURCE();
 417:Drivers/STM32L4xx_HAL_Driver/Src/stm32l4xx_hal_rcc.c ****   pll_config = __HAL_RCC_GET_PLL_OSCSOURCE();
 418:Drivers/STM32L4xx_HAL_Driver/Src/stm32l4xx_hal_rcc.c **** 
 419:Drivers/STM32L4xx_HAL_Driver/Src/stm32l4xx_hal_rcc.c ****   /*----------------------------- MSI Configuration --------------------------*/
 420:Drivers/STM32L4xx_HAL_Driver/Src/stm32l4xx_hal_rcc.c ****   if(((RCC_OscInitStruct->OscillatorType) & RCC_OSCILLATORTYPE_MSI) == RCC_OSCILLATORTYPE_MSI)
 421:Drivers/STM32L4xx_HAL_Driver/Src/stm32l4xx_hal_rcc.c ****   {
 422:Drivers/STM32L4xx_HAL_Driver/Src/stm32l4xx_hal_rcc.c ****     /* Check the parameters */
 423:Drivers/STM32L4xx_HAL_Driver/Src/stm32l4xx_hal_rcc.c ****     assert_param(IS_RCC_MSI(RCC_OscInitStruct->MSIState));
 424:Drivers/STM32L4xx_HAL_Driver/Src/stm32l4xx_hal_rcc.c ****     assert_param(IS_RCC_MSICALIBRATION_VALUE(RCC_OscInitStruct->MSICalibrationValue));
 425:Drivers/STM32L4xx_HAL_Driver/Src/stm32l4xx_hal_rcc.c ****     assert_param(IS_RCC_MSI_CLOCK_RANGE(RCC_OscInitStruct->MSIClockRange));
 426:Drivers/STM32L4xx_HAL_Driver/Src/stm32l4xx_hal_rcc.c **** 
 427:Drivers/STM32L4xx_HAL_Driver/Src/stm32l4xx_hal_rcc.c ****     /* Check if MSI is used as system clock or as PLL source when PLL is selected as system clock *
 428:Drivers/STM32L4xx_HAL_Driver/Src/stm32l4xx_hal_rcc.c ****     if((sysclk_source == RCC_CFGR_SWS_MSI) ||
 429:Drivers/STM32L4xx_HAL_Driver/Src/stm32l4xx_hal_rcc.c ****        ((sysclk_source == RCC_CFGR_SWS_PLL) && (pll_config == RCC_PLLSOURCE_MSI)))
 430:Drivers/STM32L4xx_HAL_Driver/Src/stm32l4xx_hal_rcc.c ****     {
 431:Drivers/STM32L4xx_HAL_Driver/Src/stm32l4xx_hal_rcc.c ****       if((READ_BIT(RCC->CR, RCC_CR_MSIRDY) != 0U) && (RCC_OscInitStruct->MSIState == RCC_MSI_OFF))
 432:Drivers/STM32L4xx_HAL_Driver/Src/stm32l4xx_hal_rcc.c ****       {
 433:Drivers/STM32L4xx_HAL_Driver/Src/stm32l4xx_hal_rcc.c ****         return HAL_ERROR;
 434:Drivers/STM32L4xx_HAL_Driver/Src/stm32l4xx_hal_rcc.c ****       }
ARM GAS  /tmp/ccap8I6O.s 			page 13


 435:Drivers/STM32L4xx_HAL_Driver/Src/stm32l4xx_hal_rcc.c **** 
 436:Drivers/STM32L4xx_HAL_Driver/Src/stm32l4xx_hal_rcc.c ****        /* Otherwise, just the calibration and MSI range change are allowed */
 437:Drivers/STM32L4xx_HAL_Driver/Src/stm32l4xx_hal_rcc.c ****       else
 438:Drivers/STM32L4xx_HAL_Driver/Src/stm32l4xx_hal_rcc.c ****       {
 439:Drivers/STM32L4xx_HAL_Driver/Src/stm32l4xx_hal_rcc.c ****         /* To correctly read data from FLASH memory, the number of wait states (LATENCY)
 440:Drivers/STM32L4xx_HAL_Driver/Src/stm32l4xx_hal_rcc.c ****            must be correctly programmed according to the frequency of the CPU clock
 441:Drivers/STM32L4xx_HAL_Driver/Src/stm32l4xx_hal_rcc.c ****            (HCLK) and the supply voltage of the device. */
 442:Drivers/STM32L4xx_HAL_Driver/Src/stm32l4xx_hal_rcc.c ****         if(RCC_OscInitStruct->MSIClockRange > __HAL_RCC_GET_MSI_RANGE())
 443:Drivers/STM32L4xx_HAL_Driver/Src/stm32l4xx_hal_rcc.c ****         {
 444:Drivers/STM32L4xx_HAL_Driver/Src/stm32l4xx_hal_rcc.c ****           /* First increase number of wait states update if necessary */
 445:Drivers/STM32L4xx_HAL_Driver/Src/stm32l4xx_hal_rcc.c ****           if(RCC_SetFlashLatencyFromMSIRange(RCC_OscInitStruct->MSIClockRange) != HAL_OK)
 446:Drivers/STM32L4xx_HAL_Driver/Src/stm32l4xx_hal_rcc.c ****           {
 447:Drivers/STM32L4xx_HAL_Driver/Src/stm32l4xx_hal_rcc.c ****             return HAL_ERROR;
 448:Drivers/STM32L4xx_HAL_Driver/Src/stm32l4xx_hal_rcc.c ****           }
 449:Drivers/STM32L4xx_HAL_Driver/Src/stm32l4xx_hal_rcc.c **** 
 450:Drivers/STM32L4xx_HAL_Driver/Src/stm32l4xx_hal_rcc.c ****           /* Selects the Multiple Speed oscillator (MSI) clock range .*/
 451:Drivers/STM32L4xx_HAL_Driver/Src/stm32l4xx_hal_rcc.c ****           __HAL_RCC_MSI_RANGE_CONFIG(RCC_OscInitStruct->MSIClockRange);
 452:Drivers/STM32L4xx_HAL_Driver/Src/stm32l4xx_hal_rcc.c ****           /* Adjusts the Multiple Speed oscillator (MSI) calibration value.*/
 453:Drivers/STM32L4xx_HAL_Driver/Src/stm32l4xx_hal_rcc.c ****           __HAL_RCC_MSI_CALIBRATIONVALUE_ADJUST(RCC_OscInitStruct->MSICalibrationValue);
 454:Drivers/STM32L4xx_HAL_Driver/Src/stm32l4xx_hal_rcc.c ****         }
 455:Drivers/STM32L4xx_HAL_Driver/Src/stm32l4xx_hal_rcc.c ****         else
 456:Drivers/STM32L4xx_HAL_Driver/Src/stm32l4xx_hal_rcc.c ****         {
 457:Drivers/STM32L4xx_HAL_Driver/Src/stm32l4xx_hal_rcc.c ****           /* Else, keep current flash latency while decreasing applies */
 458:Drivers/STM32L4xx_HAL_Driver/Src/stm32l4xx_hal_rcc.c ****           /* Selects the Multiple Speed oscillator (MSI) clock range .*/
 459:Drivers/STM32L4xx_HAL_Driver/Src/stm32l4xx_hal_rcc.c ****           __HAL_RCC_MSI_RANGE_CONFIG(RCC_OscInitStruct->MSIClockRange);
 460:Drivers/STM32L4xx_HAL_Driver/Src/stm32l4xx_hal_rcc.c ****           /* Adjusts the Multiple Speed oscillator (MSI) calibration value.*/
 461:Drivers/STM32L4xx_HAL_Driver/Src/stm32l4xx_hal_rcc.c ****           __HAL_RCC_MSI_CALIBRATIONVALUE_ADJUST(RCC_OscInitStruct->MSICalibrationValue);
 462:Drivers/STM32L4xx_HAL_Driver/Src/stm32l4xx_hal_rcc.c **** 
 463:Drivers/STM32L4xx_HAL_Driver/Src/stm32l4xx_hal_rcc.c ****           /* Decrease number of wait states update if necessary */
 464:Drivers/STM32L4xx_HAL_Driver/Src/stm32l4xx_hal_rcc.c ****           if(RCC_SetFlashLatencyFromMSIRange(RCC_OscInitStruct->MSIClockRange) != HAL_OK)
 465:Drivers/STM32L4xx_HAL_Driver/Src/stm32l4xx_hal_rcc.c ****           {
 466:Drivers/STM32L4xx_HAL_Driver/Src/stm32l4xx_hal_rcc.c ****             return HAL_ERROR;
 467:Drivers/STM32L4xx_HAL_Driver/Src/stm32l4xx_hal_rcc.c ****           }
 468:Drivers/STM32L4xx_HAL_Driver/Src/stm32l4xx_hal_rcc.c ****         }
 469:Drivers/STM32L4xx_HAL_Driver/Src/stm32l4xx_hal_rcc.c **** 
 470:Drivers/STM32L4xx_HAL_Driver/Src/stm32l4xx_hal_rcc.c ****         /* Update the SystemCoreClock global variable */
 471:Drivers/STM32L4xx_HAL_Driver/Src/stm32l4xx_hal_rcc.c ****         SystemCoreClock = HAL_RCC_GetSysClockFreq() >> (AHBPrescTable[READ_BIT(RCC->CFGR, RCC_CFGR_
 472:Drivers/STM32L4xx_HAL_Driver/Src/stm32l4xx_hal_rcc.c **** 
 473:Drivers/STM32L4xx_HAL_Driver/Src/stm32l4xx_hal_rcc.c ****         /* Configure the source of time base considering new system clocks settings*/
 474:Drivers/STM32L4xx_HAL_Driver/Src/stm32l4xx_hal_rcc.c ****         status = HAL_InitTick(uwTickPrio);
 475:Drivers/STM32L4xx_HAL_Driver/Src/stm32l4xx_hal_rcc.c ****         if(status != HAL_OK)
 476:Drivers/STM32L4xx_HAL_Driver/Src/stm32l4xx_hal_rcc.c ****         {
 477:Drivers/STM32L4xx_HAL_Driver/Src/stm32l4xx_hal_rcc.c ****           return status;
 478:Drivers/STM32L4xx_HAL_Driver/Src/stm32l4xx_hal_rcc.c ****         }
 479:Drivers/STM32L4xx_HAL_Driver/Src/stm32l4xx_hal_rcc.c ****       }
 480:Drivers/STM32L4xx_HAL_Driver/Src/stm32l4xx_hal_rcc.c ****     }
 481:Drivers/STM32L4xx_HAL_Driver/Src/stm32l4xx_hal_rcc.c ****     else
 482:Drivers/STM32L4xx_HAL_Driver/Src/stm32l4xx_hal_rcc.c ****     {
 483:Drivers/STM32L4xx_HAL_Driver/Src/stm32l4xx_hal_rcc.c ****       /* Check the MSI State */
 484:Drivers/STM32L4xx_HAL_Driver/Src/stm32l4xx_hal_rcc.c ****       if(RCC_OscInitStruct->MSIState != RCC_MSI_OFF)
 485:Drivers/STM32L4xx_HAL_Driver/Src/stm32l4xx_hal_rcc.c ****       {
 486:Drivers/STM32L4xx_HAL_Driver/Src/stm32l4xx_hal_rcc.c ****         /* Enable the Internal High Speed oscillator (MSI). */
 487:Drivers/STM32L4xx_HAL_Driver/Src/stm32l4xx_hal_rcc.c ****         __HAL_RCC_MSI_ENABLE();
 488:Drivers/STM32L4xx_HAL_Driver/Src/stm32l4xx_hal_rcc.c **** 
 489:Drivers/STM32L4xx_HAL_Driver/Src/stm32l4xx_hal_rcc.c ****         /* Get timeout */
 490:Drivers/STM32L4xx_HAL_Driver/Src/stm32l4xx_hal_rcc.c ****         tickstart = HAL_GetTick();
 491:Drivers/STM32L4xx_HAL_Driver/Src/stm32l4xx_hal_rcc.c **** 
ARM GAS  /tmp/ccap8I6O.s 			page 14


 492:Drivers/STM32L4xx_HAL_Driver/Src/stm32l4xx_hal_rcc.c ****         /* Wait till MSI is ready */
 493:Drivers/STM32L4xx_HAL_Driver/Src/stm32l4xx_hal_rcc.c ****         while(READ_BIT(RCC->CR, RCC_CR_MSIRDY) == 0U)
 494:Drivers/STM32L4xx_HAL_Driver/Src/stm32l4xx_hal_rcc.c ****         {
 495:Drivers/STM32L4xx_HAL_Driver/Src/stm32l4xx_hal_rcc.c ****           if((HAL_GetTick() - tickstart) > MSI_TIMEOUT_VALUE)
 496:Drivers/STM32L4xx_HAL_Driver/Src/stm32l4xx_hal_rcc.c ****           {
 497:Drivers/STM32L4xx_HAL_Driver/Src/stm32l4xx_hal_rcc.c ****             return HAL_TIMEOUT;
 498:Drivers/STM32L4xx_HAL_Driver/Src/stm32l4xx_hal_rcc.c ****           }
 499:Drivers/STM32L4xx_HAL_Driver/Src/stm32l4xx_hal_rcc.c ****         }
 500:Drivers/STM32L4xx_HAL_Driver/Src/stm32l4xx_hal_rcc.c ****          /* Selects the Multiple Speed oscillator (MSI) clock range .*/
 501:Drivers/STM32L4xx_HAL_Driver/Src/stm32l4xx_hal_rcc.c ****         __HAL_RCC_MSI_RANGE_CONFIG(RCC_OscInitStruct->MSIClockRange);
 502:Drivers/STM32L4xx_HAL_Driver/Src/stm32l4xx_hal_rcc.c ****          /* Adjusts the Multiple Speed oscillator (MSI) calibration value.*/
 503:Drivers/STM32L4xx_HAL_Driver/Src/stm32l4xx_hal_rcc.c ****         __HAL_RCC_MSI_CALIBRATIONVALUE_ADJUST(RCC_OscInitStruct->MSICalibrationValue);
 504:Drivers/STM32L4xx_HAL_Driver/Src/stm32l4xx_hal_rcc.c **** 
 505:Drivers/STM32L4xx_HAL_Driver/Src/stm32l4xx_hal_rcc.c ****       }
 506:Drivers/STM32L4xx_HAL_Driver/Src/stm32l4xx_hal_rcc.c ****       else
 507:Drivers/STM32L4xx_HAL_Driver/Src/stm32l4xx_hal_rcc.c ****       {
 508:Drivers/STM32L4xx_HAL_Driver/Src/stm32l4xx_hal_rcc.c ****         /* Disable the Internal High Speed oscillator (MSI). */
 509:Drivers/STM32L4xx_HAL_Driver/Src/stm32l4xx_hal_rcc.c ****         __HAL_RCC_MSI_DISABLE();
 510:Drivers/STM32L4xx_HAL_Driver/Src/stm32l4xx_hal_rcc.c **** 
 511:Drivers/STM32L4xx_HAL_Driver/Src/stm32l4xx_hal_rcc.c ****         /* Get timeout */
 512:Drivers/STM32L4xx_HAL_Driver/Src/stm32l4xx_hal_rcc.c ****         tickstart = HAL_GetTick();
 513:Drivers/STM32L4xx_HAL_Driver/Src/stm32l4xx_hal_rcc.c **** 
 514:Drivers/STM32L4xx_HAL_Driver/Src/stm32l4xx_hal_rcc.c ****         /* Wait till MSI is ready */
 515:Drivers/STM32L4xx_HAL_Driver/Src/stm32l4xx_hal_rcc.c ****         while(READ_BIT(RCC->CR, RCC_CR_MSIRDY) != 0U)
 516:Drivers/STM32L4xx_HAL_Driver/Src/stm32l4xx_hal_rcc.c ****         {
 517:Drivers/STM32L4xx_HAL_Driver/Src/stm32l4xx_hal_rcc.c ****           if((HAL_GetTick() - tickstart) > MSI_TIMEOUT_VALUE)
 518:Drivers/STM32L4xx_HAL_Driver/Src/stm32l4xx_hal_rcc.c ****           {
 519:Drivers/STM32L4xx_HAL_Driver/Src/stm32l4xx_hal_rcc.c ****             return HAL_TIMEOUT;
 520:Drivers/STM32L4xx_HAL_Driver/Src/stm32l4xx_hal_rcc.c ****           }
 521:Drivers/STM32L4xx_HAL_Driver/Src/stm32l4xx_hal_rcc.c ****         }
 522:Drivers/STM32L4xx_HAL_Driver/Src/stm32l4xx_hal_rcc.c ****       }
 523:Drivers/STM32L4xx_HAL_Driver/Src/stm32l4xx_hal_rcc.c ****     }
 524:Drivers/STM32L4xx_HAL_Driver/Src/stm32l4xx_hal_rcc.c ****   }
 525:Drivers/STM32L4xx_HAL_Driver/Src/stm32l4xx_hal_rcc.c ****   /*------------------------------- HSE Configuration ------------------------*/
 526:Drivers/STM32L4xx_HAL_Driver/Src/stm32l4xx_hal_rcc.c ****   if(((RCC_OscInitStruct->OscillatorType) & RCC_OSCILLATORTYPE_HSE) == RCC_OSCILLATORTYPE_HSE)
 527:Drivers/STM32L4xx_HAL_Driver/Src/stm32l4xx_hal_rcc.c ****   {
 528:Drivers/STM32L4xx_HAL_Driver/Src/stm32l4xx_hal_rcc.c ****     /* Check the parameters */
 529:Drivers/STM32L4xx_HAL_Driver/Src/stm32l4xx_hal_rcc.c ****     assert_param(IS_RCC_HSE(RCC_OscInitStruct->HSEState));
 530:Drivers/STM32L4xx_HAL_Driver/Src/stm32l4xx_hal_rcc.c **** 
 531:Drivers/STM32L4xx_HAL_Driver/Src/stm32l4xx_hal_rcc.c ****     /* When the HSE is used as system clock or clock source for PLL in these cases it is not allowe
 532:Drivers/STM32L4xx_HAL_Driver/Src/stm32l4xx_hal_rcc.c ****     if((sysclk_source == RCC_CFGR_SWS_HSE) ||
 533:Drivers/STM32L4xx_HAL_Driver/Src/stm32l4xx_hal_rcc.c ****        ((sysclk_source == RCC_CFGR_SWS_PLL) && (pll_config == RCC_PLLSOURCE_HSE)))
 534:Drivers/STM32L4xx_HAL_Driver/Src/stm32l4xx_hal_rcc.c ****     {
 535:Drivers/STM32L4xx_HAL_Driver/Src/stm32l4xx_hal_rcc.c ****       if((READ_BIT(RCC->CR, RCC_CR_HSERDY) != 0U) && (RCC_OscInitStruct->HSEState == RCC_HSE_OFF))
 536:Drivers/STM32L4xx_HAL_Driver/Src/stm32l4xx_hal_rcc.c ****       {
 537:Drivers/STM32L4xx_HAL_Driver/Src/stm32l4xx_hal_rcc.c ****         return HAL_ERROR;
 538:Drivers/STM32L4xx_HAL_Driver/Src/stm32l4xx_hal_rcc.c ****       }
 539:Drivers/STM32L4xx_HAL_Driver/Src/stm32l4xx_hal_rcc.c ****     }
 540:Drivers/STM32L4xx_HAL_Driver/Src/stm32l4xx_hal_rcc.c ****     else
 541:Drivers/STM32L4xx_HAL_Driver/Src/stm32l4xx_hal_rcc.c ****     {
 542:Drivers/STM32L4xx_HAL_Driver/Src/stm32l4xx_hal_rcc.c ****       /* Set the new HSE configuration ---------------------------------------*/
 543:Drivers/STM32L4xx_HAL_Driver/Src/stm32l4xx_hal_rcc.c ****       __HAL_RCC_HSE_CONFIG(RCC_OscInitStruct->HSEState);
 544:Drivers/STM32L4xx_HAL_Driver/Src/stm32l4xx_hal_rcc.c **** 
 545:Drivers/STM32L4xx_HAL_Driver/Src/stm32l4xx_hal_rcc.c ****       /* Check the HSE State */
 546:Drivers/STM32L4xx_HAL_Driver/Src/stm32l4xx_hal_rcc.c ****       if(RCC_OscInitStruct->HSEState != RCC_HSE_OFF)
 547:Drivers/STM32L4xx_HAL_Driver/Src/stm32l4xx_hal_rcc.c ****       {
 548:Drivers/STM32L4xx_HAL_Driver/Src/stm32l4xx_hal_rcc.c ****         /* Get Start Tick*/
ARM GAS  /tmp/ccap8I6O.s 			page 15


 549:Drivers/STM32L4xx_HAL_Driver/Src/stm32l4xx_hal_rcc.c ****         tickstart = HAL_GetTick();
 550:Drivers/STM32L4xx_HAL_Driver/Src/stm32l4xx_hal_rcc.c **** 
 551:Drivers/STM32L4xx_HAL_Driver/Src/stm32l4xx_hal_rcc.c ****         /* Wait till HSE is ready */
 552:Drivers/STM32L4xx_HAL_Driver/Src/stm32l4xx_hal_rcc.c ****         while(READ_BIT(RCC->CR, RCC_CR_HSERDY) == 0U)
 553:Drivers/STM32L4xx_HAL_Driver/Src/stm32l4xx_hal_rcc.c ****         {
 554:Drivers/STM32L4xx_HAL_Driver/Src/stm32l4xx_hal_rcc.c ****           if((HAL_GetTick() - tickstart) > HSE_TIMEOUT_VALUE)
 555:Drivers/STM32L4xx_HAL_Driver/Src/stm32l4xx_hal_rcc.c ****           {
 556:Drivers/STM32L4xx_HAL_Driver/Src/stm32l4xx_hal_rcc.c ****             return HAL_TIMEOUT;
 557:Drivers/STM32L4xx_HAL_Driver/Src/stm32l4xx_hal_rcc.c ****           }
 558:Drivers/STM32L4xx_HAL_Driver/Src/stm32l4xx_hal_rcc.c ****         }
 559:Drivers/STM32L4xx_HAL_Driver/Src/stm32l4xx_hal_rcc.c ****       }
 560:Drivers/STM32L4xx_HAL_Driver/Src/stm32l4xx_hal_rcc.c ****       else
 561:Drivers/STM32L4xx_HAL_Driver/Src/stm32l4xx_hal_rcc.c ****       {
 562:Drivers/STM32L4xx_HAL_Driver/Src/stm32l4xx_hal_rcc.c ****         /* Get Start Tick*/
 563:Drivers/STM32L4xx_HAL_Driver/Src/stm32l4xx_hal_rcc.c ****         tickstart = HAL_GetTick();
 564:Drivers/STM32L4xx_HAL_Driver/Src/stm32l4xx_hal_rcc.c **** 
 565:Drivers/STM32L4xx_HAL_Driver/Src/stm32l4xx_hal_rcc.c ****         /* Wait till HSE is disabled */
 566:Drivers/STM32L4xx_HAL_Driver/Src/stm32l4xx_hal_rcc.c ****         while(READ_BIT(RCC->CR, RCC_CR_HSERDY) != 0U)
 567:Drivers/STM32L4xx_HAL_Driver/Src/stm32l4xx_hal_rcc.c ****         {
 568:Drivers/STM32L4xx_HAL_Driver/Src/stm32l4xx_hal_rcc.c ****           if((HAL_GetTick() - tickstart) > HSE_TIMEOUT_VALUE)
 569:Drivers/STM32L4xx_HAL_Driver/Src/stm32l4xx_hal_rcc.c ****           {
 570:Drivers/STM32L4xx_HAL_Driver/Src/stm32l4xx_hal_rcc.c ****             return HAL_TIMEOUT;
 571:Drivers/STM32L4xx_HAL_Driver/Src/stm32l4xx_hal_rcc.c ****           }
 572:Drivers/STM32L4xx_HAL_Driver/Src/stm32l4xx_hal_rcc.c ****         }
 573:Drivers/STM32L4xx_HAL_Driver/Src/stm32l4xx_hal_rcc.c ****       }
 574:Drivers/STM32L4xx_HAL_Driver/Src/stm32l4xx_hal_rcc.c ****     }
 575:Drivers/STM32L4xx_HAL_Driver/Src/stm32l4xx_hal_rcc.c ****   }
 576:Drivers/STM32L4xx_HAL_Driver/Src/stm32l4xx_hal_rcc.c ****   /*----------------------------- HSI Configuration --------------------------*/
 577:Drivers/STM32L4xx_HAL_Driver/Src/stm32l4xx_hal_rcc.c ****   if(((RCC_OscInitStruct->OscillatorType) & RCC_OSCILLATORTYPE_HSI) == RCC_OSCILLATORTYPE_HSI)
 578:Drivers/STM32L4xx_HAL_Driver/Src/stm32l4xx_hal_rcc.c ****   {
 579:Drivers/STM32L4xx_HAL_Driver/Src/stm32l4xx_hal_rcc.c ****     /* Check the parameters */
 580:Drivers/STM32L4xx_HAL_Driver/Src/stm32l4xx_hal_rcc.c ****     assert_param(IS_RCC_HSI(RCC_OscInitStruct->HSIState));
 581:Drivers/STM32L4xx_HAL_Driver/Src/stm32l4xx_hal_rcc.c ****     assert_param(IS_RCC_HSI_CALIBRATION_VALUE(RCC_OscInitStruct->HSICalibrationValue));
 582:Drivers/STM32L4xx_HAL_Driver/Src/stm32l4xx_hal_rcc.c **** 
 583:Drivers/STM32L4xx_HAL_Driver/Src/stm32l4xx_hal_rcc.c ****     /* Check if HSI is used as system clock or as PLL source when PLL is selected as system clock *
 584:Drivers/STM32L4xx_HAL_Driver/Src/stm32l4xx_hal_rcc.c ****     if((sysclk_source == RCC_CFGR_SWS_HSI) ||
 585:Drivers/STM32L4xx_HAL_Driver/Src/stm32l4xx_hal_rcc.c ****        ((sysclk_source == RCC_CFGR_SWS_PLL) && (pll_config == RCC_PLLSOURCE_HSI)))
 586:Drivers/STM32L4xx_HAL_Driver/Src/stm32l4xx_hal_rcc.c ****     {
 587:Drivers/STM32L4xx_HAL_Driver/Src/stm32l4xx_hal_rcc.c ****       /* When HSI is used as system clock it will not be disabled */
 588:Drivers/STM32L4xx_HAL_Driver/Src/stm32l4xx_hal_rcc.c ****       if((READ_BIT(RCC->CR, RCC_CR_HSIRDY) != 0U) && (RCC_OscInitStruct->HSIState == RCC_HSI_OFF))
 589:Drivers/STM32L4xx_HAL_Driver/Src/stm32l4xx_hal_rcc.c ****       {
 590:Drivers/STM32L4xx_HAL_Driver/Src/stm32l4xx_hal_rcc.c ****         return HAL_ERROR;
 591:Drivers/STM32L4xx_HAL_Driver/Src/stm32l4xx_hal_rcc.c ****       }
 592:Drivers/STM32L4xx_HAL_Driver/Src/stm32l4xx_hal_rcc.c ****       /* Otherwise, just the calibration is allowed */
 593:Drivers/STM32L4xx_HAL_Driver/Src/stm32l4xx_hal_rcc.c ****       else
 594:Drivers/STM32L4xx_HAL_Driver/Src/stm32l4xx_hal_rcc.c ****       {
 595:Drivers/STM32L4xx_HAL_Driver/Src/stm32l4xx_hal_rcc.c ****         /* Adjusts the Internal High Speed oscillator (HSI) calibration value.*/
 596:Drivers/STM32L4xx_HAL_Driver/Src/stm32l4xx_hal_rcc.c ****         __HAL_RCC_HSI_CALIBRATIONVALUE_ADJUST(RCC_OscInitStruct->HSICalibrationValue);
 597:Drivers/STM32L4xx_HAL_Driver/Src/stm32l4xx_hal_rcc.c ****       }
 598:Drivers/STM32L4xx_HAL_Driver/Src/stm32l4xx_hal_rcc.c ****     }
 599:Drivers/STM32L4xx_HAL_Driver/Src/stm32l4xx_hal_rcc.c ****     else
 600:Drivers/STM32L4xx_HAL_Driver/Src/stm32l4xx_hal_rcc.c ****     {
 601:Drivers/STM32L4xx_HAL_Driver/Src/stm32l4xx_hal_rcc.c ****       /* Check the HSI State */
 602:Drivers/STM32L4xx_HAL_Driver/Src/stm32l4xx_hal_rcc.c ****       if(RCC_OscInitStruct->HSIState != RCC_HSI_OFF)
 603:Drivers/STM32L4xx_HAL_Driver/Src/stm32l4xx_hal_rcc.c ****       {
 604:Drivers/STM32L4xx_HAL_Driver/Src/stm32l4xx_hal_rcc.c ****         /* Enable the Internal High Speed oscillator (HSI). */
 605:Drivers/STM32L4xx_HAL_Driver/Src/stm32l4xx_hal_rcc.c ****         __HAL_RCC_HSI_ENABLE();
ARM GAS  /tmp/ccap8I6O.s 			page 16


 606:Drivers/STM32L4xx_HAL_Driver/Src/stm32l4xx_hal_rcc.c **** 
 607:Drivers/STM32L4xx_HAL_Driver/Src/stm32l4xx_hal_rcc.c ****         /* Get Start Tick*/
 608:Drivers/STM32L4xx_HAL_Driver/Src/stm32l4xx_hal_rcc.c ****         tickstart = HAL_GetTick();
 609:Drivers/STM32L4xx_HAL_Driver/Src/stm32l4xx_hal_rcc.c **** 
 610:Drivers/STM32L4xx_HAL_Driver/Src/stm32l4xx_hal_rcc.c ****         /* Wait till HSI is ready */
 611:Drivers/STM32L4xx_HAL_Driver/Src/stm32l4xx_hal_rcc.c ****         while(READ_BIT(RCC->CR, RCC_CR_HSIRDY) == 0U)
 612:Drivers/STM32L4xx_HAL_Driver/Src/stm32l4xx_hal_rcc.c ****         {
 613:Drivers/STM32L4xx_HAL_Driver/Src/stm32l4xx_hal_rcc.c ****           if((HAL_GetTick() - tickstart) > HSI_TIMEOUT_VALUE)
 614:Drivers/STM32L4xx_HAL_Driver/Src/stm32l4xx_hal_rcc.c ****           {
 615:Drivers/STM32L4xx_HAL_Driver/Src/stm32l4xx_hal_rcc.c ****             return HAL_TIMEOUT;
 616:Drivers/STM32L4xx_HAL_Driver/Src/stm32l4xx_hal_rcc.c ****           }
 617:Drivers/STM32L4xx_HAL_Driver/Src/stm32l4xx_hal_rcc.c ****         }
 618:Drivers/STM32L4xx_HAL_Driver/Src/stm32l4xx_hal_rcc.c **** 
 619:Drivers/STM32L4xx_HAL_Driver/Src/stm32l4xx_hal_rcc.c ****         /* Adjusts the Internal High Speed oscillator (HSI) calibration value.*/
 620:Drivers/STM32L4xx_HAL_Driver/Src/stm32l4xx_hal_rcc.c ****         __HAL_RCC_HSI_CALIBRATIONVALUE_ADJUST(RCC_OscInitStruct->HSICalibrationValue);
 621:Drivers/STM32L4xx_HAL_Driver/Src/stm32l4xx_hal_rcc.c ****       }
 622:Drivers/STM32L4xx_HAL_Driver/Src/stm32l4xx_hal_rcc.c ****       else
 623:Drivers/STM32L4xx_HAL_Driver/Src/stm32l4xx_hal_rcc.c ****       {
 624:Drivers/STM32L4xx_HAL_Driver/Src/stm32l4xx_hal_rcc.c ****         /* Disable the Internal High Speed oscillator (HSI). */
 625:Drivers/STM32L4xx_HAL_Driver/Src/stm32l4xx_hal_rcc.c ****         __HAL_RCC_HSI_DISABLE();
 626:Drivers/STM32L4xx_HAL_Driver/Src/stm32l4xx_hal_rcc.c **** 
 627:Drivers/STM32L4xx_HAL_Driver/Src/stm32l4xx_hal_rcc.c ****         /* Get Start Tick*/
 628:Drivers/STM32L4xx_HAL_Driver/Src/stm32l4xx_hal_rcc.c ****         tickstart = HAL_GetTick();
 629:Drivers/STM32L4xx_HAL_Driver/Src/stm32l4xx_hal_rcc.c **** 
 630:Drivers/STM32L4xx_HAL_Driver/Src/stm32l4xx_hal_rcc.c ****         /* Wait till HSI is disabled */
 631:Drivers/STM32L4xx_HAL_Driver/Src/stm32l4xx_hal_rcc.c ****         while(READ_BIT(RCC->CR, RCC_CR_HSIRDY) != 0U)
 632:Drivers/STM32L4xx_HAL_Driver/Src/stm32l4xx_hal_rcc.c ****         {
 633:Drivers/STM32L4xx_HAL_Driver/Src/stm32l4xx_hal_rcc.c ****           if((HAL_GetTick() - tickstart) > HSI_TIMEOUT_VALUE)
 634:Drivers/STM32L4xx_HAL_Driver/Src/stm32l4xx_hal_rcc.c ****           {
 635:Drivers/STM32L4xx_HAL_Driver/Src/stm32l4xx_hal_rcc.c ****             return HAL_TIMEOUT;
 636:Drivers/STM32L4xx_HAL_Driver/Src/stm32l4xx_hal_rcc.c ****           }
 637:Drivers/STM32L4xx_HAL_Driver/Src/stm32l4xx_hal_rcc.c ****         }
 638:Drivers/STM32L4xx_HAL_Driver/Src/stm32l4xx_hal_rcc.c ****       }
 639:Drivers/STM32L4xx_HAL_Driver/Src/stm32l4xx_hal_rcc.c ****     }
 640:Drivers/STM32L4xx_HAL_Driver/Src/stm32l4xx_hal_rcc.c ****   }
 641:Drivers/STM32L4xx_HAL_Driver/Src/stm32l4xx_hal_rcc.c ****   /*------------------------------ LSI Configuration -------------------------*/
 642:Drivers/STM32L4xx_HAL_Driver/Src/stm32l4xx_hal_rcc.c ****   if(((RCC_OscInitStruct->OscillatorType) & RCC_OSCILLATORTYPE_LSI) == RCC_OSCILLATORTYPE_LSI)
 643:Drivers/STM32L4xx_HAL_Driver/Src/stm32l4xx_hal_rcc.c ****   {
 644:Drivers/STM32L4xx_HAL_Driver/Src/stm32l4xx_hal_rcc.c ****     /* Check the parameters */
 645:Drivers/STM32L4xx_HAL_Driver/Src/stm32l4xx_hal_rcc.c ****     assert_param(IS_RCC_LSI(RCC_OscInitStruct->LSIState));
 646:Drivers/STM32L4xx_HAL_Driver/Src/stm32l4xx_hal_rcc.c **** 
 647:Drivers/STM32L4xx_HAL_Driver/Src/stm32l4xx_hal_rcc.c ****     /* Check the LSI State */
 648:Drivers/STM32L4xx_HAL_Driver/Src/stm32l4xx_hal_rcc.c ****     if(RCC_OscInitStruct->LSIState != RCC_LSI_OFF)
 649:Drivers/STM32L4xx_HAL_Driver/Src/stm32l4xx_hal_rcc.c ****     {
 650:Drivers/STM32L4xx_HAL_Driver/Src/stm32l4xx_hal_rcc.c **** #if defined(RCC_CSR_LSIPREDIV)
 651:Drivers/STM32L4xx_HAL_Driver/Src/stm32l4xx_hal_rcc.c ****       uint32_t csr_temp = RCC->CSR;
 652:Drivers/STM32L4xx_HAL_Driver/Src/stm32l4xx_hal_rcc.c **** 
 653:Drivers/STM32L4xx_HAL_Driver/Src/stm32l4xx_hal_rcc.c ****       /* Check LSI division factor */
 654:Drivers/STM32L4xx_HAL_Driver/Src/stm32l4xx_hal_rcc.c ****       assert_param(IS_RCC_LSIDIV(RCC_OscInitStruct->LSIDiv));
 655:Drivers/STM32L4xx_HAL_Driver/Src/stm32l4xx_hal_rcc.c **** 
 656:Drivers/STM32L4xx_HAL_Driver/Src/stm32l4xx_hal_rcc.c ****       if (RCC_OscInitStruct->LSIDiv != (csr_temp & RCC_CSR_LSIPREDIV))
 657:Drivers/STM32L4xx_HAL_Driver/Src/stm32l4xx_hal_rcc.c ****       {
 658:Drivers/STM32L4xx_HAL_Driver/Src/stm32l4xx_hal_rcc.c ****         if (((csr_temp & RCC_CSR_LSIRDY) == RCC_CSR_LSIRDY) && \
 659:Drivers/STM32L4xx_HAL_Driver/Src/stm32l4xx_hal_rcc.c ****             ((csr_temp & RCC_CSR_LSION) != RCC_CSR_LSION))
 660:Drivers/STM32L4xx_HAL_Driver/Src/stm32l4xx_hal_rcc.c ****         {
 661:Drivers/STM32L4xx_HAL_Driver/Src/stm32l4xx_hal_rcc.c ****            /* If LSIRDY is set while LSION is not enabled,
 662:Drivers/STM32L4xx_HAL_Driver/Src/stm32l4xx_hal_rcc.c ****               LSIPREDIV can't be updated  */
ARM GAS  /tmp/ccap8I6O.s 			page 17


 663:Drivers/STM32L4xx_HAL_Driver/Src/stm32l4xx_hal_rcc.c ****           return HAL_ERROR;
 664:Drivers/STM32L4xx_HAL_Driver/Src/stm32l4xx_hal_rcc.c ****         }
 665:Drivers/STM32L4xx_HAL_Driver/Src/stm32l4xx_hal_rcc.c **** 
 666:Drivers/STM32L4xx_HAL_Driver/Src/stm32l4xx_hal_rcc.c ****         /* Turn off LSI before changing RCC_CSR_LSIPREDIV */
 667:Drivers/STM32L4xx_HAL_Driver/Src/stm32l4xx_hal_rcc.c ****         if ((csr_temp & RCC_CSR_LSION) == RCC_CSR_LSION)
 668:Drivers/STM32L4xx_HAL_Driver/Src/stm32l4xx_hal_rcc.c ****         {
 669:Drivers/STM32L4xx_HAL_Driver/Src/stm32l4xx_hal_rcc.c ****           __HAL_RCC_LSI_DISABLE();
 670:Drivers/STM32L4xx_HAL_Driver/Src/stm32l4xx_hal_rcc.c **** 
 671:Drivers/STM32L4xx_HAL_Driver/Src/stm32l4xx_hal_rcc.c ****           /* Get Start Tick*/
 672:Drivers/STM32L4xx_HAL_Driver/Src/stm32l4xx_hal_rcc.c ****           tickstart = HAL_GetTick();
 673:Drivers/STM32L4xx_HAL_Driver/Src/stm32l4xx_hal_rcc.c **** 
 674:Drivers/STM32L4xx_HAL_Driver/Src/stm32l4xx_hal_rcc.c ****           /* Wait till LSI is disabled */
 675:Drivers/STM32L4xx_HAL_Driver/Src/stm32l4xx_hal_rcc.c ****           while(READ_BIT(RCC->CSR, RCC_CSR_LSIRDY) != 0U)
 676:Drivers/STM32L4xx_HAL_Driver/Src/stm32l4xx_hal_rcc.c ****           {
 677:Drivers/STM32L4xx_HAL_Driver/Src/stm32l4xx_hal_rcc.c ****             if((HAL_GetTick() - tickstart) > LSI_TIMEOUT_VALUE)
 678:Drivers/STM32L4xx_HAL_Driver/Src/stm32l4xx_hal_rcc.c ****             {
 679:Drivers/STM32L4xx_HAL_Driver/Src/stm32l4xx_hal_rcc.c ****               return HAL_TIMEOUT;
 680:Drivers/STM32L4xx_HAL_Driver/Src/stm32l4xx_hal_rcc.c ****             }
 681:Drivers/STM32L4xx_HAL_Driver/Src/stm32l4xx_hal_rcc.c ****           }
 682:Drivers/STM32L4xx_HAL_Driver/Src/stm32l4xx_hal_rcc.c ****         }
 683:Drivers/STM32L4xx_HAL_Driver/Src/stm32l4xx_hal_rcc.c **** 
 684:Drivers/STM32L4xx_HAL_Driver/Src/stm32l4xx_hal_rcc.c ****         /* Set LSI division factor */
 685:Drivers/STM32L4xx_HAL_Driver/Src/stm32l4xx_hal_rcc.c ****         MODIFY_REG(RCC->CSR, RCC_CSR_LSIPREDIV, RCC_OscInitStruct->LSIDiv);
 686:Drivers/STM32L4xx_HAL_Driver/Src/stm32l4xx_hal_rcc.c ****       }
 687:Drivers/STM32L4xx_HAL_Driver/Src/stm32l4xx_hal_rcc.c **** #endif /* RCC_CSR_LSIPREDIV */
 688:Drivers/STM32L4xx_HAL_Driver/Src/stm32l4xx_hal_rcc.c **** 
 689:Drivers/STM32L4xx_HAL_Driver/Src/stm32l4xx_hal_rcc.c ****       /* Enable the Internal Low Speed oscillator (LSI). */
 690:Drivers/STM32L4xx_HAL_Driver/Src/stm32l4xx_hal_rcc.c ****       __HAL_RCC_LSI_ENABLE();
 691:Drivers/STM32L4xx_HAL_Driver/Src/stm32l4xx_hal_rcc.c **** 
 692:Drivers/STM32L4xx_HAL_Driver/Src/stm32l4xx_hal_rcc.c ****       /* Get Start Tick*/
 693:Drivers/STM32L4xx_HAL_Driver/Src/stm32l4xx_hal_rcc.c ****       tickstart = HAL_GetTick();
 694:Drivers/STM32L4xx_HAL_Driver/Src/stm32l4xx_hal_rcc.c **** 
 695:Drivers/STM32L4xx_HAL_Driver/Src/stm32l4xx_hal_rcc.c ****       /* Wait till LSI is ready */
 696:Drivers/STM32L4xx_HAL_Driver/Src/stm32l4xx_hal_rcc.c ****       while(READ_BIT(RCC->CSR, RCC_CSR_LSIRDY) == 0U)
 697:Drivers/STM32L4xx_HAL_Driver/Src/stm32l4xx_hal_rcc.c ****       {
 698:Drivers/STM32L4xx_HAL_Driver/Src/stm32l4xx_hal_rcc.c ****         if((HAL_GetTick() - tickstart) > LSI_TIMEOUT_VALUE)
 699:Drivers/STM32L4xx_HAL_Driver/Src/stm32l4xx_hal_rcc.c ****         {
 700:Drivers/STM32L4xx_HAL_Driver/Src/stm32l4xx_hal_rcc.c ****           return HAL_TIMEOUT;
 701:Drivers/STM32L4xx_HAL_Driver/Src/stm32l4xx_hal_rcc.c ****         }
 702:Drivers/STM32L4xx_HAL_Driver/Src/stm32l4xx_hal_rcc.c ****       }
 703:Drivers/STM32L4xx_HAL_Driver/Src/stm32l4xx_hal_rcc.c ****     }
 704:Drivers/STM32L4xx_HAL_Driver/Src/stm32l4xx_hal_rcc.c ****     else
 705:Drivers/STM32L4xx_HAL_Driver/Src/stm32l4xx_hal_rcc.c ****     {
 706:Drivers/STM32L4xx_HAL_Driver/Src/stm32l4xx_hal_rcc.c ****       /* Disable the Internal Low Speed oscillator (LSI). */
 707:Drivers/STM32L4xx_HAL_Driver/Src/stm32l4xx_hal_rcc.c ****       __HAL_RCC_LSI_DISABLE();
 708:Drivers/STM32L4xx_HAL_Driver/Src/stm32l4xx_hal_rcc.c **** 
 709:Drivers/STM32L4xx_HAL_Driver/Src/stm32l4xx_hal_rcc.c ****       /* Get Start Tick*/
 710:Drivers/STM32L4xx_HAL_Driver/Src/stm32l4xx_hal_rcc.c ****       tickstart = HAL_GetTick();
 711:Drivers/STM32L4xx_HAL_Driver/Src/stm32l4xx_hal_rcc.c **** 
 712:Drivers/STM32L4xx_HAL_Driver/Src/stm32l4xx_hal_rcc.c ****       /* Wait till LSI is disabled */
 713:Drivers/STM32L4xx_HAL_Driver/Src/stm32l4xx_hal_rcc.c ****       while(READ_BIT(RCC->CSR, RCC_CSR_LSIRDY) != 0U)
 714:Drivers/STM32L4xx_HAL_Driver/Src/stm32l4xx_hal_rcc.c ****       {
 715:Drivers/STM32L4xx_HAL_Driver/Src/stm32l4xx_hal_rcc.c ****         if((HAL_GetTick() - tickstart) > LSI_TIMEOUT_VALUE)
 716:Drivers/STM32L4xx_HAL_Driver/Src/stm32l4xx_hal_rcc.c ****         {
 717:Drivers/STM32L4xx_HAL_Driver/Src/stm32l4xx_hal_rcc.c ****           return HAL_TIMEOUT;
 718:Drivers/STM32L4xx_HAL_Driver/Src/stm32l4xx_hal_rcc.c ****         }
 719:Drivers/STM32L4xx_HAL_Driver/Src/stm32l4xx_hal_rcc.c ****       }
ARM GAS  /tmp/ccap8I6O.s 			page 18


 720:Drivers/STM32L4xx_HAL_Driver/Src/stm32l4xx_hal_rcc.c ****     }
 721:Drivers/STM32L4xx_HAL_Driver/Src/stm32l4xx_hal_rcc.c ****   }
 722:Drivers/STM32L4xx_HAL_Driver/Src/stm32l4xx_hal_rcc.c ****   /*------------------------------ LSE Configuration -------------------------*/
 723:Drivers/STM32L4xx_HAL_Driver/Src/stm32l4xx_hal_rcc.c ****   if(((RCC_OscInitStruct->OscillatorType) & RCC_OSCILLATORTYPE_LSE) == RCC_OSCILLATORTYPE_LSE)
 724:Drivers/STM32L4xx_HAL_Driver/Src/stm32l4xx_hal_rcc.c ****   {
 725:Drivers/STM32L4xx_HAL_Driver/Src/stm32l4xx_hal_rcc.c ****     FlagStatus       pwrclkchanged = RESET;
 726:Drivers/STM32L4xx_HAL_Driver/Src/stm32l4xx_hal_rcc.c **** 
 727:Drivers/STM32L4xx_HAL_Driver/Src/stm32l4xx_hal_rcc.c ****     /* Check the parameters */
 728:Drivers/STM32L4xx_HAL_Driver/Src/stm32l4xx_hal_rcc.c ****     assert_param(IS_RCC_LSE(RCC_OscInitStruct->LSEState));
 729:Drivers/STM32L4xx_HAL_Driver/Src/stm32l4xx_hal_rcc.c **** 
 730:Drivers/STM32L4xx_HAL_Driver/Src/stm32l4xx_hal_rcc.c ****     /* Update LSE configuration in Backup Domain control register    */
 731:Drivers/STM32L4xx_HAL_Driver/Src/stm32l4xx_hal_rcc.c ****     /* Requires to enable write access to Backup Domain of necessary */
 732:Drivers/STM32L4xx_HAL_Driver/Src/stm32l4xx_hal_rcc.c ****     if(HAL_IS_BIT_CLR(RCC->APB1ENR1, RCC_APB1ENR1_PWREN))
 733:Drivers/STM32L4xx_HAL_Driver/Src/stm32l4xx_hal_rcc.c ****     {
 734:Drivers/STM32L4xx_HAL_Driver/Src/stm32l4xx_hal_rcc.c ****       __HAL_RCC_PWR_CLK_ENABLE();
 735:Drivers/STM32L4xx_HAL_Driver/Src/stm32l4xx_hal_rcc.c ****       pwrclkchanged = SET;
 736:Drivers/STM32L4xx_HAL_Driver/Src/stm32l4xx_hal_rcc.c ****     }
 737:Drivers/STM32L4xx_HAL_Driver/Src/stm32l4xx_hal_rcc.c **** 
 738:Drivers/STM32L4xx_HAL_Driver/Src/stm32l4xx_hal_rcc.c ****     if(HAL_IS_BIT_CLR(PWR->CR1, PWR_CR1_DBP))
 739:Drivers/STM32L4xx_HAL_Driver/Src/stm32l4xx_hal_rcc.c ****     {
 740:Drivers/STM32L4xx_HAL_Driver/Src/stm32l4xx_hal_rcc.c ****       /* Enable write access to Backup domain */
 741:Drivers/STM32L4xx_HAL_Driver/Src/stm32l4xx_hal_rcc.c ****       SET_BIT(PWR->CR1, PWR_CR1_DBP);
 742:Drivers/STM32L4xx_HAL_Driver/Src/stm32l4xx_hal_rcc.c **** 
 743:Drivers/STM32L4xx_HAL_Driver/Src/stm32l4xx_hal_rcc.c ****       /* Wait for Backup domain Write protection disable */
 744:Drivers/STM32L4xx_HAL_Driver/Src/stm32l4xx_hal_rcc.c ****       tickstart = HAL_GetTick();
 745:Drivers/STM32L4xx_HAL_Driver/Src/stm32l4xx_hal_rcc.c **** 
 746:Drivers/STM32L4xx_HAL_Driver/Src/stm32l4xx_hal_rcc.c ****       while(HAL_IS_BIT_CLR(PWR->CR1, PWR_CR1_DBP))
 747:Drivers/STM32L4xx_HAL_Driver/Src/stm32l4xx_hal_rcc.c ****       {
 748:Drivers/STM32L4xx_HAL_Driver/Src/stm32l4xx_hal_rcc.c ****         if((HAL_GetTick() - tickstart) > RCC_DBP_TIMEOUT_VALUE)
 749:Drivers/STM32L4xx_HAL_Driver/Src/stm32l4xx_hal_rcc.c ****         {
 750:Drivers/STM32L4xx_HAL_Driver/Src/stm32l4xx_hal_rcc.c ****           return HAL_TIMEOUT;
 751:Drivers/STM32L4xx_HAL_Driver/Src/stm32l4xx_hal_rcc.c ****         }
 752:Drivers/STM32L4xx_HAL_Driver/Src/stm32l4xx_hal_rcc.c ****       }
 753:Drivers/STM32L4xx_HAL_Driver/Src/stm32l4xx_hal_rcc.c ****     }
 754:Drivers/STM32L4xx_HAL_Driver/Src/stm32l4xx_hal_rcc.c **** 
 755:Drivers/STM32L4xx_HAL_Driver/Src/stm32l4xx_hal_rcc.c ****     /* Set the new LSE configuration -----------------------------------------*/
 756:Drivers/STM32L4xx_HAL_Driver/Src/stm32l4xx_hal_rcc.c **** #if defined(RCC_BDCR_LSESYSDIS)
 757:Drivers/STM32L4xx_HAL_Driver/Src/stm32l4xx_hal_rcc.c ****     if((RCC_OscInitStruct->LSEState & RCC_BDCR_LSEON) != 0U)
 758:Drivers/STM32L4xx_HAL_Driver/Src/stm32l4xx_hal_rcc.c ****     {
 759:Drivers/STM32L4xx_HAL_Driver/Src/stm32l4xx_hal_rcc.c ****       /* Set LSESYSDIS bit according to LSE propagation option (enabled or disabled) */
 760:Drivers/STM32L4xx_HAL_Driver/Src/stm32l4xx_hal_rcc.c ****       MODIFY_REG(RCC->BDCR, RCC_BDCR_LSESYSDIS, (RCC_OscInitStruct->LSEState & RCC_BDCR_LSESYSDIS))
 761:Drivers/STM32L4xx_HAL_Driver/Src/stm32l4xx_hal_rcc.c **** 
 762:Drivers/STM32L4xx_HAL_Driver/Src/stm32l4xx_hal_rcc.c ****       if((RCC_OscInitStruct->LSEState & RCC_BDCR_LSEBYP) != 0U)
 763:Drivers/STM32L4xx_HAL_Driver/Src/stm32l4xx_hal_rcc.c ****       {
 764:Drivers/STM32L4xx_HAL_Driver/Src/stm32l4xx_hal_rcc.c ****         /* LSE oscillator bypass enable */
 765:Drivers/STM32L4xx_HAL_Driver/Src/stm32l4xx_hal_rcc.c ****         SET_BIT(RCC->BDCR, RCC_BDCR_LSEBYP);
 766:Drivers/STM32L4xx_HAL_Driver/Src/stm32l4xx_hal_rcc.c ****         SET_BIT(RCC->BDCR, RCC_BDCR_LSEON);
 767:Drivers/STM32L4xx_HAL_Driver/Src/stm32l4xx_hal_rcc.c ****       }
 768:Drivers/STM32L4xx_HAL_Driver/Src/stm32l4xx_hal_rcc.c ****       else
 769:Drivers/STM32L4xx_HAL_Driver/Src/stm32l4xx_hal_rcc.c ****       {
 770:Drivers/STM32L4xx_HAL_Driver/Src/stm32l4xx_hal_rcc.c ****         /* LSE oscillator enable */
 771:Drivers/STM32L4xx_HAL_Driver/Src/stm32l4xx_hal_rcc.c ****         SET_BIT(RCC->BDCR, RCC_BDCR_LSEON);
 772:Drivers/STM32L4xx_HAL_Driver/Src/stm32l4xx_hal_rcc.c ****       }
 773:Drivers/STM32L4xx_HAL_Driver/Src/stm32l4xx_hal_rcc.c ****     }
 774:Drivers/STM32L4xx_HAL_Driver/Src/stm32l4xx_hal_rcc.c ****     else
 775:Drivers/STM32L4xx_HAL_Driver/Src/stm32l4xx_hal_rcc.c ****     {
 776:Drivers/STM32L4xx_HAL_Driver/Src/stm32l4xx_hal_rcc.c ****       CLEAR_BIT(RCC->BDCR, RCC_BDCR_LSEON);
ARM GAS  /tmp/ccap8I6O.s 			page 19


 777:Drivers/STM32L4xx_HAL_Driver/Src/stm32l4xx_hal_rcc.c ****       CLEAR_BIT(RCC->BDCR, RCC_BDCR_LSEBYP);
 778:Drivers/STM32L4xx_HAL_Driver/Src/stm32l4xx_hal_rcc.c ****     }
 779:Drivers/STM32L4xx_HAL_Driver/Src/stm32l4xx_hal_rcc.c **** #else
 780:Drivers/STM32L4xx_HAL_Driver/Src/stm32l4xx_hal_rcc.c ****     __HAL_RCC_LSE_CONFIG(RCC_OscInitStruct->LSEState);
 781:Drivers/STM32L4xx_HAL_Driver/Src/stm32l4xx_hal_rcc.c **** #endif /* RCC_BDCR_LSESYSDIS */
 782:Drivers/STM32L4xx_HAL_Driver/Src/stm32l4xx_hal_rcc.c **** 
 783:Drivers/STM32L4xx_HAL_Driver/Src/stm32l4xx_hal_rcc.c ****     /* Check the LSE State */
 784:Drivers/STM32L4xx_HAL_Driver/Src/stm32l4xx_hal_rcc.c ****     if(RCC_OscInitStruct->LSEState != RCC_LSE_OFF)
 785:Drivers/STM32L4xx_HAL_Driver/Src/stm32l4xx_hal_rcc.c ****     {
 786:Drivers/STM32L4xx_HAL_Driver/Src/stm32l4xx_hal_rcc.c ****       /* Get Start Tick*/
 787:Drivers/STM32L4xx_HAL_Driver/Src/stm32l4xx_hal_rcc.c ****       tickstart = HAL_GetTick();
 788:Drivers/STM32L4xx_HAL_Driver/Src/stm32l4xx_hal_rcc.c **** 
 789:Drivers/STM32L4xx_HAL_Driver/Src/stm32l4xx_hal_rcc.c ****       /* Wait till LSE is ready */
 790:Drivers/STM32L4xx_HAL_Driver/Src/stm32l4xx_hal_rcc.c ****       while(READ_BIT(RCC->BDCR, RCC_BDCR_LSERDY) == 0U)
 791:Drivers/STM32L4xx_HAL_Driver/Src/stm32l4xx_hal_rcc.c ****       {
 792:Drivers/STM32L4xx_HAL_Driver/Src/stm32l4xx_hal_rcc.c ****         if((HAL_GetTick() - tickstart) > RCC_LSE_TIMEOUT_VALUE)
 793:Drivers/STM32L4xx_HAL_Driver/Src/stm32l4xx_hal_rcc.c ****         {
 794:Drivers/STM32L4xx_HAL_Driver/Src/stm32l4xx_hal_rcc.c ****           return HAL_TIMEOUT;
 795:Drivers/STM32L4xx_HAL_Driver/Src/stm32l4xx_hal_rcc.c ****         }
 796:Drivers/STM32L4xx_HAL_Driver/Src/stm32l4xx_hal_rcc.c ****       }
 797:Drivers/STM32L4xx_HAL_Driver/Src/stm32l4xx_hal_rcc.c ****     }
 798:Drivers/STM32L4xx_HAL_Driver/Src/stm32l4xx_hal_rcc.c ****     else
 799:Drivers/STM32L4xx_HAL_Driver/Src/stm32l4xx_hal_rcc.c ****     {
 800:Drivers/STM32L4xx_HAL_Driver/Src/stm32l4xx_hal_rcc.c ****       /* Get Start Tick*/
 801:Drivers/STM32L4xx_HAL_Driver/Src/stm32l4xx_hal_rcc.c ****       tickstart = HAL_GetTick();
 802:Drivers/STM32L4xx_HAL_Driver/Src/stm32l4xx_hal_rcc.c **** 
 803:Drivers/STM32L4xx_HAL_Driver/Src/stm32l4xx_hal_rcc.c ****       /* Wait till LSE is disabled */
 804:Drivers/STM32L4xx_HAL_Driver/Src/stm32l4xx_hal_rcc.c ****       while(READ_BIT(RCC->BDCR, RCC_BDCR_LSERDY) != 0U)
 805:Drivers/STM32L4xx_HAL_Driver/Src/stm32l4xx_hal_rcc.c ****       {
 806:Drivers/STM32L4xx_HAL_Driver/Src/stm32l4xx_hal_rcc.c ****         if((HAL_GetTick() - tickstart) > RCC_LSE_TIMEOUT_VALUE)
 807:Drivers/STM32L4xx_HAL_Driver/Src/stm32l4xx_hal_rcc.c ****         {
 808:Drivers/STM32L4xx_HAL_Driver/Src/stm32l4xx_hal_rcc.c ****           return HAL_TIMEOUT;
 809:Drivers/STM32L4xx_HAL_Driver/Src/stm32l4xx_hal_rcc.c ****         }
 810:Drivers/STM32L4xx_HAL_Driver/Src/stm32l4xx_hal_rcc.c ****       }
 811:Drivers/STM32L4xx_HAL_Driver/Src/stm32l4xx_hal_rcc.c **** 
 812:Drivers/STM32L4xx_HAL_Driver/Src/stm32l4xx_hal_rcc.c **** #if defined(RCC_BDCR_LSESYSDIS)
 813:Drivers/STM32L4xx_HAL_Driver/Src/stm32l4xx_hal_rcc.c ****       /* By default, stop disabling LSE propagation */
 814:Drivers/STM32L4xx_HAL_Driver/Src/stm32l4xx_hal_rcc.c ****       CLEAR_BIT(RCC->BDCR, RCC_BDCR_LSESYSDIS);
 815:Drivers/STM32L4xx_HAL_Driver/Src/stm32l4xx_hal_rcc.c **** #endif /* RCC_BDCR_LSESYSDIS */
 816:Drivers/STM32L4xx_HAL_Driver/Src/stm32l4xx_hal_rcc.c ****     }
 817:Drivers/STM32L4xx_HAL_Driver/Src/stm32l4xx_hal_rcc.c **** 
 818:Drivers/STM32L4xx_HAL_Driver/Src/stm32l4xx_hal_rcc.c ****     /* Restore clock configuration if changed */
 819:Drivers/STM32L4xx_HAL_Driver/Src/stm32l4xx_hal_rcc.c ****     if(pwrclkchanged == SET)
 820:Drivers/STM32L4xx_HAL_Driver/Src/stm32l4xx_hal_rcc.c ****     {
 821:Drivers/STM32L4xx_HAL_Driver/Src/stm32l4xx_hal_rcc.c ****       __HAL_RCC_PWR_CLK_DISABLE();
 822:Drivers/STM32L4xx_HAL_Driver/Src/stm32l4xx_hal_rcc.c ****     }
 823:Drivers/STM32L4xx_HAL_Driver/Src/stm32l4xx_hal_rcc.c ****   }
 824:Drivers/STM32L4xx_HAL_Driver/Src/stm32l4xx_hal_rcc.c **** #if defined(RCC_HSI48_SUPPORT)
 825:Drivers/STM32L4xx_HAL_Driver/Src/stm32l4xx_hal_rcc.c ****   /*------------------------------ HSI48 Configuration -----------------------*/
 826:Drivers/STM32L4xx_HAL_Driver/Src/stm32l4xx_hal_rcc.c ****   if(((RCC_OscInitStruct->OscillatorType) & RCC_OSCILLATORTYPE_HSI48) == RCC_OSCILLATORTYPE_HSI48)
 827:Drivers/STM32L4xx_HAL_Driver/Src/stm32l4xx_hal_rcc.c ****   {
 828:Drivers/STM32L4xx_HAL_Driver/Src/stm32l4xx_hal_rcc.c ****     /* Check the parameters */
 829:Drivers/STM32L4xx_HAL_Driver/Src/stm32l4xx_hal_rcc.c ****     assert_param(IS_RCC_HSI48(RCC_OscInitStruct->HSI48State));
 830:Drivers/STM32L4xx_HAL_Driver/Src/stm32l4xx_hal_rcc.c **** 
 831:Drivers/STM32L4xx_HAL_Driver/Src/stm32l4xx_hal_rcc.c ****     /* Check the LSI State */
 832:Drivers/STM32L4xx_HAL_Driver/Src/stm32l4xx_hal_rcc.c ****     if(RCC_OscInitStruct->HSI48State != RCC_HSI48_OFF)
 833:Drivers/STM32L4xx_HAL_Driver/Src/stm32l4xx_hal_rcc.c ****     {
ARM GAS  /tmp/ccap8I6O.s 			page 20


 834:Drivers/STM32L4xx_HAL_Driver/Src/stm32l4xx_hal_rcc.c ****       /* Enable the Internal Low Speed oscillator (HSI48). */
 835:Drivers/STM32L4xx_HAL_Driver/Src/stm32l4xx_hal_rcc.c ****       __HAL_RCC_HSI48_ENABLE();
 836:Drivers/STM32L4xx_HAL_Driver/Src/stm32l4xx_hal_rcc.c **** 
 837:Drivers/STM32L4xx_HAL_Driver/Src/stm32l4xx_hal_rcc.c ****       /* Get Start Tick*/
 838:Drivers/STM32L4xx_HAL_Driver/Src/stm32l4xx_hal_rcc.c ****       tickstart = HAL_GetTick();
 839:Drivers/STM32L4xx_HAL_Driver/Src/stm32l4xx_hal_rcc.c **** 
 840:Drivers/STM32L4xx_HAL_Driver/Src/stm32l4xx_hal_rcc.c ****       /* Wait till HSI48 is ready */
 841:Drivers/STM32L4xx_HAL_Driver/Src/stm32l4xx_hal_rcc.c ****       while(READ_BIT(RCC->CRRCR, RCC_CRRCR_HSI48RDY) == 0U)
 842:Drivers/STM32L4xx_HAL_Driver/Src/stm32l4xx_hal_rcc.c ****       {
 843:Drivers/STM32L4xx_HAL_Driver/Src/stm32l4xx_hal_rcc.c ****         if((HAL_GetTick() - tickstart) > HSI48_TIMEOUT_VALUE)
 844:Drivers/STM32L4xx_HAL_Driver/Src/stm32l4xx_hal_rcc.c ****         {
 845:Drivers/STM32L4xx_HAL_Driver/Src/stm32l4xx_hal_rcc.c ****           return HAL_TIMEOUT;
 846:Drivers/STM32L4xx_HAL_Driver/Src/stm32l4xx_hal_rcc.c ****         }
 847:Drivers/STM32L4xx_HAL_Driver/Src/stm32l4xx_hal_rcc.c ****       }
 848:Drivers/STM32L4xx_HAL_Driver/Src/stm32l4xx_hal_rcc.c ****     }
 849:Drivers/STM32L4xx_HAL_Driver/Src/stm32l4xx_hal_rcc.c ****     else
 850:Drivers/STM32L4xx_HAL_Driver/Src/stm32l4xx_hal_rcc.c ****     {
 851:Drivers/STM32L4xx_HAL_Driver/Src/stm32l4xx_hal_rcc.c ****       /* Disable the Internal Low Speed oscillator (HSI48). */
 852:Drivers/STM32L4xx_HAL_Driver/Src/stm32l4xx_hal_rcc.c ****       __HAL_RCC_HSI48_DISABLE();
 853:Drivers/STM32L4xx_HAL_Driver/Src/stm32l4xx_hal_rcc.c **** 
 854:Drivers/STM32L4xx_HAL_Driver/Src/stm32l4xx_hal_rcc.c ****       /* Get Start Tick*/
 855:Drivers/STM32L4xx_HAL_Driver/Src/stm32l4xx_hal_rcc.c ****       tickstart = HAL_GetTick();
 856:Drivers/STM32L4xx_HAL_Driver/Src/stm32l4xx_hal_rcc.c **** 
 857:Drivers/STM32L4xx_HAL_Driver/Src/stm32l4xx_hal_rcc.c ****       /* Wait till HSI48 is disabled */
 858:Drivers/STM32L4xx_HAL_Driver/Src/stm32l4xx_hal_rcc.c ****       while(READ_BIT(RCC->CRRCR, RCC_CRRCR_HSI48RDY) != 0U)
 859:Drivers/STM32L4xx_HAL_Driver/Src/stm32l4xx_hal_rcc.c ****       {
 860:Drivers/STM32L4xx_HAL_Driver/Src/stm32l4xx_hal_rcc.c ****         if((HAL_GetTick() - tickstart) > HSI48_TIMEOUT_VALUE)
 861:Drivers/STM32L4xx_HAL_Driver/Src/stm32l4xx_hal_rcc.c ****         {
 862:Drivers/STM32L4xx_HAL_Driver/Src/stm32l4xx_hal_rcc.c ****           return HAL_TIMEOUT;
 863:Drivers/STM32L4xx_HAL_Driver/Src/stm32l4xx_hal_rcc.c ****         }
 864:Drivers/STM32L4xx_HAL_Driver/Src/stm32l4xx_hal_rcc.c ****       }
 865:Drivers/STM32L4xx_HAL_Driver/Src/stm32l4xx_hal_rcc.c ****     }
 866:Drivers/STM32L4xx_HAL_Driver/Src/stm32l4xx_hal_rcc.c ****   }
 867:Drivers/STM32L4xx_HAL_Driver/Src/stm32l4xx_hal_rcc.c **** #endif /* RCC_HSI48_SUPPORT */
 868:Drivers/STM32L4xx_HAL_Driver/Src/stm32l4xx_hal_rcc.c ****   /*-------------------------------- PLL Configuration -----------------------*/
 869:Drivers/STM32L4xx_HAL_Driver/Src/stm32l4xx_hal_rcc.c ****   /* Check the parameters */
 870:Drivers/STM32L4xx_HAL_Driver/Src/stm32l4xx_hal_rcc.c ****   assert_param(IS_RCC_PLL(RCC_OscInitStruct->PLL.PLLState));
 871:Drivers/STM32L4xx_HAL_Driver/Src/stm32l4xx_hal_rcc.c **** 
 872:Drivers/STM32L4xx_HAL_Driver/Src/stm32l4xx_hal_rcc.c ****   if(RCC_OscInitStruct->PLL.PLLState != RCC_PLL_NONE)
 873:Drivers/STM32L4xx_HAL_Driver/Src/stm32l4xx_hal_rcc.c ****   {
 874:Drivers/STM32L4xx_HAL_Driver/Src/stm32l4xx_hal_rcc.c ****     /* Check if the PLL is used as system clock or not */
 875:Drivers/STM32L4xx_HAL_Driver/Src/stm32l4xx_hal_rcc.c ****     if(sysclk_source != RCC_CFGR_SWS_PLL)
 876:Drivers/STM32L4xx_HAL_Driver/Src/stm32l4xx_hal_rcc.c ****     {
 877:Drivers/STM32L4xx_HAL_Driver/Src/stm32l4xx_hal_rcc.c ****       if(RCC_OscInitStruct->PLL.PLLState == RCC_PLL_ON)
 878:Drivers/STM32L4xx_HAL_Driver/Src/stm32l4xx_hal_rcc.c ****       {
 879:Drivers/STM32L4xx_HAL_Driver/Src/stm32l4xx_hal_rcc.c ****         /* Check the parameters */
 880:Drivers/STM32L4xx_HAL_Driver/Src/stm32l4xx_hal_rcc.c ****         assert_param(IS_RCC_PLLSOURCE(RCC_OscInitStruct->PLL.PLLSource));
 881:Drivers/STM32L4xx_HAL_Driver/Src/stm32l4xx_hal_rcc.c ****         assert_param(IS_RCC_PLLM_VALUE(RCC_OscInitStruct->PLL.PLLM));
 882:Drivers/STM32L4xx_HAL_Driver/Src/stm32l4xx_hal_rcc.c ****         assert_param(IS_RCC_PLLN_VALUE(RCC_OscInitStruct->PLL.PLLN));
 883:Drivers/STM32L4xx_HAL_Driver/Src/stm32l4xx_hal_rcc.c **** #if defined(RCC_PLLP_SUPPORT)
 884:Drivers/STM32L4xx_HAL_Driver/Src/stm32l4xx_hal_rcc.c ****         assert_param(IS_RCC_PLLP_VALUE(RCC_OscInitStruct->PLL.PLLP));
 885:Drivers/STM32L4xx_HAL_Driver/Src/stm32l4xx_hal_rcc.c **** #endif /* RCC_PLLP_SUPPORT */
 886:Drivers/STM32L4xx_HAL_Driver/Src/stm32l4xx_hal_rcc.c ****         assert_param(IS_RCC_PLLQ_VALUE(RCC_OscInitStruct->PLL.PLLQ));
 887:Drivers/STM32L4xx_HAL_Driver/Src/stm32l4xx_hal_rcc.c ****         assert_param(IS_RCC_PLLR_VALUE(RCC_OscInitStruct->PLL.PLLR));
 888:Drivers/STM32L4xx_HAL_Driver/Src/stm32l4xx_hal_rcc.c **** 
 889:Drivers/STM32L4xx_HAL_Driver/Src/stm32l4xx_hal_rcc.c ****         /* Disable the main PLL. */
 890:Drivers/STM32L4xx_HAL_Driver/Src/stm32l4xx_hal_rcc.c ****         __HAL_RCC_PLL_DISABLE();
ARM GAS  /tmp/ccap8I6O.s 			page 21


 891:Drivers/STM32L4xx_HAL_Driver/Src/stm32l4xx_hal_rcc.c **** 
 892:Drivers/STM32L4xx_HAL_Driver/Src/stm32l4xx_hal_rcc.c ****         /* Get Start Tick*/
 893:Drivers/STM32L4xx_HAL_Driver/Src/stm32l4xx_hal_rcc.c ****         tickstart = HAL_GetTick();
 894:Drivers/STM32L4xx_HAL_Driver/Src/stm32l4xx_hal_rcc.c **** 
 895:Drivers/STM32L4xx_HAL_Driver/Src/stm32l4xx_hal_rcc.c ****         /* Wait till PLL is ready */
 896:Drivers/STM32L4xx_HAL_Driver/Src/stm32l4xx_hal_rcc.c ****         while(READ_BIT(RCC->CR, RCC_CR_PLLRDY) != 0U)
 897:Drivers/STM32L4xx_HAL_Driver/Src/stm32l4xx_hal_rcc.c ****         {
 898:Drivers/STM32L4xx_HAL_Driver/Src/stm32l4xx_hal_rcc.c ****           if((HAL_GetTick() - tickstart) > PLL_TIMEOUT_VALUE)
 899:Drivers/STM32L4xx_HAL_Driver/Src/stm32l4xx_hal_rcc.c ****           {
 900:Drivers/STM32L4xx_HAL_Driver/Src/stm32l4xx_hal_rcc.c ****             return HAL_TIMEOUT;
 901:Drivers/STM32L4xx_HAL_Driver/Src/stm32l4xx_hal_rcc.c ****           }
 902:Drivers/STM32L4xx_HAL_Driver/Src/stm32l4xx_hal_rcc.c ****         }
 903:Drivers/STM32L4xx_HAL_Driver/Src/stm32l4xx_hal_rcc.c **** 
 904:Drivers/STM32L4xx_HAL_Driver/Src/stm32l4xx_hal_rcc.c ****         /* Configure the main PLL clock source, multiplication and division factors. */
 905:Drivers/STM32L4xx_HAL_Driver/Src/stm32l4xx_hal_rcc.c ****         __HAL_RCC_PLL_CONFIG(RCC_OscInitStruct->PLL.PLLSource,
 906:Drivers/STM32L4xx_HAL_Driver/Src/stm32l4xx_hal_rcc.c ****                              RCC_OscInitStruct->PLL.PLLM,
 907:Drivers/STM32L4xx_HAL_Driver/Src/stm32l4xx_hal_rcc.c ****                              RCC_OscInitStruct->PLL.PLLN,
 908:Drivers/STM32L4xx_HAL_Driver/Src/stm32l4xx_hal_rcc.c **** #if defined(RCC_PLLP_SUPPORT)
 909:Drivers/STM32L4xx_HAL_Driver/Src/stm32l4xx_hal_rcc.c ****                              RCC_OscInitStruct->PLL.PLLP,
 910:Drivers/STM32L4xx_HAL_Driver/Src/stm32l4xx_hal_rcc.c **** #endif
 911:Drivers/STM32L4xx_HAL_Driver/Src/stm32l4xx_hal_rcc.c ****                              RCC_OscInitStruct->PLL.PLLQ,
 912:Drivers/STM32L4xx_HAL_Driver/Src/stm32l4xx_hal_rcc.c ****                              RCC_OscInitStruct->PLL.PLLR);
 913:Drivers/STM32L4xx_HAL_Driver/Src/stm32l4xx_hal_rcc.c **** 
 914:Drivers/STM32L4xx_HAL_Driver/Src/stm32l4xx_hal_rcc.c ****         /* Enable the main PLL. */
 915:Drivers/STM32L4xx_HAL_Driver/Src/stm32l4xx_hal_rcc.c ****         __HAL_RCC_PLL_ENABLE();
 916:Drivers/STM32L4xx_HAL_Driver/Src/stm32l4xx_hal_rcc.c **** 
 917:Drivers/STM32L4xx_HAL_Driver/Src/stm32l4xx_hal_rcc.c ****         /* Enable PLL System Clock output. */
 918:Drivers/STM32L4xx_HAL_Driver/Src/stm32l4xx_hal_rcc.c ****         __HAL_RCC_PLLCLKOUT_ENABLE(RCC_PLL_SYSCLK);
 919:Drivers/STM32L4xx_HAL_Driver/Src/stm32l4xx_hal_rcc.c **** 
 920:Drivers/STM32L4xx_HAL_Driver/Src/stm32l4xx_hal_rcc.c ****         /* Get Start Tick*/
 921:Drivers/STM32L4xx_HAL_Driver/Src/stm32l4xx_hal_rcc.c ****         tickstart = HAL_GetTick();
 922:Drivers/STM32L4xx_HAL_Driver/Src/stm32l4xx_hal_rcc.c **** 
 923:Drivers/STM32L4xx_HAL_Driver/Src/stm32l4xx_hal_rcc.c ****         /* Wait till PLL is ready */
 924:Drivers/STM32L4xx_HAL_Driver/Src/stm32l4xx_hal_rcc.c ****         while(READ_BIT(RCC->CR, RCC_CR_PLLRDY) == 0U)
 925:Drivers/STM32L4xx_HAL_Driver/Src/stm32l4xx_hal_rcc.c ****         {
 926:Drivers/STM32L4xx_HAL_Driver/Src/stm32l4xx_hal_rcc.c ****           if((HAL_GetTick() - tickstart) > PLL_TIMEOUT_VALUE)
 927:Drivers/STM32L4xx_HAL_Driver/Src/stm32l4xx_hal_rcc.c ****           {
 928:Drivers/STM32L4xx_HAL_Driver/Src/stm32l4xx_hal_rcc.c ****             return HAL_TIMEOUT;
 929:Drivers/STM32L4xx_HAL_Driver/Src/stm32l4xx_hal_rcc.c ****           }
 930:Drivers/STM32L4xx_HAL_Driver/Src/stm32l4xx_hal_rcc.c ****         }
 931:Drivers/STM32L4xx_HAL_Driver/Src/stm32l4xx_hal_rcc.c ****       }
 932:Drivers/STM32L4xx_HAL_Driver/Src/stm32l4xx_hal_rcc.c ****       else
 933:Drivers/STM32L4xx_HAL_Driver/Src/stm32l4xx_hal_rcc.c ****       {
 934:Drivers/STM32L4xx_HAL_Driver/Src/stm32l4xx_hal_rcc.c ****         /* Disable the main PLL. */
 935:Drivers/STM32L4xx_HAL_Driver/Src/stm32l4xx_hal_rcc.c ****         __HAL_RCC_PLL_DISABLE();
 936:Drivers/STM32L4xx_HAL_Driver/Src/stm32l4xx_hal_rcc.c **** 
 937:Drivers/STM32L4xx_HAL_Driver/Src/stm32l4xx_hal_rcc.c ****         /* Disable all PLL outputs to save power if no PLLs on */
 938:Drivers/STM32L4xx_HAL_Driver/Src/stm32l4xx_hal_rcc.c **** #if defined(RCC_PLLSAI1_SUPPORT) && defined(RCC_CR_PLLSAI2RDY)
 939:Drivers/STM32L4xx_HAL_Driver/Src/stm32l4xx_hal_rcc.c ****         if(READ_BIT(RCC->CR, (RCC_CR_PLLSAI1RDY | RCC_CR_PLLSAI2RDY)) == 0U)
 940:Drivers/STM32L4xx_HAL_Driver/Src/stm32l4xx_hal_rcc.c ****         {
 941:Drivers/STM32L4xx_HAL_Driver/Src/stm32l4xx_hal_rcc.c ****           MODIFY_REG(RCC->PLLCFGR, RCC_PLLCFGR_PLLSRC, RCC_PLLSOURCE_NONE);
 942:Drivers/STM32L4xx_HAL_Driver/Src/stm32l4xx_hal_rcc.c ****         }
 943:Drivers/STM32L4xx_HAL_Driver/Src/stm32l4xx_hal_rcc.c **** #elif defined(RCC_PLLSAI1_SUPPORT)
 944:Drivers/STM32L4xx_HAL_Driver/Src/stm32l4xx_hal_rcc.c ****         if(READ_BIT(RCC->CR, RCC_CR_PLLSAI1RDY) == 0U)
 945:Drivers/STM32L4xx_HAL_Driver/Src/stm32l4xx_hal_rcc.c ****         {
 946:Drivers/STM32L4xx_HAL_Driver/Src/stm32l4xx_hal_rcc.c ****           MODIFY_REG(RCC->PLLCFGR, RCC_PLLCFGR_PLLSRC, RCC_PLLSOURCE_NONE);
 947:Drivers/STM32L4xx_HAL_Driver/Src/stm32l4xx_hal_rcc.c ****         }
ARM GAS  /tmp/ccap8I6O.s 			page 22


 948:Drivers/STM32L4xx_HAL_Driver/Src/stm32l4xx_hal_rcc.c **** #else
 949:Drivers/STM32L4xx_HAL_Driver/Src/stm32l4xx_hal_rcc.c ****         MODIFY_REG(RCC->PLLCFGR, RCC_PLLCFGR_PLLSRC, RCC_PLLSOURCE_NONE);
 950:Drivers/STM32L4xx_HAL_Driver/Src/stm32l4xx_hal_rcc.c **** #endif /* RCC_PLLSAI1_SUPPORT && RCC_CR_PLLSAI2RDY */
 951:Drivers/STM32L4xx_HAL_Driver/Src/stm32l4xx_hal_rcc.c **** 
 952:Drivers/STM32L4xx_HAL_Driver/Src/stm32l4xx_hal_rcc.c **** #if defined(RCC_PLLSAI2_SUPPORT)
 953:Drivers/STM32L4xx_HAL_Driver/Src/stm32l4xx_hal_rcc.c ****         __HAL_RCC_PLLCLKOUT_DISABLE(RCC_PLL_SYSCLK | RCC_PLL_48M1CLK | RCC_PLL_SAI3CLK);
 954:Drivers/STM32L4xx_HAL_Driver/Src/stm32l4xx_hal_rcc.c **** #elif defined(RCC_PLLSAI1_SUPPORT)
 955:Drivers/STM32L4xx_HAL_Driver/Src/stm32l4xx_hal_rcc.c ****         __HAL_RCC_PLLCLKOUT_DISABLE(RCC_PLL_SYSCLK | RCC_PLL_48M1CLK | RCC_PLL_SAI2CLK);
 956:Drivers/STM32L4xx_HAL_Driver/Src/stm32l4xx_hal_rcc.c **** #else
 957:Drivers/STM32L4xx_HAL_Driver/Src/stm32l4xx_hal_rcc.c ****         __HAL_RCC_PLLCLKOUT_DISABLE(RCC_PLL_SYSCLK | RCC_PLL_48M1CLK);
 958:Drivers/STM32L4xx_HAL_Driver/Src/stm32l4xx_hal_rcc.c **** #endif /* RCC_PLLSAI2_SUPPORT */
 959:Drivers/STM32L4xx_HAL_Driver/Src/stm32l4xx_hal_rcc.c **** 
 960:Drivers/STM32L4xx_HAL_Driver/Src/stm32l4xx_hal_rcc.c ****         /* Get Start Tick*/
 961:Drivers/STM32L4xx_HAL_Driver/Src/stm32l4xx_hal_rcc.c ****         tickstart = HAL_GetTick();
 962:Drivers/STM32L4xx_HAL_Driver/Src/stm32l4xx_hal_rcc.c **** 
 963:Drivers/STM32L4xx_HAL_Driver/Src/stm32l4xx_hal_rcc.c ****         /* Wait till PLL is disabled */
 964:Drivers/STM32L4xx_HAL_Driver/Src/stm32l4xx_hal_rcc.c ****         while(READ_BIT(RCC->CR, RCC_CR_PLLRDY) != 0U)
 965:Drivers/STM32L4xx_HAL_Driver/Src/stm32l4xx_hal_rcc.c ****         {
 966:Drivers/STM32L4xx_HAL_Driver/Src/stm32l4xx_hal_rcc.c ****           if((HAL_GetTick() - tickstart) > PLL_TIMEOUT_VALUE)
 967:Drivers/STM32L4xx_HAL_Driver/Src/stm32l4xx_hal_rcc.c ****           {
 968:Drivers/STM32L4xx_HAL_Driver/Src/stm32l4xx_hal_rcc.c ****             return HAL_TIMEOUT;
 969:Drivers/STM32L4xx_HAL_Driver/Src/stm32l4xx_hal_rcc.c ****           }
 970:Drivers/STM32L4xx_HAL_Driver/Src/stm32l4xx_hal_rcc.c ****         }
 971:Drivers/STM32L4xx_HAL_Driver/Src/stm32l4xx_hal_rcc.c ****       }
 972:Drivers/STM32L4xx_HAL_Driver/Src/stm32l4xx_hal_rcc.c ****     }
 973:Drivers/STM32L4xx_HAL_Driver/Src/stm32l4xx_hal_rcc.c ****     else
 974:Drivers/STM32L4xx_HAL_Driver/Src/stm32l4xx_hal_rcc.c ****     {
 975:Drivers/STM32L4xx_HAL_Driver/Src/stm32l4xx_hal_rcc.c ****       /* Check if there is a request to disable the PLL used as System clock source */
 976:Drivers/STM32L4xx_HAL_Driver/Src/stm32l4xx_hal_rcc.c ****       if((RCC_OscInitStruct->PLL.PLLState) == RCC_PLL_OFF)
 977:Drivers/STM32L4xx_HAL_Driver/Src/stm32l4xx_hal_rcc.c ****       {
 978:Drivers/STM32L4xx_HAL_Driver/Src/stm32l4xx_hal_rcc.c ****         return HAL_ERROR;
 979:Drivers/STM32L4xx_HAL_Driver/Src/stm32l4xx_hal_rcc.c ****       }
 980:Drivers/STM32L4xx_HAL_Driver/Src/stm32l4xx_hal_rcc.c ****       else
 981:Drivers/STM32L4xx_HAL_Driver/Src/stm32l4xx_hal_rcc.c ****       {
 982:Drivers/STM32L4xx_HAL_Driver/Src/stm32l4xx_hal_rcc.c ****         pll_config = RCC->PLLCFGR;
 983:Drivers/STM32L4xx_HAL_Driver/Src/stm32l4xx_hal_rcc.c ****         /* Do not return HAL_ERROR if request repeats the current configuration */
 984:Drivers/STM32L4xx_HAL_Driver/Src/stm32l4xx_hal_rcc.c ****         if((READ_BIT(pll_config, RCC_PLLCFGR_PLLSRC)  != RCC_OscInitStruct->PLL.PLLSource) ||
 985:Drivers/STM32L4xx_HAL_Driver/Src/stm32l4xx_hal_rcc.c ****            (READ_BIT(pll_config, RCC_PLLCFGR_PLLM)    != ((RCC_OscInitStruct->PLL.PLLM - 1U) << RCC
 986:Drivers/STM32L4xx_HAL_Driver/Src/stm32l4xx_hal_rcc.c ****            (READ_BIT(pll_config, RCC_PLLCFGR_PLLN)    != (RCC_OscInitStruct->PLL.PLLN << RCC_PLLCFG
 987:Drivers/STM32L4xx_HAL_Driver/Src/stm32l4xx_hal_rcc.c **** #if defined(RCC_PLLP_SUPPORT)
 988:Drivers/STM32L4xx_HAL_Driver/Src/stm32l4xx_hal_rcc.c **** #if defined(RCC_PLLP_DIV_2_31_SUPPORT)
 989:Drivers/STM32L4xx_HAL_Driver/Src/stm32l4xx_hal_rcc.c ****            (READ_BIT(pll_config, RCC_PLLCFGR_PLLPDIV) != (RCC_OscInitStruct->PLL.PLLP << RCC_PLLCFG
 990:Drivers/STM32L4xx_HAL_Driver/Src/stm32l4xx_hal_rcc.c **** #else
 991:Drivers/STM32L4xx_HAL_Driver/Src/stm32l4xx_hal_rcc.c ****            (READ_BIT(pll_config, RCC_PLLCFGR_PLLP)    != ((RCC_OscInitStruct->PLL.PLLP == RCC_PLLP_
 992:Drivers/STM32L4xx_HAL_Driver/Src/stm32l4xx_hal_rcc.c **** #endif
 993:Drivers/STM32L4xx_HAL_Driver/Src/stm32l4xx_hal_rcc.c **** #endif
 994:Drivers/STM32L4xx_HAL_Driver/Src/stm32l4xx_hal_rcc.c ****            (READ_BIT(pll_config, RCC_PLLCFGR_PLLQ)    != ((((RCC_OscInitStruct->PLL.PLLQ) >> 1U) - 
 995:Drivers/STM32L4xx_HAL_Driver/Src/stm32l4xx_hal_rcc.c ****            (READ_BIT(pll_config, RCC_PLLCFGR_PLLR)    != ((((RCC_OscInitStruct->PLL.PLLR) >> 1U) - 
 996:Drivers/STM32L4xx_HAL_Driver/Src/stm32l4xx_hal_rcc.c ****         {
 997:Drivers/STM32L4xx_HAL_Driver/Src/stm32l4xx_hal_rcc.c ****           return HAL_ERROR;
 998:Drivers/STM32L4xx_HAL_Driver/Src/stm32l4xx_hal_rcc.c ****         }
 999:Drivers/STM32L4xx_HAL_Driver/Src/stm32l4xx_hal_rcc.c ****       }
1000:Drivers/STM32L4xx_HAL_Driver/Src/stm32l4xx_hal_rcc.c ****     }
1001:Drivers/STM32L4xx_HAL_Driver/Src/stm32l4xx_hal_rcc.c ****   }
1002:Drivers/STM32L4xx_HAL_Driver/Src/stm32l4xx_hal_rcc.c ****   return HAL_OK;
1003:Drivers/STM32L4xx_HAL_Driver/Src/stm32l4xx_hal_rcc.c **** }
1004:Drivers/STM32L4xx_HAL_Driver/Src/stm32l4xx_hal_rcc.c **** 
ARM GAS  /tmp/ccap8I6O.s 			page 23


1005:Drivers/STM32L4xx_HAL_Driver/Src/stm32l4xx_hal_rcc.c **** /**
1006:Drivers/STM32L4xx_HAL_Driver/Src/stm32l4xx_hal_rcc.c ****   * @brief  Initialize the CPU, AHB and APB busses clocks according to the specified
1007:Drivers/STM32L4xx_HAL_Driver/Src/stm32l4xx_hal_rcc.c ****   *         parameters in the RCC_ClkInitStruct.
1008:Drivers/STM32L4xx_HAL_Driver/Src/stm32l4xx_hal_rcc.c ****   * @param  RCC_ClkInitStruct  pointer to an RCC_OscInitTypeDef structure that
1009:Drivers/STM32L4xx_HAL_Driver/Src/stm32l4xx_hal_rcc.c ****   *         contains the configuration information for the RCC peripheral.
1010:Drivers/STM32L4xx_HAL_Driver/Src/stm32l4xx_hal_rcc.c ****   * @param  FLatency  FLASH Latency
1011:Drivers/STM32L4xx_HAL_Driver/Src/stm32l4xx_hal_rcc.c ****   *          This parameter can be one of the following values:
1012:Drivers/STM32L4xx_HAL_Driver/Src/stm32l4xx_hal_rcc.c ****   *            @arg FLASH_LATENCY_0   FLASH 0 Latency cycle
1013:Drivers/STM32L4xx_HAL_Driver/Src/stm32l4xx_hal_rcc.c ****   *            @arg FLASH_LATENCY_1   FLASH 1 Latency cycle
1014:Drivers/STM32L4xx_HAL_Driver/Src/stm32l4xx_hal_rcc.c ****   *            @arg FLASH_LATENCY_2   FLASH 2 Latency cycles
1015:Drivers/STM32L4xx_HAL_Driver/Src/stm32l4xx_hal_rcc.c ****   *            @arg FLASH_LATENCY_3   FLASH 3 Latency cycles
1016:Drivers/STM32L4xx_HAL_Driver/Src/stm32l4xx_hal_rcc.c ****   *            @arg FLASH_LATENCY_4   FLASH 4 Latency cycles
1017:Drivers/STM32L4xx_HAL_Driver/Src/stm32l4xx_hal_rcc.c ****   @if STM32L4S9xx
1018:Drivers/STM32L4xx_HAL_Driver/Src/stm32l4xx_hal_rcc.c ****   *            @arg FLASH_LATENCY_5   FLASH 5 Latency cycles
1019:Drivers/STM32L4xx_HAL_Driver/Src/stm32l4xx_hal_rcc.c ****   *            @arg FLASH_LATENCY_6   FLASH 6 Latency cycles
1020:Drivers/STM32L4xx_HAL_Driver/Src/stm32l4xx_hal_rcc.c ****   *            @arg FLASH_LATENCY_7   FLASH 7 Latency cycles
1021:Drivers/STM32L4xx_HAL_Driver/Src/stm32l4xx_hal_rcc.c ****   *            @arg FLASH_LATENCY_8   FLASH 8 Latency cycles
1022:Drivers/STM32L4xx_HAL_Driver/Src/stm32l4xx_hal_rcc.c ****   *            @arg FLASH_LATENCY_9   FLASH 9 Latency cycles
1023:Drivers/STM32L4xx_HAL_Driver/Src/stm32l4xx_hal_rcc.c ****   *            @arg FLASH_LATENCY_10  FLASH 10 Latency cycles
1024:Drivers/STM32L4xx_HAL_Driver/Src/stm32l4xx_hal_rcc.c ****   *            @arg FLASH_LATENCY_11  FLASH 11 Latency cycles
1025:Drivers/STM32L4xx_HAL_Driver/Src/stm32l4xx_hal_rcc.c ****   *            @arg FLASH_LATENCY_12  FLASH 12 Latency cycles
1026:Drivers/STM32L4xx_HAL_Driver/Src/stm32l4xx_hal_rcc.c ****   *            @arg FLASH_LATENCY_13  FLASH 13 Latency cycles
1027:Drivers/STM32L4xx_HAL_Driver/Src/stm32l4xx_hal_rcc.c ****   *            @arg FLASH_LATENCY_14  FLASH 14 Latency cycles
1028:Drivers/STM32L4xx_HAL_Driver/Src/stm32l4xx_hal_rcc.c ****   *            @arg FLASH_LATENCY_15  FLASH 15 Latency cycles
1029:Drivers/STM32L4xx_HAL_Driver/Src/stm32l4xx_hal_rcc.c ****   @endif
1030:Drivers/STM32L4xx_HAL_Driver/Src/stm32l4xx_hal_rcc.c ****   *
1031:Drivers/STM32L4xx_HAL_Driver/Src/stm32l4xx_hal_rcc.c ****   * @note   The SystemCoreClock CMSIS variable is used to store System Clock Frequency
1032:Drivers/STM32L4xx_HAL_Driver/Src/stm32l4xx_hal_rcc.c ****   *         and updated by HAL_RCC_GetHCLKFreq() function called within this function
1033:Drivers/STM32L4xx_HAL_Driver/Src/stm32l4xx_hal_rcc.c ****   *
1034:Drivers/STM32L4xx_HAL_Driver/Src/stm32l4xx_hal_rcc.c ****   * @note   The MSI is used by default as system clock source after
1035:Drivers/STM32L4xx_HAL_Driver/Src/stm32l4xx_hal_rcc.c ****   *         startup from Reset, wake-up from STANDBY mode. After restart from Reset,
1036:Drivers/STM32L4xx_HAL_Driver/Src/stm32l4xx_hal_rcc.c ****   *         the MSI frequency is set to its default value 4 MHz.
1037:Drivers/STM32L4xx_HAL_Driver/Src/stm32l4xx_hal_rcc.c ****   *
1038:Drivers/STM32L4xx_HAL_Driver/Src/stm32l4xx_hal_rcc.c ****   * @note   The HSI can be selected as system clock source after
1039:Drivers/STM32L4xx_HAL_Driver/Src/stm32l4xx_hal_rcc.c ****   *         from STOP modes or in case of failure of the HSE used directly or indirectly
1040:Drivers/STM32L4xx_HAL_Driver/Src/stm32l4xx_hal_rcc.c ****   *         as system clock (if the Clock Security System CSS is enabled).
1041:Drivers/STM32L4xx_HAL_Driver/Src/stm32l4xx_hal_rcc.c ****   *
1042:Drivers/STM32L4xx_HAL_Driver/Src/stm32l4xx_hal_rcc.c ****   * @note   A switch from one clock source to another occurs only if the target
1043:Drivers/STM32L4xx_HAL_Driver/Src/stm32l4xx_hal_rcc.c ****   *         clock source is ready (clock stable after startup delay or PLL locked).
1044:Drivers/STM32L4xx_HAL_Driver/Src/stm32l4xx_hal_rcc.c ****   *         If a clock source which is not yet ready is selected, the switch will
1045:Drivers/STM32L4xx_HAL_Driver/Src/stm32l4xx_hal_rcc.c ****   *         occur when the clock source is ready.
1046:Drivers/STM32L4xx_HAL_Driver/Src/stm32l4xx_hal_rcc.c ****   *
1047:Drivers/STM32L4xx_HAL_Driver/Src/stm32l4xx_hal_rcc.c ****   * @note   You can use HAL_RCC_GetClockConfig() function to know which clock is
1048:Drivers/STM32L4xx_HAL_Driver/Src/stm32l4xx_hal_rcc.c ****   *         currently used as system clock source.
1049:Drivers/STM32L4xx_HAL_Driver/Src/stm32l4xx_hal_rcc.c ****   *
1050:Drivers/STM32L4xx_HAL_Driver/Src/stm32l4xx_hal_rcc.c ****   * @note   Depending on the device voltage range, the software has to set correctly
1051:Drivers/STM32L4xx_HAL_Driver/Src/stm32l4xx_hal_rcc.c ****   *         HPRE[3:0] bits to ensure that HCLK not exceed the maximum allowed frequency
1052:Drivers/STM32L4xx_HAL_Driver/Src/stm32l4xx_hal_rcc.c ****   *         (for more details refer to section above "Initialization/de-initialization functions")
1053:Drivers/STM32L4xx_HAL_Driver/Src/stm32l4xx_hal_rcc.c ****   * @retval None
1054:Drivers/STM32L4xx_HAL_Driver/Src/stm32l4xx_hal_rcc.c ****   */
1055:Drivers/STM32L4xx_HAL_Driver/Src/stm32l4xx_hal_rcc.c **** HAL_StatusTypeDef HAL_RCC_ClockConfig(RCC_ClkInitTypeDef  *RCC_ClkInitStruct, uint32_t FLatency)
1056:Drivers/STM32L4xx_HAL_Driver/Src/stm32l4xx_hal_rcc.c **** {
1057:Drivers/STM32L4xx_HAL_Driver/Src/stm32l4xx_hal_rcc.c ****   uint32_t tickstart;
1058:Drivers/STM32L4xx_HAL_Driver/Src/stm32l4xx_hal_rcc.c **** #if defined(STM32L4R5xx) || defined(STM32L4R7xx) || defined(STM32L4R9xx) || defined(STM32L4S5xx) ||
1059:Drivers/STM32L4xx_HAL_Driver/Src/stm32l4xx_hal_rcc.c ****   uint32_t hpre = RCC_SYSCLK_DIV1;
1060:Drivers/STM32L4xx_HAL_Driver/Src/stm32l4xx_hal_rcc.c **** #endif
1061:Drivers/STM32L4xx_HAL_Driver/Src/stm32l4xx_hal_rcc.c ****   HAL_StatusTypeDef status;
ARM GAS  /tmp/ccap8I6O.s 			page 24


1062:Drivers/STM32L4xx_HAL_Driver/Src/stm32l4xx_hal_rcc.c **** 
1063:Drivers/STM32L4xx_HAL_Driver/Src/stm32l4xx_hal_rcc.c ****   /* Check Null pointer */
1064:Drivers/STM32L4xx_HAL_Driver/Src/stm32l4xx_hal_rcc.c ****   if(RCC_ClkInitStruct == NULL)
1065:Drivers/STM32L4xx_HAL_Driver/Src/stm32l4xx_hal_rcc.c ****   {
1066:Drivers/STM32L4xx_HAL_Driver/Src/stm32l4xx_hal_rcc.c ****     return HAL_ERROR;
1067:Drivers/STM32L4xx_HAL_Driver/Src/stm32l4xx_hal_rcc.c ****   }
1068:Drivers/STM32L4xx_HAL_Driver/Src/stm32l4xx_hal_rcc.c **** 
1069:Drivers/STM32L4xx_HAL_Driver/Src/stm32l4xx_hal_rcc.c ****   /* Check the parameters */
1070:Drivers/STM32L4xx_HAL_Driver/Src/stm32l4xx_hal_rcc.c ****   assert_param(IS_RCC_CLOCKTYPE(RCC_ClkInitStruct->ClockType));
1071:Drivers/STM32L4xx_HAL_Driver/Src/stm32l4xx_hal_rcc.c ****   assert_param(IS_FLASH_LATENCY(FLatency));
1072:Drivers/STM32L4xx_HAL_Driver/Src/stm32l4xx_hal_rcc.c **** 
1073:Drivers/STM32L4xx_HAL_Driver/Src/stm32l4xx_hal_rcc.c ****   /* To correctly read data from FLASH memory, the number of wait states (LATENCY)
1074:Drivers/STM32L4xx_HAL_Driver/Src/stm32l4xx_hal_rcc.c ****     must be correctly programmed according to the frequency of the CPU clock
1075:Drivers/STM32L4xx_HAL_Driver/Src/stm32l4xx_hal_rcc.c ****     (HCLK) and the supply voltage of the device. */
1076:Drivers/STM32L4xx_HAL_Driver/Src/stm32l4xx_hal_rcc.c **** 
1077:Drivers/STM32L4xx_HAL_Driver/Src/stm32l4xx_hal_rcc.c ****   /* Increasing the number of wait states because of higher CPU frequency */
1078:Drivers/STM32L4xx_HAL_Driver/Src/stm32l4xx_hal_rcc.c ****   if(FLatency > __HAL_FLASH_GET_LATENCY())
1079:Drivers/STM32L4xx_HAL_Driver/Src/stm32l4xx_hal_rcc.c ****   {
1080:Drivers/STM32L4xx_HAL_Driver/Src/stm32l4xx_hal_rcc.c ****     /* Program the new number of wait states to the LATENCY bits in the FLASH_ACR register */
1081:Drivers/STM32L4xx_HAL_Driver/Src/stm32l4xx_hal_rcc.c ****     __HAL_FLASH_SET_LATENCY(FLatency);
1082:Drivers/STM32L4xx_HAL_Driver/Src/stm32l4xx_hal_rcc.c **** 
1083:Drivers/STM32L4xx_HAL_Driver/Src/stm32l4xx_hal_rcc.c ****     /* Check that the new number of wait states is taken into account to access the Flash
1084:Drivers/STM32L4xx_HAL_Driver/Src/stm32l4xx_hal_rcc.c ****     memory by reading the FLASH_ACR register */
1085:Drivers/STM32L4xx_HAL_Driver/Src/stm32l4xx_hal_rcc.c ****     if(__HAL_FLASH_GET_LATENCY() != FLatency)
1086:Drivers/STM32L4xx_HAL_Driver/Src/stm32l4xx_hal_rcc.c ****     {
1087:Drivers/STM32L4xx_HAL_Driver/Src/stm32l4xx_hal_rcc.c ****       return HAL_ERROR;
1088:Drivers/STM32L4xx_HAL_Driver/Src/stm32l4xx_hal_rcc.c ****     }
1089:Drivers/STM32L4xx_HAL_Driver/Src/stm32l4xx_hal_rcc.c ****   }
1090:Drivers/STM32L4xx_HAL_Driver/Src/stm32l4xx_hal_rcc.c **** 
1091:Drivers/STM32L4xx_HAL_Driver/Src/stm32l4xx_hal_rcc.c ****   /*------------------------- SYSCLK Configuration ---------------------------*/
1092:Drivers/STM32L4xx_HAL_Driver/Src/stm32l4xx_hal_rcc.c ****   if(((RCC_ClkInitStruct->ClockType) & RCC_CLOCKTYPE_SYSCLK) == RCC_CLOCKTYPE_SYSCLK)
1093:Drivers/STM32L4xx_HAL_Driver/Src/stm32l4xx_hal_rcc.c ****   {
1094:Drivers/STM32L4xx_HAL_Driver/Src/stm32l4xx_hal_rcc.c ****     assert_param(IS_RCC_SYSCLKSOURCE(RCC_ClkInitStruct->SYSCLKSource));
1095:Drivers/STM32L4xx_HAL_Driver/Src/stm32l4xx_hal_rcc.c **** 
1096:Drivers/STM32L4xx_HAL_Driver/Src/stm32l4xx_hal_rcc.c ****     /* PLL is selected as System Clock Source */
1097:Drivers/STM32L4xx_HAL_Driver/Src/stm32l4xx_hal_rcc.c ****     if(RCC_ClkInitStruct->SYSCLKSource == RCC_SYSCLKSOURCE_PLLCLK)
1098:Drivers/STM32L4xx_HAL_Driver/Src/stm32l4xx_hal_rcc.c ****     {
1099:Drivers/STM32L4xx_HAL_Driver/Src/stm32l4xx_hal_rcc.c ****       /* Check the PLL ready flag */
1100:Drivers/STM32L4xx_HAL_Driver/Src/stm32l4xx_hal_rcc.c ****       if(READ_BIT(RCC->CR, RCC_CR_PLLRDY) == 0U)
1101:Drivers/STM32L4xx_HAL_Driver/Src/stm32l4xx_hal_rcc.c ****       {
1102:Drivers/STM32L4xx_HAL_Driver/Src/stm32l4xx_hal_rcc.c ****         return HAL_ERROR;
1103:Drivers/STM32L4xx_HAL_Driver/Src/stm32l4xx_hal_rcc.c ****       }
1104:Drivers/STM32L4xx_HAL_Driver/Src/stm32l4xx_hal_rcc.c **** #if defined(STM32L4R5xx) || defined(STM32L4R7xx) || defined(STM32L4R9xx) || defined(STM32L4S5xx) ||
1105:Drivers/STM32L4xx_HAL_Driver/Src/stm32l4xx_hal_rcc.c ****       /* Undershoot management when selection PLL as SYSCLK source and frequency above 80Mhz */
1106:Drivers/STM32L4xx_HAL_Driver/Src/stm32l4xx_hal_rcc.c ****       /* Compute target PLL output frequency */
1107:Drivers/STM32L4xx_HAL_Driver/Src/stm32l4xx_hal_rcc.c ****       if(RCC_GetSysClockFreqFromPLLSource() > 80000000U)
1108:Drivers/STM32L4xx_HAL_Driver/Src/stm32l4xx_hal_rcc.c ****       {
1109:Drivers/STM32L4xx_HAL_Driver/Src/stm32l4xx_hal_rcc.c ****         if(READ_BIT(RCC->CFGR, RCC_CFGR_HPRE) == RCC_SYSCLK_DIV1)
1110:Drivers/STM32L4xx_HAL_Driver/Src/stm32l4xx_hal_rcc.c ****         {
1111:Drivers/STM32L4xx_HAL_Driver/Src/stm32l4xx_hal_rcc.c ****           /* Intermediate step with HCLK prescaler 2 necessary before to go over 80Mhz */
1112:Drivers/STM32L4xx_HAL_Driver/Src/stm32l4xx_hal_rcc.c ****           MODIFY_REG(RCC->CFGR, RCC_CFGR_HPRE, RCC_SYSCLK_DIV2);
1113:Drivers/STM32L4xx_HAL_Driver/Src/stm32l4xx_hal_rcc.c ****           hpre = RCC_SYSCLK_DIV2;
1114:Drivers/STM32L4xx_HAL_Driver/Src/stm32l4xx_hal_rcc.c ****         }
1115:Drivers/STM32L4xx_HAL_Driver/Src/stm32l4xx_hal_rcc.c ****         else if((((RCC_ClkInitStruct->ClockType) & RCC_CLOCKTYPE_HCLK) == RCC_CLOCKTYPE_HCLK) && (R
1116:Drivers/STM32L4xx_HAL_Driver/Src/stm32l4xx_hal_rcc.c ****         {
1117:Drivers/STM32L4xx_HAL_Driver/Src/stm32l4xx_hal_rcc.c ****           /* Intermediate step with HCLK prescaler 2 necessary before to go over 80Mhz */
1118:Drivers/STM32L4xx_HAL_Driver/Src/stm32l4xx_hal_rcc.c ****           MODIFY_REG(RCC->CFGR, RCC_CFGR_HPRE, RCC_SYSCLK_DIV2);
ARM GAS  /tmp/ccap8I6O.s 			page 25


1119:Drivers/STM32L4xx_HAL_Driver/Src/stm32l4xx_hal_rcc.c ****           hpre = RCC_SYSCLK_DIV2;
1120:Drivers/STM32L4xx_HAL_Driver/Src/stm32l4xx_hal_rcc.c ****         }
1121:Drivers/STM32L4xx_HAL_Driver/Src/stm32l4xx_hal_rcc.c ****         else
1122:Drivers/STM32L4xx_HAL_Driver/Src/stm32l4xx_hal_rcc.c ****         {
1123:Drivers/STM32L4xx_HAL_Driver/Src/stm32l4xx_hal_rcc.c ****           /* nothing to do */
1124:Drivers/STM32L4xx_HAL_Driver/Src/stm32l4xx_hal_rcc.c ****         }
1125:Drivers/STM32L4xx_HAL_Driver/Src/stm32l4xx_hal_rcc.c ****       }
1126:Drivers/STM32L4xx_HAL_Driver/Src/stm32l4xx_hal_rcc.c **** #endif
1127:Drivers/STM32L4xx_HAL_Driver/Src/stm32l4xx_hal_rcc.c ****     }
1128:Drivers/STM32L4xx_HAL_Driver/Src/stm32l4xx_hal_rcc.c ****     else
1129:Drivers/STM32L4xx_HAL_Driver/Src/stm32l4xx_hal_rcc.c ****     {
1130:Drivers/STM32L4xx_HAL_Driver/Src/stm32l4xx_hal_rcc.c ****       /* HSE is selected as System Clock Source */
1131:Drivers/STM32L4xx_HAL_Driver/Src/stm32l4xx_hal_rcc.c ****       if(RCC_ClkInitStruct->SYSCLKSource == RCC_SYSCLKSOURCE_HSE)
1132:Drivers/STM32L4xx_HAL_Driver/Src/stm32l4xx_hal_rcc.c ****       {
1133:Drivers/STM32L4xx_HAL_Driver/Src/stm32l4xx_hal_rcc.c ****         /* Check the HSE ready flag */
1134:Drivers/STM32L4xx_HAL_Driver/Src/stm32l4xx_hal_rcc.c ****         if(READ_BIT(RCC->CR, RCC_CR_HSERDY) == 0U)
1135:Drivers/STM32L4xx_HAL_Driver/Src/stm32l4xx_hal_rcc.c ****         {
1136:Drivers/STM32L4xx_HAL_Driver/Src/stm32l4xx_hal_rcc.c ****           return HAL_ERROR;
1137:Drivers/STM32L4xx_HAL_Driver/Src/stm32l4xx_hal_rcc.c ****         }
1138:Drivers/STM32L4xx_HAL_Driver/Src/stm32l4xx_hal_rcc.c ****       }
1139:Drivers/STM32L4xx_HAL_Driver/Src/stm32l4xx_hal_rcc.c ****       /* MSI is selected as System Clock Source */
1140:Drivers/STM32L4xx_HAL_Driver/Src/stm32l4xx_hal_rcc.c ****       else if(RCC_ClkInitStruct->SYSCLKSource == RCC_SYSCLKSOURCE_MSI)
1141:Drivers/STM32L4xx_HAL_Driver/Src/stm32l4xx_hal_rcc.c ****       {
1142:Drivers/STM32L4xx_HAL_Driver/Src/stm32l4xx_hal_rcc.c ****         /* Check the MSI ready flag */
1143:Drivers/STM32L4xx_HAL_Driver/Src/stm32l4xx_hal_rcc.c ****         if(READ_BIT(RCC->CR, RCC_CR_MSIRDY) == 0U)
1144:Drivers/STM32L4xx_HAL_Driver/Src/stm32l4xx_hal_rcc.c ****         {
1145:Drivers/STM32L4xx_HAL_Driver/Src/stm32l4xx_hal_rcc.c ****           return HAL_ERROR;
1146:Drivers/STM32L4xx_HAL_Driver/Src/stm32l4xx_hal_rcc.c ****         }
1147:Drivers/STM32L4xx_HAL_Driver/Src/stm32l4xx_hal_rcc.c ****       }
1148:Drivers/STM32L4xx_HAL_Driver/Src/stm32l4xx_hal_rcc.c ****       /* HSI is selected as System Clock Source */
1149:Drivers/STM32L4xx_HAL_Driver/Src/stm32l4xx_hal_rcc.c ****       else
1150:Drivers/STM32L4xx_HAL_Driver/Src/stm32l4xx_hal_rcc.c ****       {
1151:Drivers/STM32L4xx_HAL_Driver/Src/stm32l4xx_hal_rcc.c ****         /* Check the HSI ready flag */
1152:Drivers/STM32L4xx_HAL_Driver/Src/stm32l4xx_hal_rcc.c ****         if(READ_BIT(RCC->CR, RCC_CR_HSIRDY) == 0U)
1153:Drivers/STM32L4xx_HAL_Driver/Src/stm32l4xx_hal_rcc.c ****         {
1154:Drivers/STM32L4xx_HAL_Driver/Src/stm32l4xx_hal_rcc.c ****           return HAL_ERROR;
1155:Drivers/STM32L4xx_HAL_Driver/Src/stm32l4xx_hal_rcc.c ****         }
1156:Drivers/STM32L4xx_HAL_Driver/Src/stm32l4xx_hal_rcc.c ****       }
1157:Drivers/STM32L4xx_HAL_Driver/Src/stm32l4xx_hal_rcc.c **** #if defined(STM32L4R5xx) || defined(STM32L4R7xx) || defined(STM32L4R9xx) || defined(STM32L4S5xx) ||
1158:Drivers/STM32L4xx_HAL_Driver/Src/stm32l4xx_hal_rcc.c ****       /* Overshoot management when going down from PLL as SYSCLK source and frequency above 80Mhz *
1159:Drivers/STM32L4xx_HAL_Driver/Src/stm32l4xx_hal_rcc.c ****       if(HAL_RCC_GetSysClockFreq() > 80000000U)
1160:Drivers/STM32L4xx_HAL_Driver/Src/stm32l4xx_hal_rcc.c ****       {
1161:Drivers/STM32L4xx_HAL_Driver/Src/stm32l4xx_hal_rcc.c ****         /* Intermediate step with HCLK prescaler 2 necessary before to go under 80Mhz */
1162:Drivers/STM32L4xx_HAL_Driver/Src/stm32l4xx_hal_rcc.c ****         MODIFY_REG(RCC->CFGR, RCC_CFGR_HPRE, RCC_SYSCLK_DIV2);
1163:Drivers/STM32L4xx_HAL_Driver/Src/stm32l4xx_hal_rcc.c ****         hpre = RCC_SYSCLK_DIV2;
1164:Drivers/STM32L4xx_HAL_Driver/Src/stm32l4xx_hal_rcc.c ****       }
1165:Drivers/STM32L4xx_HAL_Driver/Src/stm32l4xx_hal_rcc.c **** #endif
1166:Drivers/STM32L4xx_HAL_Driver/Src/stm32l4xx_hal_rcc.c **** 
1167:Drivers/STM32L4xx_HAL_Driver/Src/stm32l4xx_hal_rcc.c ****     }
1168:Drivers/STM32L4xx_HAL_Driver/Src/stm32l4xx_hal_rcc.c **** 
1169:Drivers/STM32L4xx_HAL_Driver/Src/stm32l4xx_hal_rcc.c ****     MODIFY_REG(RCC->CFGR, RCC_CFGR_SW, RCC_ClkInitStruct->SYSCLKSource);
1170:Drivers/STM32L4xx_HAL_Driver/Src/stm32l4xx_hal_rcc.c **** 
1171:Drivers/STM32L4xx_HAL_Driver/Src/stm32l4xx_hal_rcc.c ****     /* Get Start Tick*/
1172:Drivers/STM32L4xx_HAL_Driver/Src/stm32l4xx_hal_rcc.c ****     tickstart = HAL_GetTick();
1173:Drivers/STM32L4xx_HAL_Driver/Src/stm32l4xx_hal_rcc.c **** 
1174:Drivers/STM32L4xx_HAL_Driver/Src/stm32l4xx_hal_rcc.c ****     while(__HAL_RCC_GET_SYSCLK_SOURCE() != (RCC_ClkInitStruct->SYSCLKSource << RCC_CFGR_SWS_Pos))
1175:Drivers/STM32L4xx_HAL_Driver/Src/stm32l4xx_hal_rcc.c ****     {
ARM GAS  /tmp/ccap8I6O.s 			page 26


1176:Drivers/STM32L4xx_HAL_Driver/Src/stm32l4xx_hal_rcc.c ****       if((HAL_GetTick() - tickstart) > CLOCKSWITCH_TIMEOUT_VALUE)
1177:Drivers/STM32L4xx_HAL_Driver/Src/stm32l4xx_hal_rcc.c ****       {
1178:Drivers/STM32L4xx_HAL_Driver/Src/stm32l4xx_hal_rcc.c ****         return HAL_TIMEOUT;
1179:Drivers/STM32L4xx_HAL_Driver/Src/stm32l4xx_hal_rcc.c ****       }
1180:Drivers/STM32L4xx_HAL_Driver/Src/stm32l4xx_hal_rcc.c ****     }
1181:Drivers/STM32L4xx_HAL_Driver/Src/stm32l4xx_hal_rcc.c ****   }
1182:Drivers/STM32L4xx_HAL_Driver/Src/stm32l4xx_hal_rcc.c **** 
1183:Drivers/STM32L4xx_HAL_Driver/Src/stm32l4xx_hal_rcc.c ****   /*-------------------------- HCLK Configuration --------------------------*/
1184:Drivers/STM32L4xx_HAL_Driver/Src/stm32l4xx_hal_rcc.c ****   if(((RCC_ClkInitStruct->ClockType) & RCC_CLOCKTYPE_HCLK) == RCC_CLOCKTYPE_HCLK)
1185:Drivers/STM32L4xx_HAL_Driver/Src/stm32l4xx_hal_rcc.c ****   {
1186:Drivers/STM32L4xx_HAL_Driver/Src/stm32l4xx_hal_rcc.c ****     assert_param(IS_RCC_HCLK(RCC_ClkInitStruct->AHBCLKDivider));
1187:Drivers/STM32L4xx_HAL_Driver/Src/stm32l4xx_hal_rcc.c ****     MODIFY_REG(RCC->CFGR, RCC_CFGR_HPRE, RCC_ClkInitStruct->AHBCLKDivider);
1188:Drivers/STM32L4xx_HAL_Driver/Src/stm32l4xx_hal_rcc.c ****   }
1189:Drivers/STM32L4xx_HAL_Driver/Src/stm32l4xx_hal_rcc.c **** #if defined(STM32L4R5xx) || defined(STM32L4R7xx) || defined(STM32L4R9xx) || defined(STM32L4S5xx) ||
1190:Drivers/STM32L4xx_HAL_Driver/Src/stm32l4xx_hal_rcc.c ****   else
1191:Drivers/STM32L4xx_HAL_Driver/Src/stm32l4xx_hal_rcc.c ****   {
1192:Drivers/STM32L4xx_HAL_Driver/Src/stm32l4xx_hal_rcc.c ****     /* Is intermediate HCLK prescaler 2 applied internally, complete with HCLK prescaler 1 */
1193:Drivers/STM32L4xx_HAL_Driver/Src/stm32l4xx_hal_rcc.c ****     if(hpre == RCC_SYSCLK_DIV2)
1194:Drivers/STM32L4xx_HAL_Driver/Src/stm32l4xx_hal_rcc.c ****     {
1195:Drivers/STM32L4xx_HAL_Driver/Src/stm32l4xx_hal_rcc.c ****       MODIFY_REG(RCC->CFGR, RCC_CFGR_HPRE, RCC_SYSCLK_DIV1);
1196:Drivers/STM32L4xx_HAL_Driver/Src/stm32l4xx_hal_rcc.c ****     }
1197:Drivers/STM32L4xx_HAL_Driver/Src/stm32l4xx_hal_rcc.c ****   }
1198:Drivers/STM32L4xx_HAL_Driver/Src/stm32l4xx_hal_rcc.c **** #endif
1199:Drivers/STM32L4xx_HAL_Driver/Src/stm32l4xx_hal_rcc.c **** 
1200:Drivers/STM32L4xx_HAL_Driver/Src/stm32l4xx_hal_rcc.c ****   /* Decreasing the number of wait states because of lower CPU frequency */
1201:Drivers/STM32L4xx_HAL_Driver/Src/stm32l4xx_hal_rcc.c ****   if(FLatency < __HAL_FLASH_GET_LATENCY())
1202:Drivers/STM32L4xx_HAL_Driver/Src/stm32l4xx_hal_rcc.c ****   {
1203:Drivers/STM32L4xx_HAL_Driver/Src/stm32l4xx_hal_rcc.c ****     /* Program the new number of wait states to the LATENCY bits in the FLASH_ACR register */
1204:Drivers/STM32L4xx_HAL_Driver/Src/stm32l4xx_hal_rcc.c ****     __HAL_FLASH_SET_LATENCY(FLatency);
1205:Drivers/STM32L4xx_HAL_Driver/Src/stm32l4xx_hal_rcc.c **** 
1206:Drivers/STM32L4xx_HAL_Driver/Src/stm32l4xx_hal_rcc.c ****     /* Check that the new number of wait states is taken into account to access the Flash
1207:Drivers/STM32L4xx_HAL_Driver/Src/stm32l4xx_hal_rcc.c ****     memory by reading the FLASH_ACR register */
1208:Drivers/STM32L4xx_HAL_Driver/Src/stm32l4xx_hal_rcc.c ****     if(__HAL_FLASH_GET_LATENCY() != FLatency)
1209:Drivers/STM32L4xx_HAL_Driver/Src/stm32l4xx_hal_rcc.c ****     {
1210:Drivers/STM32L4xx_HAL_Driver/Src/stm32l4xx_hal_rcc.c ****       return HAL_ERROR;
1211:Drivers/STM32L4xx_HAL_Driver/Src/stm32l4xx_hal_rcc.c ****     }
1212:Drivers/STM32L4xx_HAL_Driver/Src/stm32l4xx_hal_rcc.c ****   }
1213:Drivers/STM32L4xx_HAL_Driver/Src/stm32l4xx_hal_rcc.c **** 
1214:Drivers/STM32L4xx_HAL_Driver/Src/stm32l4xx_hal_rcc.c ****   /*-------------------------- PCLK1 Configuration ---------------------------*/
1215:Drivers/STM32L4xx_HAL_Driver/Src/stm32l4xx_hal_rcc.c ****   if(((RCC_ClkInitStruct->ClockType) & RCC_CLOCKTYPE_PCLK1) == RCC_CLOCKTYPE_PCLK1)
1216:Drivers/STM32L4xx_HAL_Driver/Src/stm32l4xx_hal_rcc.c ****   {
1217:Drivers/STM32L4xx_HAL_Driver/Src/stm32l4xx_hal_rcc.c ****     assert_param(IS_RCC_PCLK(RCC_ClkInitStruct->APB1CLKDivider));
1218:Drivers/STM32L4xx_HAL_Driver/Src/stm32l4xx_hal_rcc.c ****     MODIFY_REG(RCC->CFGR, RCC_CFGR_PPRE1, RCC_ClkInitStruct->APB1CLKDivider);
1219:Drivers/STM32L4xx_HAL_Driver/Src/stm32l4xx_hal_rcc.c ****   }
1220:Drivers/STM32L4xx_HAL_Driver/Src/stm32l4xx_hal_rcc.c **** 
1221:Drivers/STM32L4xx_HAL_Driver/Src/stm32l4xx_hal_rcc.c ****   /*-------------------------- PCLK2 Configuration ---------------------------*/
1222:Drivers/STM32L4xx_HAL_Driver/Src/stm32l4xx_hal_rcc.c ****   if(((RCC_ClkInitStruct->ClockType) & RCC_CLOCKTYPE_PCLK2) == RCC_CLOCKTYPE_PCLK2)
1223:Drivers/STM32L4xx_HAL_Driver/Src/stm32l4xx_hal_rcc.c ****   {
1224:Drivers/STM32L4xx_HAL_Driver/Src/stm32l4xx_hal_rcc.c ****     assert_param(IS_RCC_PCLK(RCC_ClkInitStruct->APB2CLKDivider));
1225:Drivers/STM32L4xx_HAL_Driver/Src/stm32l4xx_hal_rcc.c ****     MODIFY_REG(RCC->CFGR, RCC_CFGR_PPRE2, ((RCC_ClkInitStruct->APB2CLKDivider) << 3U));
1226:Drivers/STM32L4xx_HAL_Driver/Src/stm32l4xx_hal_rcc.c ****   }
1227:Drivers/STM32L4xx_HAL_Driver/Src/stm32l4xx_hal_rcc.c **** 
1228:Drivers/STM32L4xx_HAL_Driver/Src/stm32l4xx_hal_rcc.c ****   /* Update the SystemCoreClock global variable */
1229:Drivers/STM32L4xx_HAL_Driver/Src/stm32l4xx_hal_rcc.c ****   SystemCoreClock = HAL_RCC_GetSysClockFreq() >> (AHBPrescTable[READ_BIT(RCC->CFGR, RCC_CFGR_HPRE) 
1230:Drivers/STM32L4xx_HAL_Driver/Src/stm32l4xx_hal_rcc.c **** 
1231:Drivers/STM32L4xx_HAL_Driver/Src/stm32l4xx_hal_rcc.c ****   /* Configure the source of time base considering new system clocks settings*/
1232:Drivers/STM32L4xx_HAL_Driver/Src/stm32l4xx_hal_rcc.c ****   status = HAL_InitTick(uwTickPrio);
ARM GAS  /tmp/ccap8I6O.s 			page 27


1233:Drivers/STM32L4xx_HAL_Driver/Src/stm32l4xx_hal_rcc.c **** 
1234:Drivers/STM32L4xx_HAL_Driver/Src/stm32l4xx_hal_rcc.c ****   return status;
1235:Drivers/STM32L4xx_HAL_Driver/Src/stm32l4xx_hal_rcc.c **** }
1236:Drivers/STM32L4xx_HAL_Driver/Src/stm32l4xx_hal_rcc.c **** 
1237:Drivers/STM32L4xx_HAL_Driver/Src/stm32l4xx_hal_rcc.c **** /**
1238:Drivers/STM32L4xx_HAL_Driver/Src/stm32l4xx_hal_rcc.c ****   * @}
1239:Drivers/STM32L4xx_HAL_Driver/Src/stm32l4xx_hal_rcc.c ****   */
1240:Drivers/STM32L4xx_HAL_Driver/Src/stm32l4xx_hal_rcc.c **** 
1241:Drivers/STM32L4xx_HAL_Driver/Src/stm32l4xx_hal_rcc.c **** /** @defgroup RCC_Exported_Functions_Group2 Peripheral Control functions
1242:Drivers/STM32L4xx_HAL_Driver/Src/stm32l4xx_hal_rcc.c ****  *  @brief   RCC clocks control functions
1243:Drivers/STM32L4xx_HAL_Driver/Src/stm32l4xx_hal_rcc.c ****  *
1244:Drivers/STM32L4xx_HAL_Driver/Src/stm32l4xx_hal_rcc.c **** @verbatim
1245:Drivers/STM32L4xx_HAL_Driver/Src/stm32l4xx_hal_rcc.c ****  ===============================================================================
1246:Drivers/STM32L4xx_HAL_Driver/Src/stm32l4xx_hal_rcc.c ****                       ##### Peripheral Control functions #####
1247:Drivers/STM32L4xx_HAL_Driver/Src/stm32l4xx_hal_rcc.c ****  ===============================================================================
1248:Drivers/STM32L4xx_HAL_Driver/Src/stm32l4xx_hal_rcc.c ****     [..]
1249:Drivers/STM32L4xx_HAL_Driver/Src/stm32l4xx_hal_rcc.c ****     This subsection provides a set of functions allowing to:
1250:Drivers/STM32L4xx_HAL_Driver/Src/stm32l4xx_hal_rcc.c **** 
1251:Drivers/STM32L4xx_HAL_Driver/Src/stm32l4xx_hal_rcc.c ****     (+) Ouput clock to MCO pin.
1252:Drivers/STM32L4xx_HAL_Driver/Src/stm32l4xx_hal_rcc.c ****     (+) Retrieve current clock frequencies.
1253:Drivers/STM32L4xx_HAL_Driver/Src/stm32l4xx_hal_rcc.c ****     (+) Enable the Clock Security System.
1254:Drivers/STM32L4xx_HAL_Driver/Src/stm32l4xx_hal_rcc.c **** 
1255:Drivers/STM32L4xx_HAL_Driver/Src/stm32l4xx_hal_rcc.c **** @endverbatim
1256:Drivers/STM32L4xx_HAL_Driver/Src/stm32l4xx_hal_rcc.c ****   * @{
1257:Drivers/STM32L4xx_HAL_Driver/Src/stm32l4xx_hal_rcc.c ****   */
1258:Drivers/STM32L4xx_HAL_Driver/Src/stm32l4xx_hal_rcc.c **** 
1259:Drivers/STM32L4xx_HAL_Driver/Src/stm32l4xx_hal_rcc.c **** /**
1260:Drivers/STM32L4xx_HAL_Driver/Src/stm32l4xx_hal_rcc.c ****   * @brief  Select the clock source to output on MCO pin(PA8).
1261:Drivers/STM32L4xx_HAL_Driver/Src/stm32l4xx_hal_rcc.c ****   * @note   PA8 should be configured in alternate function mode.
1262:Drivers/STM32L4xx_HAL_Driver/Src/stm32l4xx_hal_rcc.c ****   * @param  RCC_MCOx  specifies the output direction for the clock source.
1263:Drivers/STM32L4xx_HAL_Driver/Src/stm32l4xx_hal_rcc.c ****   *          For STM32L4xx family this parameter can have only one value:
1264:Drivers/STM32L4xx_HAL_Driver/Src/stm32l4xx_hal_rcc.c ****   *            @arg @ref RCC_MCO1  Clock source to output on MCO1 pin(PA8).
1265:Drivers/STM32L4xx_HAL_Driver/Src/stm32l4xx_hal_rcc.c ****   * @param  RCC_MCOSource  specifies the clock source to output.
1266:Drivers/STM32L4xx_HAL_Driver/Src/stm32l4xx_hal_rcc.c ****   *          This parameter can be one of the following values:
1267:Drivers/STM32L4xx_HAL_Driver/Src/stm32l4xx_hal_rcc.c ****   *            @arg @ref RCC_MCO1SOURCE_NOCLOCK  MCO output disabled, no clock on MCO
1268:Drivers/STM32L4xx_HAL_Driver/Src/stm32l4xx_hal_rcc.c ****   *            @arg @ref RCC_MCO1SOURCE_SYSCLK  system  clock selected as MCO source
1269:Drivers/STM32L4xx_HAL_Driver/Src/stm32l4xx_hal_rcc.c ****   *            @arg @ref RCC_MCO1SOURCE_MSI  MSI clock selected as MCO source
1270:Drivers/STM32L4xx_HAL_Driver/Src/stm32l4xx_hal_rcc.c ****   *            @arg @ref RCC_MCO1SOURCE_HSI  HSI clock selected as MCO source
1271:Drivers/STM32L4xx_HAL_Driver/Src/stm32l4xx_hal_rcc.c ****   *            @arg @ref RCC_MCO1SOURCE_HSE  HSE clock selected as MCO sourcee
1272:Drivers/STM32L4xx_HAL_Driver/Src/stm32l4xx_hal_rcc.c ****   *            @arg @ref RCC_MCO1SOURCE_PLLCLK  main PLL clock selected as MCO source
1273:Drivers/STM32L4xx_HAL_Driver/Src/stm32l4xx_hal_rcc.c ****   *            @arg @ref RCC_MCO1SOURCE_LSI  LSI clock selected as MCO source
1274:Drivers/STM32L4xx_HAL_Driver/Src/stm32l4xx_hal_rcc.c ****   *            @arg @ref RCC_MCO1SOURCE_LSE  LSE clock selected as MCO source
1275:Drivers/STM32L4xx_HAL_Driver/Src/stm32l4xx_hal_rcc.c ****   @if STM32L443xx
1276:Drivers/STM32L4xx_HAL_Driver/Src/stm32l4xx_hal_rcc.c ****   *            @arg @ref RCC_MCO1SOURCE_HSI48  HSI48 clock selected as MCO source for devices with 
1277:Drivers/STM32L4xx_HAL_Driver/Src/stm32l4xx_hal_rcc.c ****   @endif
1278:Drivers/STM32L4xx_HAL_Driver/Src/stm32l4xx_hal_rcc.c ****   * @param  RCC_MCODiv  specifies the MCO prescaler.
1279:Drivers/STM32L4xx_HAL_Driver/Src/stm32l4xx_hal_rcc.c ****   *          This parameter can be one of the following values:
1280:Drivers/STM32L4xx_HAL_Driver/Src/stm32l4xx_hal_rcc.c ****   *            @arg @ref RCC_MCODIV_1  no division applied to MCO clock
1281:Drivers/STM32L4xx_HAL_Driver/Src/stm32l4xx_hal_rcc.c ****   *            @arg @ref RCC_MCODIV_2  division by 2 applied to MCO clock
1282:Drivers/STM32L4xx_HAL_Driver/Src/stm32l4xx_hal_rcc.c ****   *            @arg @ref RCC_MCODIV_4  division by 4 applied to MCO clock
1283:Drivers/STM32L4xx_HAL_Driver/Src/stm32l4xx_hal_rcc.c ****   *            @arg @ref RCC_MCODIV_8  division by 8 applied to MCO clock
1284:Drivers/STM32L4xx_HAL_Driver/Src/stm32l4xx_hal_rcc.c ****   *            @arg @ref RCC_MCODIV_16  division by 16 applied to MCO clock
1285:Drivers/STM32L4xx_HAL_Driver/Src/stm32l4xx_hal_rcc.c ****   * @retval None
1286:Drivers/STM32L4xx_HAL_Driver/Src/stm32l4xx_hal_rcc.c ****   */
1287:Drivers/STM32L4xx_HAL_Driver/Src/stm32l4xx_hal_rcc.c **** void HAL_RCC_MCOConfig( uint32_t RCC_MCOx, uint32_t RCC_MCOSource, uint32_t RCC_MCODiv)
1288:Drivers/STM32L4xx_HAL_Driver/Src/stm32l4xx_hal_rcc.c **** {
 218              		.loc 1 1288 0
ARM GAS  /tmp/ccap8I6O.s 			page 28


 219              		.cfi_startproc
 220              		@ args = 0, pretend = 0, frame = 24
 221              		@ frame_needed = 0, uses_anonymous_args = 0
 222              	.LVL14:
 223 0000 F0B5     		push	{r4, r5, r6, r7, lr}
 224              	.LCFI1:
 225              		.cfi_def_cfa_offset 20
 226              		.cfi_offset 4, -20
 227              		.cfi_offset 5, -16
 228              		.cfi_offset 6, -12
 229              		.cfi_offset 7, -8
 230              		.cfi_offset 14, -4
 231              	.LBB6:
1289:Drivers/STM32L4xx_HAL_Driver/Src/stm32l4xx_hal_rcc.c ****   GPIO_InitTypeDef GPIO_InitStruct;
1290:Drivers/STM32L4xx_HAL_Driver/Src/stm32l4xx_hal_rcc.c **** 
1291:Drivers/STM32L4xx_HAL_Driver/Src/stm32l4xx_hal_rcc.c ****   /* Check the parameters */
1292:Drivers/STM32L4xx_HAL_Driver/Src/stm32l4xx_hal_rcc.c ****   assert_param(IS_RCC_MCO(RCC_MCOx));
1293:Drivers/STM32L4xx_HAL_Driver/Src/stm32l4xx_hal_rcc.c ****   assert_param(IS_RCC_MCODIV(RCC_MCODiv));
1294:Drivers/STM32L4xx_HAL_Driver/Src/stm32l4xx_hal_rcc.c ****   assert_param(IS_RCC_MCO1SOURCE(RCC_MCOSource));
1295:Drivers/STM32L4xx_HAL_Driver/Src/stm32l4xx_hal_rcc.c **** 
1296:Drivers/STM32L4xx_HAL_Driver/Src/stm32l4xx_hal_rcc.c ****   /* Prevent unused argument(s) compilation warning if no assert_param check */
1297:Drivers/STM32L4xx_HAL_Driver/Src/stm32l4xx_hal_rcc.c ****   UNUSED(RCC_MCOx);
1298:Drivers/STM32L4xx_HAL_Driver/Src/stm32l4xx_hal_rcc.c **** 
1299:Drivers/STM32L4xx_HAL_Driver/Src/stm32l4xx_hal_rcc.c ****   /* MCO Clock Enable */
1300:Drivers/STM32L4xx_HAL_Driver/Src/stm32l4xx_hal_rcc.c ****   __MCO1_CLK_ENABLE();
 232              		.loc 1 1300 0
 233 0002 124C     		ldr	r4, .L19
 234 0004 E36C     		ldr	r3, [r4, #76]
 235 0006 43F00103 		orr	r3, r3, #1
 236 000a E364     		str	r3, [r4, #76]
 237 000c E36C     		ldr	r3, [r4, #76]
 238              	.LBE6:
1288:Drivers/STM32L4xx_HAL_Driver/Src/stm32l4xx_hal_rcc.c ****   GPIO_InitTypeDef GPIO_InitStruct;
 239              		.loc 1 1288 0
 240 000e 87B0     		sub	sp, sp, #28
 241              	.LCFI2:
 242              		.cfi_def_cfa_offset 48
 243              	.LBB7:
 244              		.loc 1 1300 0
 245 0010 03F00103 		and	r3, r3, #1
 246 0014 0093     		str	r3, [sp]
 247              	.LBE7:
1288:Drivers/STM32L4xx_HAL_Driver/Src/stm32l4xx_hal_rcc.c ****   GPIO_InitTypeDef GPIO_InitStruct;
 248              		.loc 1 1288 0
 249 0016 0E46     		mov	r6, r1
1301:Drivers/STM32L4xx_HAL_Driver/Src/stm32l4xx_hal_rcc.c **** 
1302:Drivers/STM32L4xx_HAL_Driver/Src/stm32l4xx_hal_rcc.c ****   /* Configue the MCO1 pin in alternate function mode */
1303:Drivers/STM32L4xx_HAL_Driver/Src/stm32l4xx_hal_rcc.c ****   GPIO_InitStruct.Pin = MCO1_PIN;
1304:Drivers/STM32L4xx_HAL_Driver/Src/stm32l4xx_hal_rcc.c ****   GPIO_InitStruct.Mode = GPIO_MODE_AF_PP;
1305:Drivers/STM32L4xx_HAL_Driver/Src/stm32l4xx_hal_rcc.c ****   GPIO_InitStruct.Speed = GPIO_SPEED_FREQ_HIGH;
1306:Drivers/STM32L4xx_HAL_Driver/Src/stm32l4xx_hal_rcc.c ****   GPIO_InitStruct.Pull = GPIO_NOPULL;
 250              		.loc 1 1306 0
 251 0018 0023     		movs	r3, #0
1303:Drivers/STM32L4xx_HAL_Driver/Src/stm32l4xx_hal_rcc.c ****   GPIO_InitStruct.Mode = GPIO_MODE_AF_PP;
 252              		.loc 1 1303 0
 253 001a 4FF4807E 		mov	lr, #256
1304:Drivers/STM32L4xx_HAL_Driver/Src/stm32l4xx_hal_rcc.c ****   GPIO_InitStruct.Speed = GPIO_SPEED_FREQ_HIGH;
ARM GAS  /tmp/ccap8I6O.s 			page 29


 254              		.loc 1 1304 0
 255 001e 0225     		movs	r5, #2
1307:Drivers/STM32L4xx_HAL_Driver/Src/stm32l4xx_hal_rcc.c ****   GPIO_InitStruct.Alternate = GPIO_AF0_MCO;
1308:Drivers/STM32L4xx_HAL_Driver/Src/stm32l4xx_hal_rcc.c ****   HAL_GPIO_Init(MCO1_GPIO_PORT, &GPIO_InitStruct);
 256              		.loc 1 1308 0
 257 0020 01A9     		add	r1, sp, #4
 258              	.LVL15:
 259 0022 4FF09040 		mov	r0, #1207959552
 260              	.LVL16:
1288:Drivers/STM32L4xx_HAL_Driver/Src/stm32l4xx_hal_rcc.c ****   GPIO_InitTypeDef GPIO_InitStruct;
 261              		.loc 1 1288 0
 262 0026 1746     		mov	r7, r2
1303:Drivers/STM32L4xx_HAL_Driver/Src/stm32l4xx_hal_rcc.c ****   GPIO_InitStruct.Mode = GPIO_MODE_AF_PP;
 263              		.loc 1 1303 0
 264 0028 CDF804E0 		str	lr, [sp, #4]
 265              	.LBB8:
1300:Drivers/STM32L4xx_HAL_Driver/Src/stm32l4xx_hal_rcc.c **** 
 266              		.loc 1 1300 0
 267 002c 009A     		ldr	r2, [sp]
 268              	.LVL17:
 269              	.LBE8:
1304:Drivers/STM32L4xx_HAL_Driver/Src/stm32l4xx_hal_rcc.c ****   GPIO_InitStruct.Speed = GPIO_SPEED_FREQ_HIGH;
 270              		.loc 1 1304 0
 271 002e 0295     		str	r5, [sp, #8]
1305:Drivers/STM32L4xx_HAL_Driver/Src/stm32l4xx_hal_rcc.c ****   GPIO_InitStruct.Pull = GPIO_NOPULL;
 272              		.loc 1 1305 0
 273 0030 0495     		str	r5, [sp, #16]
1306:Drivers/STM32L4xx_HAL_Driver/Src/stm32l4xx_hal_rcc.c ****   GPIO_InitStruct.Alternate = GPIO_AF0_MCO;
 274              		.loc 1 1306 0
 275 0032 0393     		str	r3, [sp, #12]
1307:Drivers/STM32L4xx_HAL_Driver/Src/stm32l4xx_hal_rcc.c ****   HAL_GPIO_Init(MCO1_GPIO_PORT, &GPIO_InitStruct);
 276              		.loc 1 1307 0
 277 0034 0593     		str	r3, [sp, #20]
 278              		.loc 1 1308 0
 279 0036 FFF7FEFF 		bl	HAL_GPIO_Init
 280              	.LVL18:
1309:Drivers/STM32L4xx_HAL_Driver/Src/stm32l4xx_hal_rcc.c **** 
1310:Drivers/STM32L4xx_HAL_Driver/Src/stm32l4xx_hal_rcc.c ****   /* Mask MCOSEL[] and MCOPRE[] bits then set MCO1 clock source and prescaler */
1311:Drivers/STM32L4xx_HAL_Driver/Src/stm32l4xx_hal_rcc.c ****   MODIFY_REG(RCC->CFGR, (RCC_CFGR_MCOSEL | RCC_CFGR_MCOPRE), (RCC_MCOSource | RCC_MCODiv ));
 281              		.loc 1 1311 0
 282 003a A168     		ldr	r1, [r4, #8]
 283 003c 21F0EE41 		bic	r1, r1, #1996488704
 284 0040 3943     		orrs	r1, r1, r7
 285 0042 3143     		orrs	r1, r1, r6
 286 0044 A160     		str	r1, [r4, #8]
1312:Drivers/STM32L4xx_HAL_Driver/Src/stm32l4xx_hal_rcc.c **** }
 287              		.loc 1 1312 0
 288 0046 07B0     		add	sp, sp, #28
 289              	.LCFI3:
 290              		.cfi_def_cfa_offset 20
 291              		@ sp needed
 292 0048 F0BD     		pop	{r4, r5, r6, r7, pc}
 293              	.LVL19:
 294              	.L20:
 295 004a 00BF     		.align	2
 296              	.L19:
 297 004c 00100240 		.word	1073876992
ARM GAS  /tmp/ccap8I6O.s 			page 30


 298              		.cfi_endproc
 299              	.LFE133:
 301              		.section	.text.HAL_RCC_GetSysClockFreq,"ax",%progbits
 302              		.align	1
 303              		.p2align 2,,3
 304              		.global	HAL_RCC_GetSysClockFreq
 305              		.syntax unified
 306              		.thumb
 307              		.thumb_func
 308              		.fpu fpv4-sp-d16
 310              	HAL_RCC_GetSysClockFreq:
 311              	.LFB134:
1313:Drivers/STM32L4xx_HAL_Driver/Src/stm32l4xx_hal_rcc.c **** 
1314:Drivers/STM32L4xx_HAL_Driver/Src/stm32l4xx_hal_rcc.c **** /**
1315:Drivers/STM32L4xx_HAL_Driver/Src/stm32l4xx_hal_rcc.c ****   * @brief  Return the SYSCLK frequency.
1316:Drivers/STM32L4xx_HAL_Driver/Src/stm32l4xx_hal_rcc.c ****   *
1317:Drivers/STM32L4xx_HAL_Driver/Src/stm32l4xx_hal_rcc.c ****   * @note   The system frequency computed by this function is not the real
1318:Drivers/STM32L4xx_HAL_Driver/Src/stm32l4xx_hal_rcc.c ****   *         frequency in the chip. It is calculated based on the predefined
1319:Drivers/STM32L4xx_HAL_Driver/Src/stm32l4xx_hal_rcc.c ****   *         constant and the selected clock source:
1320:Drivers/STM32L4xx_HAL_Driver/Src/stm32l4xx_hal_rcc.c ****   * @note     If SYSCLK source is MSI, function returns values based on MSI
1321:Drivers/STM32L4xx_HAL_Driver/Src/stm32l4xx_hal_rcc.c ****   *             Value as defined by the MSI range.
1322:Drivers/STM32L4xx_HAL_Driver/Src/stm32l4xx_hal_rcc.c ****   * @note     If SYSCLK source is HSI, function returns values based on HSI_VALUE(*)
1323:Drivers/STM32L4xx_HAL_Driver/Src/stm32l4xx_hal_rcc.c ****   * @note     If SYSCLK source is HSE, function returns values based on HSE_VALUE(**)
1324:Drivers/STM32L4xx_HAL_Driver/Src/stm32l4xx_hal_rcc.c ****   * @note     If SYSCLK source is PLL, function returns values based on HSE_VALUE(**),
1325:Drivers/STM32L4xx_HAL_Driver/Src/stm32l4xx_hal_rcc.c ****   *           HSI_VALUE(*) or MSI Value multiplied/divided by the PLL factors.
1326:Drivers/STM32L4xx_HAL_Driver/Src/stm32l4xx_hal_rcc.c ****   * @note     (*) HSI_VALUE is a constant defined in stm32l4xx_hal_conf.h file (default value
1327:Drivers/STM32L4xx_HAL_Driver/Src/stm32l4xx_hal_rcc.c ****   *               16 MHz) but the real value may vary depending on the variations
1328:Drivers/STM32L4xx_HAL_Driver/Src/stm32l4xx_hal_rcc.c ****   *               in voltage and temperature.
1329:Drivers/STM32L4xx_HAL_Driver/Src/stm32l4xx_hal_rcc.c ****   * @note     (**) HSE_VALUE is a constant defined in stm32l4xx_hal_conf.h file (default value
1330:Drivers/STM32L4xx_HAL_Driver/Src/stm32l4xx_hal_rcc.c ****   *                8 MHz), user has to ensure that HSE_VALUE is same as the real
1331:Drivers/STM32L4xx_HAL_Driver/Src/stm32l4xx_hal_rcc.c ****   *                frequency of the crystal used. Otherwise, this function may
1332:Drivers/STM32L4xx_HAL_Driver/Src/stm32l4xx_hal_rcc.c ****   *                have wrong result.
1333:Drivers/STM32L4xx_HAL_Driver/Src/stm32l4xx_hal_rcc.c ****   *
1334:Drivers/STM32L4xx_HAL_Driver/Src/stm32l4xx_hal_rcc.c ****   * @note   The result of this function could be not correct when using fractional
1335:Drivers/STM32L4xx_HAL_Driver/Src/stm32l4xx_hal_rcc.c ****   *         value for HSE crystal.
1336:Drivers/STM32L4xx_HAL_Driver/Src/stm32l4xx_hal_rcc.c ****   *
1337:Drivers/STM32L4xx_HAL_Driver/Src/stm32l4xx_hal_rcc.c ****   * @note   This function can be used by the user application to compute the
1338:Drivers/STM32L4xx_HAL_Driver/Src/stm32l4xx_hal_rcc.c ****   *         baudrate for the communication peripherals or configure other parameters.
1339:Drivers/STM32L4xx_HAL_Driver/Src/stm32l4xx_hal_rcc.c ****   *
1340:Drivers/STM32L4xx_HAL_Driver/Src/stm32l4xx_hal_rcc.c ****   * @note   Each time SYSCLK changes, this function must be called to update the
1341:Drivers/STM32L4xx_HAL_Driver/Src/stm32l4xx_hal_rcc.c ****   *         right SYSCLK value. Otherwise, any configuration based on this function will be incorre
1342:Drivers/STM32L4xx_HAL_Driver/Src/stm32l4xx_hal_rcc.c ****   *
1343:Drivers/STM32L4xx_HAL_Driver/Src/stm32l4xx_hal_rcc.c ****   *
1344:Drivers/STM32L4xx_HAL_Driver/Src/stm32l4xx_hal_rcc.c ****   * @retval SYSCLK frequency
1345:Drivers/STM32L4xx_HAL_Driver/Src/stm32l4xx_hal_rcc.c ****   */
1346:Drivers/STM32L4xx_HAL_Driver/Src/stm32l4xx_hal_rcc.c **** uint32_t HAL_RCC_GetSysClockFreq(void)
1347:Drivers/STM32L4xx_HAL_Driver/Src/stm32l4xx_hal_rcc.c **** {
 312              		.loc 1 1347 0
 313              		.cfi_startproc
 314              		@ args = 0, pretend = 0, frame = 0
 315              		@ frame_needed = 0, uses_anonymous_args = 0
 316              		@ link register save eliminated.
 317              	.LVL20:
1348:Drivers/STM32L4xx_HAL_Driver/Src/stm32l4xx_hal_rcc.c ****   uint32_t msirange = 0U, sysclockfreq = 0U;
1349:Drivers/STM32L4xx_HAL_Driver/Src/stm32l4xx_hal_rcc.c ****   uint32_t pllvco, pllsource, pllr, pllm;    /* no init needed */
1350:Drivers/STM32L4xx_HAL_Driver/Src/stm32l4xx_hal_rcc.c ****   uint32_t sysclk_source, pll_oscsource;
1351:Drivers/STM32L4xx_HAL_Driver/Src/stm32l4xx_hal_rcc.c **** 
ARM GAS  /tmp/ccap8I6O.s 			page 31


1352:Drivers/STM32L4xx_HAL_Driver/Src/stm32l4xx_hal_rcc.c ****   sysclk_source = __HAL_RCC_GET_SYSCLK_SOURCE();
 318              		.loc 1 1352 0
 319 0000 284A     		ldr	r2, .L50
 320 0002 9368     		ldr	r3, [r2, #8]
 321              	.LVL21:
1353:Drivers/STM32L4xx_HAL_Driver/Src/stm32l4xx_hal_rcc.c ****   pll_oscsource = __HAL_RCC_GET_PLL_OSCSOURCE();
 322              		.loc 1 1353 0
 323 0004 D268     		ldr	r2, [r2, #12]
 324              	.LVL22:
1354:Drivers/STM32L4xx_HAL_Driver/Src/stm32l4xx_hal_rcc.c **** 
1355:Drivers/STM32L4xx_HAL_Driver/Src/stm32l4xx_hal_rcc.c ****   if((sysclk_source == RCC_CFGR_SWS_MSI) ||
 325              		.loc 1 1355 0
 326 0006 13F00C03 		ands	r3, r3, #12
 327              	.LVL23:
 328 000a 08D0     		beq	.L22
 329              		.loc 1 1355 0 is_stmt 0 discriminator 1
 330 000c 0C2B     		cmp	r3, #12
 331 000e 38D0     		beq	.L47
1356:Drivers/STM32L4xx_HAL_Driver/Src/stm32l4xx_hal_rcc.c ****      ((sysclk_source == RCC_CFGR_SWS_PLL) && (pll_oscsource == RCC_PLLSOURCE_MSI)))
1357:Drivers/STM32L4xx_HAL_Driver/Src/stm32l4xx_hal_rcc.c ****   {
1358:Drivers/STM32L4xx_HAL_Driver/Src/stm32l4xx_hal_rcc.c ****     /* MSI or PLL with MSI source used as system clock source */
1359:Drivers/STM32L4xx_HAL_Driver/Src/stm32l4xx_hal_rcc.c **** 
1360:Drivers/STM32L4xx_HAL_Driver/Src/stm32l4xx_hal_rcc.c ****     /* Get SYSCLK source */
1361:Drivers/STM32L4xx_HAL_Driver/Src/stm32l4xx_hal_rcc.c ****     if(READ_BIT(RCC->CR, RCC_CR_MSIRGSEL) == 0U)
1362:Drivers/STM32L4xx_HAL_Driver/Src/stm32l4xx_hal_rcc.c ****     { /* MSISRANGE from RCC_CSR applies */
1363:Drivers/STM32L4xx_HAL_Driver/Src/stm32l4xx_hal_rcc.c ****       msirange = READ_BIT(RCC->CSR, RCC_CSR_MSISRANGE) >> RCC_CSR_MSISRANGE_Pos;
1364:Drivers/STM32L4xx_HAL_Driver/Src/stm32l4xx_hal_rcc.c ****     }
1365:Drivers/STM32L4xx_HAL_Driver/Src/stm32l4xx_hal_rcc.c ****     else
1366:Drivers/STM32L4xx_HAL_Driver/Src/stm32l4xx_hal_rcc.c ****     { /* MSIRANGE from RCC_CR applies */
1367:Drivers/STM32L4xx_HAL_Driver/Src/stm32l4xx_hal_rcc.c ****       msirange = READ_BIT(RCC->CR, RCC_CR_MSIRANGE) >> RCC_CR_MSIRANGE_Pos;
1368:Drivers/STM32L4xx_HAL_Driver/Src/stm32l4xx_hal_rcc.c ****     }
1369:Drivers/STM32L4xx_HAL_Driver/Src/stm32l4xx_hal_rcc.c ****     /*MSI frequency range in HZ*/
1370:Drivers/STM32L4xx_HAL_Driver/Src/stm32l4xx_hal_rcc.c ****     msirange = MSIRangeTable[msirange];
1371:Drivers/STM32L4xx_HAL_Driver/Src/stm32l4xx_hal_rcc.c **** 
1372:Drivers/STM32L4xx_HAL_Driver/Src/stm32l4xx_hal_rcc.c ****     if(sysclk_source == RCC_CFGR_SWS_MSI)
1373:Drivers/STM32L4xx_HAL_Driver/Src/stm32l4xx_hal_rcc.c ****     {
1374:Drivers/STM32L4xx_HAL_Driver/Src/stm32l4xx_hal_rcc.c ****       /* MSI used as system clock source */
1375:Drivers/STM32L4xx_HAL_Driver/Src/stm32l4xx_hal_rcc.c ****       sysclockfreq = msirange;
1376:Drivers/STM32L4xx_HAL_Driver/Src/stm32l4xx_hal_rcc.c ****     }
1377:Drivers/STM32L4xx_HAL_Driver/Src/stm32l4xx_hal_rcc.c ****   }
1378:Drivers/STM32L4xx_HAL_Driver/Src/stm32l4xx_hal_rcc.c ****   else if(sysclk_source == RCC_CFGR_SWS_HSI)
 332              		.loc 1 1378 0 is_stmt 1
 333 0010 042B     		cmp	r3, #4
 334 0012 34D0     		beq	.L34
 335 0014 082B     		cmp	r3, #8
 336 0016 2448     		ldr	r0, .L50+4
 337 0018 18BF     		it	ne
 338 001a 0020     		movne	r0, #0
 339 001c 7047     		bx	lr
 340              	.LVL24:
 341              	.L22:
1361:Drivers/STM32L4xx_HAL_Driver/Src/stm32l4xx_hal_rcc.c ****     { /* MSISRANGE from RCC_CSR applies */
 342              		.loc 1 1361 0
 343 001e 214A     		ldr	r2, .L50
 344 0020 1168     		ldr	r1, [r2]
 345 0022 0907     		lsls	r1, r1, #28
1363:Drivers/STM32L4xx_HAL_Driver/Src/stm32l4xx_hal_rcc.c ****     }
ARM GAS  /tmp/ccap8I6O.s 			page 32


 346              		.loc 1 1363 0
 347 0024 54BF     		ite	pl
 348 0026 D2F89420 		ldrpl	r2, [r2, #148]
1367:Drivers/STM32L4xx_HAL_Driver/Src/stm32l4xx_hal_rcc.c ****     }
 349              		.loc 1 1367 0
 350 002a 1268     		ldrmi	r2, [r2]
1370:Drivers/STM32L4xx_HAL_Driver/Src/stm32l4xx_hal_rcc.c **** 
 351              		.loc 1 1370 0
 352 002c 1F49     		ldr	r1, .L50+8
1363:Drivers/STM32L4xx_HAL_Driver/Src/stm32l4xx_hal_rcc.c ****     }
 353              		.loc 1 1363 0
 354 002e 54BF     		ite	pl
 355 0030 C2F30322 		ubfxpl	r2, r2, #8, #4
 356              	.LVL25:
1367:Drivers/STM32L4xx_HAL_Driver/Src/stm32l4xx_hal_rcc.c ****     }
 357              		.loc 1 1367 0
 358 0034 C2F30312 		ubfxmi	r2, r2, #4, #4
 359              	.LVL26:
1370:Drivers/STM32L4xx_HAL_Driver/Src/stm32l4xx_hal_rcc.c **** 
 360              		.loc 1 1370 0
 361 0038 51F82200 		ldr	r0, [r1, r2, lsl #2]
 362              	.LVL27:
1372:Drivers/STM32L4xx_HAL_Driver/Src/stm32l4xx_hal_rcc.c ****     {
 363              		.loc 1 1372 0
 364 003c 03B3     		cbz	r3, .L21
1379:Drivers/STM32L4xx_HAL_Driver/Src/stm32l4xx_hal_rcc.c ****   {
1380:Drivers/STM32L4xx_HAL_Driver/Src/stm32l4xx_hal_rcc.c ****     /* HSI used as system clock source */
1381:Drivers/STM32L4xx_HAL_Driver/Src/stm32l4xx_hal_rcc.c ****     sysclockfreq = HSI_VALUE;
1382:Drivers/STM32L4xx_HAL_Driver/Src/stm32l4xx_hal_rcc.c ****   }
1383:Drivers/STM32L4xx_HAL_Driver/Src/stm32l4xx_hal_rcc.c ****   else if(sysclk_source == RCC_CFGR_SWS_HSE)
1384:Drivers/STM32L4xx_HAL_Driver/Src/stm32l4xx_hal_rcc.c ****   {
1385:Drivers/STM32L4xx_HAL_Driver/Src/stm32l4xx_hal_rcc.c ****     /* HSE used as system clock source */
1386:Drivers/STM32L4xx_HAL_Driver/Src/stm32l4xx_hal_rcc.c ****     sysclockfreq = HSE_VALUE;
1387:Drivers/STM32L4xx_HAL_Driver/Src/stm32l4xx_hal_rcc.c ****   }
1388:Drivers/STM32L4xx_HAL_Driver/Src/stm32l4xx_hal_rcc.c ****   else
1389:Drivers/STM32L4xx_HAL_Driver/Src/stm32l4xx_hal_rcc.c ****   {
1390:Drivers/STM32L4xx_HAL_Driver/Src/stm32l4xx_hal_rcc.c ****     /* unexpected case: sysclockfreq at 0 */
1391:Drivers/STM32L4xx_HAL_Driver/Src/stm32l4xx_hal_rcc.c ****   }
1392:Drivers/STM32L4xx_HAL_Driver/Src/stm32l4xx_hal_rcc.c **** 
1393:Drivers/STM32L4xx_HAL_Driver/Src/stm32l4xx_hal_rcc.c ****   if(sysclk_source == RCC_CFGR_SWS_PLL)
 365              		.loc 1 1393 0
 366 003e 0C2B     		cmp	r3, #12
 367 0040 2DD1     		bne	.L48
1394:Drivers/STM32L4xx_HAL_Driver/Src/stm32l4xx_hal_rcc.c ****   {
1395:Drivers/STM32L4xx_HAL_Driver/Src/stm32l4xx_hal_rcc.c ****     /* PLL used as system clock  source */
1396:Drivers/STM32L4xx_HAL_Driver/Src/stm32l4xx_hal_rcc.c **** 
1397:Drivers/STM32L4xx_HAL_Driver/Src/stm32l4xx_hal_rcc.c ****     /* PLL_VCO = (HSE_VALUE or HSI_VALUE or MSI_VALUE) * PLLN / PLLM
1398:Drivers/STM32L4xx_HAL_Driver/Src/stm32l4xx_hal_rcc.c ****     SYSCLK = PLL_VCO / PLLR
1399:Drivers/STM32L4xx_HAL_Driver/Src/stm32l4xx_hal_rcc.c ****     */
1400:Drivers/STM32L4xx_HAL_Driver/Src/stm32l4xx_hal_rcc.c ****     pllsource = READ_BIT(RCC->PLLCFGR, RCC_PLLCFGR_PLLSRC);
 368              		.loc 1 1400 0
 369 0042 184B     		ldr	r3, .L50
 370              	.LVL28:
 371 0044 DB68     		ldr	r3, [r3, #12]
 372              	.LVL29:
 373 0046 03F00303 		and	r3, r3, #3
 374              	.LVL30:
ARM GAS  /tmp/ccap8I6O.s 			page 33


1401:Drivers/STM32L4xx_HAL_Driver/Src/stm32l4xx_hal_rcc.c **** 
1402:Drivers/STM32L4xx_HAL_Driver/Src/stm32l4xx_hal_rcc.c ****     switch (pllsource)
 375              		.loc 1 1402 0
 376 004a 022B     		cmp	r3, #2
 377 004c 25D0     		beq	.L37
 378              	.LVL31:
 379              	.L49:
1403:Drivers/STM32L4xx_HAL_Driver/Src/stm32l4xx_hal_rcc.c ****     {
1404:Drivers/STM32L4xx_HAL_Driver/Src/stm32l4xx_hal_rcc.c ****     case RCC_PLLSOURCE_HSI:  /* HSI used as PLL clock source */
1405:Drivers/STM32L4xx_HAL_Driver/Src/stm32l4xx_hal_rcc.c ****       pllvco = HSI_VALUE;
1406:Drivers/STM32L4xx_HAL_Driver/Src/stm32l4xx_hal_rcc.c ****       break;
1407:Drivers/STM32L4xx_HAL_Driver/Src/stm32l4xx_hal_rcc.c **** 
1408:Drivers/STM32L4xx_HAL_Driver/Src/stm32l4xx_hal_rcc.c ****     case RCC_PLLSOURCE_HSE:  /* HSE used as PLL clock source */
1409:Drivers/STM32L4xx_HAL_Driver/Src/stm32l4xx_hal_rcc.c ****       pllvco = HSE_VALUE;
 380              		.loc 1 1409 0
 381 004e 164A     		ldr	r2, .L50+4
 382 0050 032B     		cmp	r3, #3
 383 0052 08BF     		it	eq
 384 0054 1046     		moveq	r0, r2
 385              	.LVL32:
 386              	.L31:
1410:Drivers/STM32L4xx_HAL_Driver/Src/stm32l4xx_hal_rcc.c ****       break;
1411:Drivers/STM32L4xx_HAL_Driver/Src/stm32l4xx_hal_rcc.c **** 
1412:Drivers/STM32L4xx_HAL_Driver/Src/stm32l4xx_hal_rcc.c ****     case RCC_PLLSOURCE_MSI:  /* MSI used as PLL clock source */
1413:Drivers/STM32L4xx_HAL_Driver/Src/stm32l4xx_hal_rcc.c ****     default:
1414:Drivers/STM32L4xx_HAL_Driver/Src/stm32l4xx_hal_rcc.c ****       pllvco = msirange;
1415:Drivers/STM32L4xx_HAL_Driver/Src/stm32l4xx_hal_rcc.c ****       break;
1416:Drivers/STM32L4xx_HAL_Driver/Src/stm32l4xx_hal_rcc.c ****     }
1417:Drivers/STM32L4xx_HAL_Driver/Src/stm32l4xx_hal_rcc.c ****     pllm = (READ_BIT(RCC->PLLCFGR, RCC_PLLCFGR_PLLM) >> RCC_PLLCFGR_PLLM_Pos) + 1U ;
 387              		.loc 1 1417 0
 388 0056 134B     		ldr	r3, .L50
 389 0058 D968     		ldr	r1, [r3, #12]
 390              	.LVL33:
1418:Drivers/STM32L4xx_HAL_Driver/Src/stm32l4xx_hal_rcc.c ****     pllvco = (pllvco * (READ_BIT(RCC->PLLCFGR, RCC_PLLCFGR_PLLN) >> RCC_PLLCFGR_PLLN_Pos)) / pllm;
 391              		.loc 1 1418 0
 392 005a DA68     		ldr	r2, [r3, #12]
1419:Drivers/STM32L4xx_HAL_Driver/Src/stm32l4xx_hal_rcc.c ****     pllr = ((READ_BIT(RCC->PLLCFGR, RCC_PLLCFGR_PLLR) >> RCC_PLLCFGR_PLLR_Pos) + 1U ) * 2U;
 393              		.loc 1 1419 0
 394 005c DB68     		ldr	r3, [r3, #12]
 395 005e C3F34163 		ubfx	r3, r3, #25, #2
 396 0062 0133     		adds	r3, r3, #1
1417:Drivers/STM32L4xx_HAL_Driver/Src/stm32l4xx_hal_rcc.c ****     pllvco = (pllvco * (READ_BIT(RCC->PLLCFGR, RCC_PLLCFGR_PLLN) >> RCC_PLLCFGR_PLLN_Pos)) / pllm;
 397              		.loc 1 1417 0
 398 0064 C1F30211 		ubfx	r1, r1, #4, #3
 399              	.LVL34:
1418:Drivers/STM32L4xx_HAL_Driver/Src/stm32l4xx_hal_rcc.c ****     pllvco = (pllvco * (READ_BIT(RCC->PLLCFGR, RCC_PLLCFGR_PLLN) >> RCC_PLLCFGR_PLLN_Pos)) / pllm;
 400              		.loc 1 1418 0
 401 0068 C2F30622 		ubfx	r2, r2, #8, #7
 402 006c 00FB02F2 		mul	r2, r0, r2
 403              	.LVL35:
1417:Drivers/STM32L4xx_HAL_Driver/Src/stm32l4xx_hal_rcc.c ****     pllvco = (pllvco * (READ_BIT(RCC->PLLCFGR, RCC_PLLCFGR_PLLN) >> RCC_PLLCFGR_PLLN_Pos)) / pllm;
 404              		.loc 1 1417 0
 405 0070 0131     		adds	r1, r1, #1
 406              		.loc 1 1419 0
 407 0072 5800     		lsls	r0, r3, #1
1418:Drivers/STM32L4xx_HAL_Driver/Src/stm32l4xx_hal_rcc.c ****     pllvco = (pllvco * (READ_BIT(RCC->PLLCFGR, RCC_PLLCFGR_PLLN) >> RCC_PLLCFGR_PLLN_Pos)) / pllm;
 408              		.loc 1 1418 0
ARM GAS  /tmp/ccap8I6O.s 			page 34


 409 0074 B2FBF1F3 		udiv	r3, r2, r1
1420:Drivers/STM32L4xx_HAL_Driver/Src/stm32l4xx_hal_rcc.c ****     sysclockfreq = pllvco / pllr;
 410              		.loc 1 1420 0
 411 0078 B3FBF0F0 		udiv	r0, r3, r0
 412              	.LVL36:
 413 007c 7047     		bx	lr
 414              	.LVL37:
 415              	.L34:
1381:Drivers/STM32L4xx_HAL_Driver/Src/stm32l4xx_hal_rcc.c ****   }
 416              		.loc 1 1381 0
 417 007e 0C48     		ldr	r0, .L50+12
 418              	.LVL38:
 419              	.L21:
1421:Drivers/STM32L4xx_HAL_Driver/Src/stm32l4xx_hal_rcc.c ****   }
1422:Drivers/STM32L4xx_HAL_Driver/Src/stm32l4xx_hal_rcc.c **** 
1423:Drivers/STM32L4xx_HAL_Driver/Src/stm32l4xx_hal_rcc.c ****   return sysclockfreq;
1424:Drivers/STM32L4xx_HAL_Driver/Src/stm32l4xx_hal_rcc.c **** }
 420              		.loc 1 1424 0
 421 0080 7047     		bx	lr
 422              	.LVL39:
 423              	.L47:
1353:Drivers/STM32L4xx_HAL_Driver/Src/stm32l4xx_hal_rcc.c **** 
 424              		.loc 1 1353 0
 425 0082 02F00302 		and	r2, r2, #3
 426              	.LVL40:
1356:Drivers/STM32L4xx_HAL_Driver/Src/stm32l4xx_hal_rcc.c ****   {
 427              		.loc 1 1356 0
 428 0086 012A     		cmp	r2, #1
 429 0088 C9D0     		beq	.L22
1400:Drivers/STM32L4xx_HAL_Driver/Src/stm32l4xx_hal_rcc.c **** 
 430              		.loc 1 1400 0
 431 008a 064B     		ldr	r3, .L50
 432              	.LVL41:
 433 008c DB68     		ldr	r3, [r3, #12]
 434 008e 03F00303 		and	r3, r3, #3
1402:Drivers/STM32L4xx_HAL_Driver/Src/stm32l4xx_hal_rcc.c ****     {
 435              		.loc 1 1402 0
 436 0092 022B     		cmp	r3, #2
1348:Drivers/STM32L4xx_HAL_Driver/Src/stm32l4xx_hal_rcc.c ****   uint32_t pllvco, pllsource, pllr, pllm;    /* no init needed */
 437              		.loc 1 1348 0
 438 0094 4FF00000 		mov	r0, #0
 439              	.LVL42:
1402:Drivers/STM32L4xx_HAL_Driver/Src/stm32l4xx_hal_rcc.c ****     {
 440              		.loc 1 1402 0
 441 0098 D9D1     		bne	.L49
 442              	.L37:
1405:Drivers/STM32L4xx_HAL_Driver/Src/stm32l4xx_hal_rcc.c ****       break;
 443              		.loc 1 1405 0
 444 009a 0548     		ldr	r0, .L50+12
 445              	.LVL43:
 446 009c DBE7     		b	.L31
 447              	.LVL44:
 448              	.L48:
 449 009e 0020     		movs	r0, #0
 450              	.LVL45:
1423:Drivers/STM32L4xx_HAL_Driver/Src/stm32l4xx_hal_rcc.c **** }
 451              		.loc 1 1423 0
ARM GAS  /tmp/ccap8I6O.s 			page 35


 452 00a0 7047     		bx	lr
 453              	.L51:
 454 00a2 00BF     		.align	2
 455              	.L50:
 456 00a4 00100240 		.word	1073876992
 457 00a8 00127A00 		.word	8000000
 458 00ac 00000000 		.word	MSIRangeTable
 459 00b0 0024F400 		.word	16000000
 460              		.cfi_endproc
 461              	.LFE134:
 463              		.section	.text.HAL_RCC_OscConfig,"ax",%progbits
 464              		.align	1
 465              		.p2align 2,,3
 466              		.global	HAL_RCC_OscConfig
 467              		.syntax unified
 468              		.thumb
 469              		.thumb_func
 470              		.fpu fpv4-sp-d16
 472              	HAL_RCC_OscConfig:
 473              	.LFB131:
 402:Drivers/STM32L4xx_HAL_Driver/Src/stm32l4xx_hal_rcc.c ****   uint32_t tickstart;
 474              		.loc 1 402 0
 475              		.cfi_startproc
 476              		@ args = 0, pretend = 0, frame = 16
 477              		@ frame_needed = 0, uses_anonymous_args = 0
 478              	.LVL46:
 408:Drivers/STM32L4xx_HAL_Driver/Src/stm32l4xx_hal_rcc.c ****   {
 479              		.loc 1 408 0
 480 0000 0028     		cmp	r0, #0
 481 0002 00F0EB82 		beq	.L201
 402:Drivers/STM32L4xx_HAL_Driver/Src/stm32l4xx_hal_rcc.c ****   uint32_t tickstart;
 482              		.loc 1 402 0
 483 0006 2DE9F043 		push	{r4, r5, r6, r7, r8, r9, lr}
 484              	.LCFI4:
 485              		.cfi_def_cfa_offset 28
 486              		.cfi_offset 4, -28
 487              		.cfi_offset 5, -24
 488              		.cfi_offset 6, -20
 489              		.cfi_offset 7, -16
 490              		.cfi_offset 8, -12
 491              		.cfi_offset 9, -8
 492              		.cfi_offset 14, -4
 416:Drivers/STM32L4xx_HAL_Driver/Src/stm32l4xx_hal_rcc.c ****   pll_config = __HAL_RCC_GET_PLL_OSCSOURCE();
 493              		.loc 1 416 0
 494 000a B94A     		ldr	r2, .L222
 420:Drivers/STM32L4xx_HAL_Driver/Src/stm32l4xx_hal_rcc.c ****   {
 495              		.loc 1 420 0
 496 000c 0368     		ldr	r3, [r0]
 416:Drivers/STM32L4xx_HAL_Driver/Src/stm32l4xx_hal_rcc.c ****   pll_config = __HAL_RCC_GET_PLL_OSCSOURCE();
 497              		.loc 1 416 0
 498 000e 9568     		ldr	r5, [r2, #8]
 417:Drivers/STM32L4xx_HAL_Driver/Src/stm32l4xx_hal_rcc.c **** 
 499              		.loc 1 417 0
 500 0010 D668     		ldr	r6, [r2, #12]
 420:Drivers/STM32L4xx_HAL_Driver/Src/stm32l4xx_hal_rcc.c ****   {
 501              		.loc 1 420 0
 502 0012 DA06     		lsls	r2, r3, #27
ARM GAS  /tmp/ccap8I6O.s 			page 36


 402:Drivers/STM32L4xx_HAL_Driver/Src/stm32l4xx_hal_rcc.c ****   uint32_t tickstart;
 503              		.loc 1 402 0
 504 0014 85B0     		sub	sp, sp, #20
 505              	.LCFI5:
 506              		.cfi_def_cfa_offset 48
 507 0016 0446     		mov	r4, r0
 416:Drivers/STM32L4xx_HAL_Driver/Src/stm32l4xx_hal_rcc.c ****   pll_config = __HAL_RCC_GET_PLL_OSCSOURCE();
 508              		.loc 1 416 0
 509 0018 05F00C05 		and	r5, r5, #12
 510              	.LVL47:
 417:Drivers/STM32L4xx_HAL_Driver/Src/stm32l4xx_hal_rcc.c **** 
 511              		.loc 1 417 0
 512 001c 06F00306 		and	r6, r6, #3
 513              	.LVL48:
 420:Drivers/STM32L4xx_HAL_Driver/Src/stm32l4xx_hal_rcc.c ****   {
 514              		.loc 1 420 0
 515 0020 2ED5     		bpl	.L55
 428:Drivers/STM32L4xx_HAL_Driver/Src/stm32l4xx_hal_rcc.c ****        ((sysclk_source == RCC_CFGR_SWS_PLL) && (pll_config == RCC_PLLSOURCE_MSI)))
 516              		.loc 1 428 0
 517 0022 002D     		cmp	r5, #0
 518 0024 00F00A81 		beq	.L56
 428:Drivers/STM32L4xx_HAL_Driver/Src/stm32l4xx_hal_rcc.c ****        ((sysclk_source == RCC_CFGR_SWS_PLL) && (pll_config == RCC_PLLSOURCE_MSI)))
 519              		.loc 1 428 0 is_stmt 0 discriminator 1
 520 0028 0C2D     		cmp	r5, #12
 521 002a 00F00481 		beq	.L205
 522              	.L57:
 484:Drivers/STM32L4xx_HAL_Driver/Src/stm32l4xx_hal_rcc.c ****       {
 523              		.loc 1 484 0 is_stmt 1
 524 002e A369     		ldr	r3, [r4, #24]
 487:Drivers/STM32L4xx_HAL_Driver/Src/stm32l4xx_hal_rcc.c **** 
 525              		.loc 1 487 0
 526 0030 AF4F     		ldr	r7, .L222
 484:Drivers/STM32L4xx_HAL_Driver/Src/stm32l4xx_hal_rcc.c ****       {
 527              		.loc 1 484 0
 528 0032 002B     		cmp	r3, #0
 529 0034 00F06981 		beq	.L72
 487:Drivers/STM32L4xx_HAL_Driver/Src/stm32l4xx_hal_rcc.c **** 
 530              		.loc 1 487 0
 531 0038 3B68     		ldr	r3, [r7]
 532 003a 43F00103 		orr	r3, r3, #1
 533 003e 3B60     		str	r3, [r7]
 490:Drivers/STM32L4xx_HAL_Driver/Src/stm32l4xx_hal_rcc.c **** 
 534              		.loc 1 490 0
 535 0040 FFF7FEFF 		bl	HAL_GetTick
 536              	.LVL49:
 537 0044 8046     		mov	r8, r0
 538              	.LVL50:
 493:Drivers/STM32L4xx_HAL_Driver/Src/stm32l4xx_hal_rcc.c ****         {
 539              		.loc 1 493 0
 540 0046 06E0     		b	.L73
 541              	.LVL51:
 542              	.L74:
 495:Drivers/STM32L4xx_HAL_Driver/Src/stm32l4xx_hal_rcc.c ****           {
 543              		.loc 1 495 0
 544 0048 FFF7FEFF 		bl	HAL_GetTick
 545              	.LVL52:
 546 004c A0EB0800 		sub	r0, r0, r8
ARM GAS  /tmp/ccap8I6O.s 			page 37


 547 0050 0228     		cmp	r0, #2
 548 0052 00F2C981 		bhi	.L76
 549              	.L73:
 493:Drivers/STM32L4xx_HAL_Driver/Src/stm32l4xx_hal_rcc.c ****         {
 550              		.loc 1 493 0
 551 0056 3B68     		ldr	r3, [r7]
 552 0058 9B07     		lsls	r3, r3, #30
 553 005a F5D5     		bpl	.L74
 501:Drivers/STM32L4xx_HAL_Driver/Src/stm32l4xx_hal_rcc.c ****          /* Adjusts the Multiple Speed oscillator (MSI) calibration value.*/
 554              		.loc 1 501 0
 555 005c 3B68     		ldr	r3, [r7]
 556 005e 43F00803 		orr	r3, r3, #8
 557 0062 3B60     		str	r3, [r7]
 558 0064 3B68     		ldr	r3, [r7]
 559 0066 226A     		ldr	r2, [r4, #32]
 560 0068 23F0F003 		bic	r3, r3, #240
 561 006c 1343     		orrs	r3, r3, r2
 562 006e 3B60     		str	r3, [r7]
 503:Drivers/STM32L4xx_HAL_Driver/Src/stm32l4xx_hal_rcc.c **** 
 563              		.loc 1 503 0
 564 0070 7B68     		ldr	r3, [r7, #4]
 565 0072 E269     		ldr	r2, [r4, #28]
 566 0074 23F47F43 		bic	r3, r3, #65280
 567 0078 43EA0223 		orr	r3, r3, r2, lsl #8
 568 007c 7B60     		str	r3, [r7, #4]
 569 007e 2368     		ldr	r3, [r4]
 570              	.LVL53:
 571              	.L55:
 526:Drivers/STM32L4xx_HAL_Driver/Src/stm32l4xx_hal_rcc.c ****   {
 572              		.loc 1 526 0
 573 0080 D907     		lsls	r1, r3, #31
 574 0082 29D5     		bpl	.L78
 575              	.L219:
 532:Drivers/STM32L4xx_HAL_Driver/Src/stm32l4xx_hal_rcc.c ****        ((sysclk_source == RCC_CFGR_SWS_PLL) && (pll_config == RCC_PLLSOURCE_HSE)))
 576              		.loc 1 532 0
 577 0084 082D     		cmp	r5, #8
 578 0086 00F08081 		beq	.L79
 532:Drivers/STM32L4xx_HAL_Driver/Src/stm32l4xx_hal_rcc.c ****        ((sysclk_source == RCC_CFGR_SWS_PLL) && (pll_config == RCC_PLLSOURCE_HSE)))
 579              		.loc 1 532 0 is_stmt 0 discriminator 1
 580 008a 0C2D     		cmp	r5, #12
 581 008c 00F07A81 		beq	.L206
 582              	.L80:
 543:Drivers/STM32L4xx_HAL_Driver/Src/stm32l4xx_hal_rcc.c **** 
 583              		.loc 1 543 0 is_stmt 1
 584 0090 6368     		ldr	r3, [r4, #4]
 585 0092 B3F5803F 		cmp	r3, #65536
 586 0096 00F08281 		beq	.L207
 543:Drivers/STM32L4xx_HAL_Driver/Src/stm32l4xx_hal_rcc.c **** 
 587              		.loc 1 543 0 is_stmt 0 discriminator 2
 588 009a B3F5A02F 		cmp	r3, #327680
 589 009e 00F04D82 		beq	.L208
 543:Drivers/STM32L4xx_HAL_Driver/Src/stm32l4xx_hal_rcc.c **** 
 590              		.loc 1 543 0 discriminator 4
 591 00a2 934F     		ldr	r7, .L222
 592 00a4 3A68     		ldr	r2, [r7]
 593 00a6 22F48032 		bic	r2, r2, #65536
 594 00aa 3A60     		str	r2, [r7]
ARM GAS  /tmp/ccap8I6O.s 			page 38


 595 00ac 3A68     		ldr	r2, [r7]
 596 00ae 22F48022 		bic	r2, r2, #262144
 597 00b2 3A60     		str	r2, [r7]
 546:Drivers/STM32L4xx_HAL_Driver/Src/stm32l4xx_hal_rcc.c ****       {
 598              		.loc 1 546 0 is_stmt 1 discriminator 4
 599 00b4 002B     		cmp	r3, #0
 600 00b6 40F07781 		bne	.L82
 563:Drivers/STM32L4xx_HAL_Driver/Src/stm32l4xx_hal_rcc.c **** 
 601              		.loc 1 563 0
 602 00ba FFF7FEFF 		bl	HAL_GetTick
 603              	.LVL54:
 604 00be 8046     		mov	r8, r0
 605              	.LVL55:
 566:Drivers/STM32L4xx_HAL_Driver/Src/stm32l4xx_hal_rcc.c ****         {
 606              		.loc 1 566 0
 607 00c0 06E0     		b	.L86
 608              	.LVL56:
 609              	.L87:
 568:Drivers/STM32L4xx_HAL_Driver/Src/stm32l4xx_hal_rcc.c ****           {
 610              		.loc 1 568 0
 611 00c2 FFF7FEFF 		bl	HAL_GetTick
 612              	.LVL57:
 613 00c6 A0EB0800 		sub	r0, r0, r8
 614 00ca 6428     		cmp	r0, #100
 615 00cc 00F28C81 		bhi	.L76
 616              	.L86:
 566:Drivers/STM32L4xx_HAL_Driver/Src/stm32l4xx_hal_rcc.c ****         {
 617              		.loc 1 566 0
 618 00d0 3B68     		ldr	r3, [r7]
 619 00d2 9803     		lsls	r0, r3, #14
 620 00d4 F5D4     		bmi	.L87
 621              	.L199:
 622 00d6 2368     		ldr	r3, [r4]
 623              	.LVL58:
 624              	.L78:
 577:Drivers/STM32L4xx_HAL_Driver/Src/stm32l4xx_hal_rcc.c ****   {
 625              		.loc 1 577 0
 626 00d8 9907     		lsls	r1, r3, #30
 627 00da 00F18780 		bmi	.L209
 628              	.LVL59:
 629              	.L88:
 642:Drivers/STM32L4xx_HAL_Driver/Src/stm32l4xx_hal_rcc.c ****   {
 630              		.loc 1 642 0
 631 00de 1907     		lsls	r1, r3, #28
 632 00e0 19D5     		bpl	.L97
 648:Drivers/STM32L4xx_HAL_Driver/Src/stm32l4xx_hal_rcc.c ****     {
 633              		.loc 1 648 0
 634 00e2 6369     		ldr	r3, [r4, #20]
 690:Drivers/STM32L4xx_HAL_Driver/Src/stm32l4xx_hal_rcc.c **** 
 635              		.loc 1 690 0
 636 00e4 824E     		ldr	r6, .L222
 648:Drivers/STM32L4xx_HAL_Driver/Src/stm32l4xx_hal_rcc.c ****     {
 637              		.loc 1 648 0
 638 00e6 002B     		cmp	r3, #0
 639 00e8 00F02581 		beq	.L98
 690:Drivers/STM32L4xx_HAL_Driver/Src/stm32l4xx_hal_rcc.c **** 
 640              		.loc 1 690 0
ARM GAS  /tmp/ccap8I6O.s 			page 39


 641 00ec D6F89430 		ldr	r3, [r6, #148]
 642 00f0 43F00103 		orr	r3, r3, #1
 643 00f4 C6F89430 		str	r3, [r6, #148]
 693:Drivers/STM32L4xx_HAL_Driver/Src/stm32l4xx_hal_rcc.c **** 
 644              		.loc 1 693 0
 645 00f8 FFF7FEFF 		bl	HAL_GetTick
 646              	.LVL60:
 647 00fc 0746     		mov	r7, r0
 648              	.LVL61:
 696:Drivers/STM32L4xx_HAL_Driver/Src/stm32l4xx_hal_rcc.c ****       {
 649              		.loc 1 696 0
 650 00fe 05E0     		b	.L99
 651              	.LVL62:
 652              	.L100:
 698:Drivers/STM32L4xx_HAL_Driver/Src/stm32l4xx_hal_rcc.c ****         {
 653              		.loc 1 698 0
 654 0100 FFF7FEFF 		bl	HAL_GetTick
 655              	.LVL63:
 656 0104 C01B     		subs	r0, r0, r7
 657 0106 0228     		cmp	r0, #2
 658 0108 00F26E81 		bhi	.L76
 659              	.L99:
 696:Drivers/STM32L4xx_HAL_Driver/Src/stm32l4xx_hal_rcc.c ****       {
 660              		.loc 1 696 0
 661 010c D6F89430 		ldr	r3, [r6, #148]
 662 0110 9A07     		lsls	r2, r3, #30
 663 0112 F5D5     		bpl	.L100
 664              	.L200:
 665 0114 2368     		ldr	r3, [r4]
 666              	.LVL64:
 667              	.L97:
 723:Drivers/STM32L4xx_HAL_Driver/Src/stm32l4xx_hal_rcc.c ****   {
 668              		.loc 1 723 0
 669 0116 5E07     		lsls	r6, r3, #29
 670 0118 3ED5     		bpl	.L104
 671              	.LVL65:
 672              	.LBB17:
 732:Drivers/STM32L4xx_HAL_Driver/Src/stm32l4xx_hal_rcc.c ****     {
 673              		.loc 1 732 0
 674 011a 754B     		ldr	r3, .L222
 675 011c 9A6D     		ldr	r2, [r3, #88]
 676 011e D000     		lsls	r0, r2, #3
 677 0120 00F1D681 		bmi	.L143
 678              	.LBB18:
 734:Drivers/STM32L4xx_HAL_Driver/Src/stm32l4xx_hal_rcc.c ****       pwrclkchanged = SET;
 679              		.loc 1 734 0
 680 0124 9A6D     		ldr	r2, [r3, #88]
 681 0126 42F08052 		orr	r2, r2, #268435456
 682 012a 9A65     		str	r2, [r3, #88]
 683 012c 9B6D     		ldr	r3, [r3, #88]
 684 012e 03F08053 		and	r3, r3, #268435456
 685 0132 0193     		str	r3, [sp, #4]
 686 0134 019B     		ldr	r3, [sp, #4]
 687              	.LVL66:
 688              	.LBE18:
 735:Drivers/STM32L4xx_HAL_Driver/Src/stm32l4xx_hal_rcc.c ****     }
 689              		.loc 1 735 0
ARM GAS  /tmp/ccap8I6O.s 			page 40


 690 0136 0127     		movs	r7, #1
 691              	.LVL67:
 692              	.L105:
 738:Drivers/STM32L4xx_HAL_Driver/Src/stm32l4xx_hal_rcc.c ****     {
 693              		.loc 1 738 0
 694 0138 6E4E     		ldr	r6, .L222+4
 695 013a 3368     		ldr	r3, [r6]
 696 013c D905     		lsls	r1, r3, #23
 697 013e 40F14281 		bpl	.L106
 698              	.L111:
 780:Drivers/STM32L4xx_HAL_Driver/Src/stm32l4xx_hal_rcc.c **** #endif /* RCC_BDCR_LSESYSDIS */
 699              		.loc 1 780 0
 700 0142 A368     		ldr	r3, [r4, #8]
 701 0144 012B     		cmp	r3, #1
 702 0146 00F03D82 		beq	.L210
 780:Drivers/STM32L4xx_HAL_Driver/Src/stm32l4xx_hal_rcc.c **** #endif /* RCC_BDCR_LSESYSDIS */
 703              		.loc 1 780 0 is_stmt 0 discriminator 2
 704 014a 052B     		cmp	r3, #5
 705 014c 00F0C281 		beq	.L211
 780:Drivers/STM32L4xx_HAL_Driver/Src/stm32l4xx_hal_rcc.c **** #endif /* RCC_BDCR_LSESYSDIS */
 706              		.loc 1 780 0 discriminator 4
 707 0150 674E     		ldr	r6, .L222
 708 0152 D6F89020 		ldr	r2, [r6, #144]
 709 0156 22F00102 		bic	r2, r2, #1
 710 015a C6F89020 		str	r2, [r6, #144]
 711 015e D6F89020 		ldr	r2, [r6, #144]
 712 0162 22F00402 		bic	r2, r2, #4
 713 0166 C6F89020 		str	r2, [r6, #144]
 784:Drivers/STM32L4xx_HAL_Driver/Src/stm32l4xx_hal_rcc.c ****     {
 714              		.loc 1 784 0 is_stmt 1 discriminator 4
 715 016a 002B     		cmp	r3, #0
 716 016c 40F0BF81 		bne	.L112
 801:Drivers/STM32L4xx_HAL_Driver/Src/stm32l4xx_hal_rcc.c **** 
 717              		.loc 1 801 0
 718 0170 FFF7FEFF 		bl	HAL_GetTick
 719              	.LVL68:
 806:Drivers/STM32L4xx_HAL_Driver/Src/stm32l4xx_hal_rcc.c ****         {
 720              		.loc 1 806 0
 721 0174 41F28838 		movw	r8, #5000
 801:Drivers/STM32L4xx_HAL_Driver/Src/stm32l4xx_hal_rcc.c **** 
 722              		.loc 1 801 0
 723 0178 8146     		mov	r9, r0
 724              	.LVL69:
 804:Drivers/STM32L4xx_HAL_Driver/Src/stm32l4xx_hal_rcc.c ****       {
 725              		.loc 1 804 0
 726 017a 06E0     		b	.L118
 727              	.LVL70:
 728              	.L119:
 806:Drivers/STM32L4xx_HAL_Driver/Src/stm32l4xx_hal_rcc.c ****         {
 729              		.loc 1 806 0
 730 017c FFF7FEFF 		bl	HAL_GetTick
 731              	.LVL71:
 732 0180 A0EB0900 		sub	r0, r0, r9
 733 0184 4045     		cmp	r0, r8
 734 0186 00F22F81 		bhi	.L76
 735              	.L118:
 804:Drivers/STM32L4xx_HAL_Driver/Src/stm32l4xx_hal_rcc.c ****       {
ARM GAS  /tmp/ccap8I6O.s 			page 41


 736              		.loc 1 804 0
 737 018a D6F89030 		ldr	r3, [r6, #144]
 738 018e 9807     		lsls	r0, r3, #30
 739 0190 F4D4     		bmi	.L119
 819:Drivers/STM32L4xx_HAL_Driver/Src/stm32l4xx_hal_rcc.c ****     {
 740              		.loc 1 819 0
 741 0192 002F     		cmp	r7, #0
 742 0194 40F0CC81 		bne	.L212
 743              	.LVL72:
 744              	.L104:
 745              	.LBE17:
 872:Drivers/STM32L4xx_HAL_Driver/Src/stm32l4xx_hal_rcc.c ****   {
 746              		.loc 1 872 0
 747 0198 A06A     		ldr	r0, [r4, #40]
 748 019a 18B3     		cbz	r0, .L128
 875:Drivers/STM32L4xx_HAL_Driver/Src/stm32l4xx_hal_rcc.c ****     {
 749              		.loc 1 875 0
 750 019c 0C2D     		cmp	r5, #12
 751 019e 00F0DA81 		beq	.L122
 877:Drivers/STM32L4xx_HAL_Driver/Src/stm32l4xx_hal_rcc.c ****       {
 752              		.loc 1 877 0
 753 01a2 0228     		cmp	r0, #2
 754 01a4 00F02E82 		beq	.L213
 935:Drivers/STM32L4xx_HAL_Driver/Src/stm32l4xx_hal_rcc.c **** 
 755              		.loc 1 935 0
 756 01a8 514B     		ldr	r3, .L222
 757 01aa 1A68     		ldr	r2, [r3]
 758 01ac 22F08072 		bic	r2, r2, #16777216
 759 01b0 1A60     		str	r2, [r3]
 939:Drivers/STM32L4xx_HAL_Driver/Src/stm32l4xx_hal_rcc.c ****         {
 760              		.loc 1 939 0
 761 01b2 1A68     		ldr	r2, [r3]
 762 01b4 12F0205F 		tst	r2, #671088640
 763 01b8 00F0B581 		beq	.L214
 764              	.L129:
 953:Drivers/STM32L4xx_HAL_Driver/Src/stm32l4xx_hal_rcc.c **** #elif defined(RCC_PLLSAI1_SUPPORT)
 765              		.loc 1 953 0
 766 01bc 4C4C     		ldr	r4, .L222
 767              	.LVL73:
 768 01be E368     		ldr	r3, [r4, #12]
 769 01c0 23F08873 		bic	r3, r3, #17825792
 770 01c4 23F48033 		bic	r3, r3, #65536
 771 01c8 E360     		str	r3, [r4, #12]
 961:Drivers/STM32L4xx_HAL_Driver/Src/stm32l4xx_hal_rcc.c **** 
 772              		.loc 1 961 0
 773 01ca FFF7FEFF 		bl	HAL_GetTick
 774              	.LVL74:
 775 01ce 0546     		mov	r5, r0
 776              	.LVL75:
 964:Drivers/STM32L4xx_HAL_Driver/Src/stm32l4xx_hal_rcc.c ****         {
 777              		.loc 1 964 0
 778 01d0 05E0     		b	.L130
 779              	.LVL76:
 780              	.L131:
 966:Drivers/STM32L4xx_HAL_Driver/Src/stm32l4xx_hal_rcc.c ****           {
 781              		.loc 1 966 0
 782 01d2 FFF7FEFF 		bl	HAL_GetTick
ARM GAS  /tmp/ccap8I6O.s 			page 42


 783              	.LVL77:
 784 01d6 401B     		subs	r0, r0, r5
 785 01d8 0228     		cmp	r0, #2
 786 01da 00F20581 		bhi	.L76
 787              	.L130:
 964:Drivers/STM32L4xx_HAL_Driver/Src/stm32l4xx_hal_rcc.c ****         {
 788              		.loc 1 964 0
 789 01de 2368     		ldr	r3, [r4]
 790 01e0 9B01     		lsls	r3, r3, #6
 791 01e2 F6D4     		bmi	.L131
 792              	.LVL78:
 793              	.L128:
1002:Drivers/STM32L4xx_HAL_Driver/Src/stm32l4xx_hal_rcc.c **** }
 794              		.loc 1 1002 0
 795 01e4 0020     		movs	r0, #0
 796              	.L150:
1003:Drivers/STM32L4xx_HAL_Driver/Src/stm32l4xx_hal_rcc.c **** 
 797              		.loc 1 1003 0
 798 01e6 05B0     		add	sp, sp, #20
 799              	.LCFI6:
 800              		.cfi_remember_state
 801              		.cfi_def_cfa_offset 28
 802              		@ sp needed
 803 01e8 BDE8F083 		pop	{r4, r5, r6, r7, r8, r9, pc}
 804              	.LVL79:
 805              	.L209:
 806              	.LCFI7:
 807              		.cfi_restore_state
 584:Drivers/STM32L4xx_HAL_Driver/Src/stm32l4xx_hal_rcc.c ****        ((sysclk_source == RCC_CFGR_SWS_PLL) && (pll_config == RCC_PLLSOURCE_HSI)))
 808              		.loc 1 584 0
 809 01ec 042D     		cmp	r5, #4
 810 01ee 00F0B980 		beq	.L89
 584:Drivers/STM32L4xx_HAL_Driver/Src/stm32l4xx_hal_rcc.c ****        ((sysclk_source == RCC_CFGR_SWS_PLL) && (pll_config == RCC_PLLSOURCE_HSI)))
 811              		.loc 1 584 0 is_stmt 0 discriminator 1
 812 01f2 0C2D     		cmp	r5, #12
 813 01f4 00F0B380 		beq	.L215
 814              	.L90:
 602:Drivers/STM32L4xx_HAL_Driver/Src/stm32l4xx_hal_rcc.c ****       {
 815              		.loc 1 602 0 is_stmt 1
 816 01f8 E368     		ldr	r3, [r4, #12]
 605:Drivers/STM32L4xx_HAL_Driver/Src/stm32l4xx_hal_rcc.c **** 
 817              		.loc 1 605 0
 818 01fa 3D4E     		ldr	r6, .L222
 819              	.LVL80:
 602:Drivers/STM32L4xx_HAL_Driver/Src/stm32l4xx_hal_rcc.c ****       {
 820              		.loc 1 602 0
 821 01fc 002B     		cmp	r3, #0
 822 01fe 00F05581 		beq	.L92
 605:Drivers/STM32L4xx_HAL_Driver/Src/stm32l4xx_hal_rcc.c **** 
 823              		.loc 1 605 0
 824 0202 3368     		ldr	r3, [r6]
 825 0204 43F48073 		orr	r3, r3, #256
 826 0208 3360     		str	r3, [r6]
 608:Drivers/STM32L4xx_HAL_Driver/Src/stm32l4xx_hal_rcc.c **** 
 827              		.loc 1 608 0
 828 020a FFF7FEFF 		bl	HAL_GetTick
 829              	.LVL81:
ARM GAS  /tmp/ccap8I6O.s 			page 43


 830 020e 0746     		mov	r7, r0
 831              	.LVL82:
 611:Drivers/STM32L4xx_HAL_Driver/Src/stm32l4xx_hal_rcc.c ****         {
 832              		.loc 1 611 0
 833 0210 05E0     		b	.L93
 834              	.LVL83:
 835              	.L94:
 613:Drivers/STM32L4xx_HAL_Driver/Src/stm32l4xx_hal_rcc.c ****           {
 836              		.loc 1 613 0
 837 0212 FFF7FEFF 		bl	HAL_GetTick
 838              	.LVL84:
 839 0216 C01B     		subs	r0, r0, r7
 840 0218 0228     		cmp	r0, #2
 841 021a 00F2E580 		bhi	.L76
 842              	.L93:
 611:Drivers/STM32L4xx_HAL_Driver/Src/stm32l4xx_hal_rcc.c ****         {
 843              		.loc 1 611 0
 844 021e 3368     		ldr	r3, [r6]
 845 0220 5B05     		lsls	r3, r3, #21
 846 0222 F6D5     		bpl	.L94
 620:Drivers/STM32L4xx_HAL_Driver/Src/stm32l4xx_hal_rcc.c ****       }
 847              		.loc 1 620 0
 848 0224 7368     		ldr	r3, [r6, #4]
 849 0226 2269     		ldr	r2, [r4, #16]
 850 0228 23F0F853 		bic	r3, r3, #520093696
 851 022c 43EA0263 		orr	r3, r3, r2, lsl #24
 852 0230 7360     		str	r3, [r6, #4]
 853 0232 2368     		ldr	r3, [r4]
 854 0234 53E7     		b	.L88
 855              	.LVL85:
 856              	.L205:
 429:Drivers/STM32L4xx_HAL_Driver/Src/stm32l4xx_hal_rcc.c ****     {
 857              		.loc 1 429 0
 858 0236 012E     		cmp	r6, #1
 859 0238 7FF4F9AE 		bne	.L57
 860              	.L56:
 431:Drivers/STM32L4xx_HAL_Driver/Src/stm32l4xx_hal_rcc.c ****       {
 861              		.loc 1 431 0
 862 023c 2C4B     		ldr	r3, .L222
 863 023e 1B68     		ldr	r3, [r3]
 864 0240 9F07     		lsls	r7, r3, #30
 865 0242 5BD4     		bmi	.L216
 866              	.L58:
 442:Drivers/STM32L4xx_HAL_Driver/Src/stm32l4xx_hal_rcc.c ****         {
 867              		.loc 1 442 0
 868 0244 2A4B     		ldr	r3, .L222
 869 0246 276A     		ldr	r7, [r4, #32]
 870 0248 1A68     		ldr	r2, [r3]
 871              	.LBB19:
 872              	.LBB20:
1425:Drivers/STM32L4xx_HAL_Driver/Src/stm32l4xx_hal_rcc.c **** 
1426:Drivers/STM32L4xx_HAL_Driver/Src/stm32l4xx_hal_rcc.c **** /**
1427:Drivers/STM32L4xx_HAL_Driver/Src/stm32l4xx_hal_rcc.c ****   * @brief  Return the HCLK frequency.
1428:Drivers/STM32L4xx_HAL_Driver/Src/stm32l4xx_hal_rcc.c ****   * @note   Each time HCLK changes, this function must be called to update the
1429:Drivers/STM32L4xx_HAL_Driver/Src/stm32l4xx_hal_rcc.c ****   *         right HCLK value. Otherwise, any configuration based on this function will be incorrect
1430:Drivers/STM32L4xx_HAL_Driver/Src/stm32l4xx_hal_rcc.c ****   *
1431:Drivers/STM32L4xx_HAL_Driver/Src/stm32l4xx_hal_rcc.c ****   * @note   The SystemCoreClock CMSIS variable is used to store System Clock Frequency.
ARM GAS  /tmp/ccap8I6O.s 			page 44


1432:Drivers/STM32L4xx_HAL_Driver/Src/stm32l4xx_hal_rcc.c ****   * @retval HCLK frequency in Hz
1433:Drivers/STM32L4xx_HAL_Driver/Src/stm32l4xx_hal_rcc.c ****   */
1434:Drivers/STM32L4xx_HAL_Driver/Src/stm32l4xx_hal_rcc.c **** uint32_t HAL_RCC_GetHCLKFreq(void)
1435:Drivers/STM32L4xx_HAL_Driver/Src/stm32l4xx_hal_rcc.c **** {
1436:Drivers/STM32L4xx_HAL_Driver/Src/stm32l4xx_hal_rcc.c ****   return SystemCoreClock;
1437:Drivers/STM32L4xx_HAL_Driver/Src/stm32l4xx_hal_rcc.c **** }
1438:Drivers/STM32L4xx_HAL_Driver/Src/stm32l4xx_hal_rcc.c **** 
1439:Drivers/STM32L4xx_HAL_Driver/Src/stm32l4xx_hal_rcc.c **** /**
1440:Drivers/STM32L4xx_HAL_Driver/Src/stm32l4xx_hal_rcc.c ****   * @brief  Return the PCLK1 frequency.
1441:Drivers/STM32L4xx_HAL_Driver/Src/stm32l4xx_hal_rcc.c ****   * @note   Each time PCLK1 changes, this function must be called to update the
1442:Drivers/STM32L4xx_HAL_Driver/Src/stm32l4xx_hal_rcc.c ****   *         right PCLK1 value. Otherwise, any configuration based on this function will be incorrec
1443:Drivers/STM32L4xx_HAL_Driver/Src/stm32l4xx_hal_rcc.c ****   * @retval PCLK1 frequency in Hz
1444:Drivers/STM32L4xx_HAL_Driver/Src/stm32l4xx_hal_rcc.c ****   */
1445:Drivers/STM32L4xx_HAL_Driver/Src/stm32l4xx_hal_rcc.c **** uint32_t HAL_RCC_GetPCLK1Freq(void)
1446:Drivers/STM32L4xx_HAL_Driver/Src/stm32l4xx_hal_rcc.c **** {
1447:Drivers/STM32L4xx_HAL_Driver/Src/stm32l4xx_hal_rcc.c ****   /* Get HCLK source and Compute PCLK1 frequency ---------------------------*/
1448:Drivers/STM32L4xx_HAL_Driver/Src/stm32l4xx_hal_rcc.c ****   return (HAL_RCC_GetHCLKFreq() >> (APBPrescTable[READ_BIT(RCC->CFGR, RCC_CFGR_PPRE1) >> RCC_CFGR_P
1449:Drivers/STM32L4xx_HAL_Driver/Src/stm32l4xx_hal_rcc.c **** }
1450:Drivers/STM32L4xx_HAL_Driver/Src/stm32l4xx_hal_rcc.c **** 
1451:Drivers/STM32L4xx_HAL_Driver/Src/stm32l4xx_hal_rcc.c **** /**
1452:Drivers/STM32L4xx_HAL_Driver/Src/stm32l4xx_hal_rcc.c ****   * @brief  Return the PCLK2 frequency.
1453:Drivers/STM32L4xx_HAL_Driver/Src/stm32l4xx_hal_rcc.c ****   * @note   Each time PCLK2 changes, this function must be called to update the
1454:Drivers/STM32L4xx_HAL_Driver/Src/stm32l4xx_hal_rcc.c ****   *         right PCLK2 value. Otherwise, any configuration based on this function will be incorrec
1455:Drivers/STM32L4xx_HAL_Driver/Src/stm32l4xx_hal_rcc.c ****   * @retval PCLK2 frequency in Hz
1456:Drivers/STM32L4xx_HAL_Driver/Src/stm32l4xx_hal_rcc.c ****   */
1457:Drivers/STM32L4xx_HAL_Driver/Src/stm32l4xx_hal_rcc.c **** uint32_t HAL_RCC_GetPCLK2Freq(void)
1458:Drivers/STM32L4xx_HAL_Driver/Src/stm32l4xx_hal_rcc.c **** {
1459:Drivers/STM32L4xx_HAL_Driver/Src/stm32l4xx_hal_rcc.c ****   /* Get HCLK source and Compute PCLK2 frequency ---------------------------*/
1460:Drivers/STM32L4xx_HAL_Driver/Src/stm32l4xx_hal_rcc.c ****   return (HAL_RCC_GetHCLKFreq()>> (APBPrescTable[READ_BIT(RCC->CFGR, RCC_CFGR_PPRE2) >> RCC_CFGR_PP
1461:Drivers/STM32L4xx_HAL_Driver/Src/stm32l4xx_hal_rcc.c **** }
1462:Drivers/STM32L4xx_HAL_Driver/Src/stm32l4xx_hal_rcc.c **** 
1463:Drivers/STM32L4xx_HAL_Driver/Src/stm32l4xx_hal_rcc.c **** /**
1464:Drivers/STM32L4xx_HAL_Driver/Src/stm32l4xx_hal_rcc.c ****   * @brief  Configure the RCC_OscInitStruct according to the internal
1465:Drivers/STM32L4xx_HAL_Driver/Src/stm32l4xx_hal_rcc.c ****   *         RCC configuration registers.
1466:Drivers/STM32L4xx_HAL_Driver/Src/stm32l4xx_hal_rcc.c ****   * @param  RCC_OscInitStruct  pointer to an RCC_OscInitTypeDef structure that
1467:Drivers/STM32L4xx_HAL_Driver/Src/stm32l4xx_hal_rcc.c ****   *         will be configured.
1468:Drivers/STM32L4xx_HAL_Driver/Src/stm32l4xx_hal_rcc.c ****   * @retval None
1469:Drivers/STM32L4xx_HAL_Driver/Src/stm32l4xx_hal_rcc.c ****   */
1470:Drivers/STM32L4xx_HAL_Driver/Src/stm32l4xx_hal_rcc.c **** void HAL_RCC_GetOscConfig(RCC_OscInitTypeDef  *RCC_OscInitStruct)
1471:Drivers/STM32L4xx_HAL_Driver/Src/stm32l4xx_hal_rcc.c **** {
1472:Drivers/STM32L4xx_HAL_Driver/Src/stm32l4xx_hal_rcc.c ****   /* Check the parameters */
1473:Drivers/STM32L4xx_HAL_Driver/Src/stm32l4xx_hal_rcc.c ****   assert_param(RCC_OscInitStruct != (void *)NULL);
1474:Drivers/STM32L4xx_HAL_Driver/Src/stm32l4xx_hal_rcc.c **** 
1475:Drivers/STM32L4xx_HAL_Driver/Src/stm32l4xx_hal_rcc.c ****   /* Set all possible values for the Oscillator type parameter ---------------*/
1476:Drivers/STM32L4xx_HAL_Driver/Src/stm32l4xx_hal_rcc.c **** #if defined(RCC_HSI48_SUPPORT)
1477:Drivers/STM32L4xx_HAL_Driver/Src/stm32l4xx_hal_rcc.c ****   RCC_OscInitStruct->OscillatorType = RCC_OSCILLATORTYPE_HSE | RCC_OSCILLATORTYPE_HSI | RCC_OSCILLA
1478:Drivers/STM32L4xx_HAL_Driver/Src/stm32l4xx_hal_rcc.c ****                                       RCC_OSCILLATORTYPE_LSE | RCC_OSCILLATORTYPE_LSI | RCC_OSCILLA
1479:Drivers/STM32L4xx_HAL_Driver/Src/stm32l4xx_hal_rcc.c **** #else
1480:Drivers/STM32L4xx_HAL_Driver/Src/stm32l4xx_hal_rcc.c ****   RCC_OscInitStruct->OscillatorType = RCC_OSCILLATORTYPE_HSE | RCC_OSCILLATORTYPE_HSI | RCC_OSCILLA
1481:Drivers/STM32L4xx_HAL_Driver/Src/stm32l4xx_hal_rcc.c ****                                       RCC_OSCILLATORTYPE_LSE | RCC_OSCILLATORTYPE_LSI;
1482:Drivers/STM32L4xx_HAL_Driver/Src/stm32l4xx_hal_rcc.c **** #endif /* RCC_HSI48_SUPPORT */
1483:Drivers/STM32L4xx_HAL_Driver/Src/stm32l4xx_hal_rcc.c **** 
1484:Drivers/STM32L4xx_HAL_Driver/Src/stm32l4xx_hal_rcc.c ****   /* Get the HSE configuration -----------------------------------------------*/
1485:Drivers/STM32L4xx_HAL_Driver/Src/stm32l4xx_hal_rcc.c ****   if(READ_BIT(RCC->CR, RCC_CR_HSEBYP) == RCC_CR_HSEBYP)
1486:Drivers/STM32L4xx_HAL_Driver/Src/stm32l4xx_hal_rcc.c ****   {
1487:Drivers/STM32L4xx_HAL_Driver/Src/stm32l4xx_hal_rcc.c ****     RCC_OscInitStruct->HSEState = RCC_HSE_BYPASS;
1488:Drivers/STM32L4xx_HAL_Driver/Src/stm32l4xx_hal_rcc.c ****   }
ARM GAS  /tmp/ccap8I6O.s 			page 45


1489:Drivers/STM32L4xx_HAL_Driver/Src/stm32l4xx_hal_rcc.c ****   else if(READ_BIT(RCC->CR, RCC_CR_HSEON) == RCC_CR_HSEON)
1490:Drivers/STM32L4xx_HAL_Driver/Src/stm32l4xx_hal_rcc.c ****   {
1491:Drivers/STM32L4xx_HAL_Driver/Src/stm32l4xx_hal_rcc.c ****     RCC_OscInitStruct->HSEState = RCC_HSE_ON;
1492:Drivers/STM32L4xx_HAL_Driver/Src/stm32l4xx_hal_rcc.c ****   }
1493:Drivers/STM32L4xx_HAL_Driver/Src/stm32l4xx_hal_rcc.c ****   else
1494:Drivers/STM32L4xx_HAL_Driver/Src/stm32l4xx_hal_rcc.c ****   {
1495:Drivers/STM32L4xx_HAL_Driver/Src/stm32l4xx_hal_rcc.c ****     RCC_OscInitStruct->HSEState = RCC_HSE_OFF;
1496:Drivers/STM32L4xx_HAL_Driver/Src/stm32l4xx_hal_rcc.c ****   }
1497:Drivers/STM32L4xx_HAL_Driver/Src/stm32l4xx_hal_rcc.c **** 
1498:Drivers/STM32L4xx_HAL_Driver/Src/stm32l4xx_hal_rcc.c ****    /* Get the MSI configuration -----------------------------------------------*/
1499:Drivers/STM32L4xx_HAL_Driver/Src/stm32l4xx_hal_rcc.c ****   if(READ_BIT(RCC->CR, RCC_CR_MSION) == RCC_CR_MSION)
1500:Drivers/STM32L4xx_HAL_Driver/Src/stm32l4xx_hal_rcc.c ****   {
1501:Drivers/STM32L4xx_HAL_Driver/Src/stm32l4xx_hal_rcc.c ****     RCC_OscInitStruct->MSIState = RCC_MSI_ON;
1502:Drivers/STM32L4xx_HAL_Driver/Src/stm32l4xx_hal_rcc.c ****   }
1503:Drivers/STM32L4xx_HAL_Driver/Src/stm32l4xx_hal_rcc.c ****   else
1504:Drivers/STM32L4xx_HAL_Driver/Src/stm32l4xx_hal_rcc.c ****   {
1505:Drivers/STM32L4xx_HAL_Driver/Src/stm32l4xx_hal_rcc.c ****     RCC_OscInitStruct->MSIState = RCC_MSI_OFF;
1506:Drivers/STM32L4xx_HAL_Driver/Src/stm32l4xx_hal_rcc.c ****   }
1507:Drivers/STM32L4xx_HAL_Driver/Src/stm32l4xx_hal_rcc.c **** 
1508:Drivers/STM32L4xx_HAL_Driver/Src/stm32l4xx_hal_rcc.c ****   RCC_OscInitStruct->MSICalibrationValue = READ_BIT(RCC->ICSCR, RCC_ICSCR_MSITRIM) >> RCC_ICSCR_MSI
1509:Drivers/STM32L4xx_HAL_Driver/Src/stm32l4xx_hal_rcc.c ****   RCC_OscInitStruct->MSIClockRange = READ_BIT(RCC->CR, RCC_CR_MSIRANGE);
1510:Drivers/STM32L4xx_HAL_Driver/Src/stm32l4xx_hal_rcc.c **** 
1511:Drivers/STM32L4xx_HAL_Driver/Src/stm32l4xx_hal_rcc.c ****   /* Get the HSI configuration -----------------------------------------------*/
1512:Drivers/STM32L4xx_HAL_Driver/Src/stm32l4xx_hal_rcc.c ****   if(READ_BIT(RCC->CR, RCC_CR_HSION) == RCC_CR_HSION)
1513:Drivers/STM32L4xx_HAL_Driver/Src/stm32l4xx_hal_rcc.c ****   {
1514:Drivers/STM32L4xx_HAL_Driver/Src/stm32l4xx_hal_rcc.c ****     RCC_OscInitStruct->HSIState = RCC_HSI_ON;
1515:Drivers/STM32L4xx_HAL_Driver/Src/stm32l4xx_hal_rcc.c ****   }
1516:Drivers/STM32L4xx_HAL_Driver/Src/stm32l4xx_hal_rcc.c ****   else
1517:Drivers/STM32L4xx_HAL_Driver/Src/stm32l4xx_hal_rcc.c ****   {
1518:Drivers/STM32L4xx_HAL_Driver/Src/stm32l4xx_hal_rcc.c ****     RCC_OscInitStruct->HSIState = RCC_HSI_OFF;
1519:Drivers/STM32L4xx_HAL_Driver/Src/stm32l4xx_hal_rcc.c ****   }
1520:Drivers/STM32L4xx_HAL_Driver/Src/stm32l4xx_hal_rcc.c **** 
1521:Drivers/STM32L4xx_HAL_Driver/Src/stm32l4xx_hal_rcc.c ****   RCC_OscInitStruct->HSICalibrationValue = READ_BIT(RCC->ICSCR, RCC_ICSCR_HSITRIM) >> RCC_ICSCR_HSI
1522:Drivers/STM32L4xx_HAL_Driver/Src/stm32l4xx_hal_rcc.c **** 
1523:Drivers/STM32L4xx_HAL_Driver/Src/stm32l4xx_hal_rcc.c ****   /* Get the LSE configuration -----------------------------------------------*/
1524:Drivers/STM32L4xx_HAL_Driver/Src/stm32l4xx_hal_rcc.c ****   if(READ_BIT(RCC->BDCR, RCC_BDCR_LSEBYP) == RCC_BDCR_LSEBYP)
1525:Drivers/STM32L4xx_HAL_Driver/Src/stm32l4xx_hal_rcc.c ****   {
1526:Drivers/STM32L4xx_HAL_Driver/Src/stm32l4xx_hal_rcc.c **** #if defined(RCC_BDCR_LSESYSDIS)
1527:Drivers/STM32L4xx_HAL_Driver/Src/stm32l4xx_hal_rcc.c ****     if((RCC->BDCR & RCC_BDCR_LSESYSDIS) == RCC_BDCR_LSESYSDIS)
1528:Drivers/STM32L4xx_HAL_Driver/Src/stm32l4xx_hal_rcc.c ****     {
1529:Drivers/STM32L4xx_HAL_Driver/Src/stm32l4xx_hal_rcc.c ****       RCC_OscInitStruct->LSEState = RCC_LSE_BYPASS_RTC_ONLY;
1530:Drivers/STM32L4xx_HAL_Driver/Src/stm32l4xx_hal_rcc.c ****     }
1531:Drivers/STM32L4xx_HAL_Driver/Src/stm32l4xx_hal_rcc.c ****     else
1532:Drivers/STM32L4xx_HAL_Driver/Src/stm32l4xx_hal_rcc.c **** #endif /* RCC_BDCR_LSESYSDIS */
1533:Drivers/STM32L4xx_HAL_Driver/Src/stm32l4xx_hal_rcc.c ****     {
1534:Drivers/STM32L4xx_HAL_Driver/Src/stm32l4xx_hal_rcc.c ****       RCC_OscInitStruct->LSEState = RCC_LSE_BYPASS;
1535:Drivers/STM32L4xx_HAL_Driver/Src/stm32l4xx_hal_rcc.c ****     }
1536:Drivers/STM32L4xx_HAL_Driver/Src/stm32l4xx_hal_rcc.c ****   }
1537:Drivers/STM32L4xx_HAL_Driver/Src/stm32l4xx_hal_rcc.c ****   else if(READ_BIT(RCC->BDCR, RCC_BDCR_LSEON) == RCC_BDCR_LSEON)
1538:Drivers/STM32L4xx_HAL_Driver/Src/stm32l4xx_hal_rcc.c ****   {
1539:Drivers/STM32L4xx_HAL_Driver/Src/stm32l4xx_hal_rcc.c **** #if defined(RCC_BDCR_LSESYSDIS)
1540:Drivers/STM32L4xx_HAL_Driver/Src/stm32l4xx_hal_rcc.c ****     if((RCC->BDCR & RCC_BDCR_LSESYSDIS) == RCC_BDCR_LSESYSDIS)
1541:Drivers/STM32L4xx_HAL_Driver/Src/stm32l4xx_hal_rcc.c ****     {
1542:Drivers/STM32L4xx_HAL_Driver/Src/stm32l4xx_hal_rcc.c ****       RCC_OscInitStruct->LSEState = RCC_LSE_ON_RTC_ONLY;
1543:Drivers/STM32L4xx_HAL_Driver/Src/stm32l4xx_hal_rcc.c ****     }
1544:Drivers/STM32L4xx_HAL_Driver/Src/stm32l4xx_hal_rcc.c ****     else
1545:Drivers/STM32L4xx_HAL_Driver/Src/stm32l4xx_hal_rcc.c **** #endif /* RCC_BDCR_LSESYSDIS */
ARM GAS  /tmp/ccap8I6O.s 			page 46


1546:Drivers/STM32L4xx_HAL_Driver/Src/stm32l4xx_hal_rcc.c ****     {
1547:Drivers/STM32L4xx_HAL_Driver/Src/stm32l4xx_hal_rcc.c ****       RCC_OscInitStruct->LSEState = RCC_LSE_ON;
1548:Drivers/STM32L4xx_HAL_Driver/Src/stm32l4xx_hal_rcc.c ****     }
1549:Drivers/STM32L4xx_HAL_Driver/Src/stm32l4xx_hal_rcc.c ****   }
1550:Drivers/STM32L4xx_HAL_Driver/Src/stm32l4xx_hal_rcc.c ****   else
1551:Drivers/STM32L4xx_HAL_Driver/Src/stm32l4xx_hal_rcc.c ****   {
1552:Drivers/STM32L4xx_HAL_Driver/Src/stm32l4xx_hal_rcc.c ****     RCC_OscInitStruct->LSEState = RCC_LSE_OFF;
1553:Drivers/STM32L4xx_HAL_Driver/Src/stm32l4xx_hal_rcc.c ****   }
1554:Drivers/STM32L4xx_HAL_Driver/Src/stm32l4xx_hal_rcc.c **** 
1555:Drivers/STM32L4xx_HAL_Driver/Src/stm32l4xx_hal_rcc.c ****   /* Get the LSI configuration -----------------------------------------------*/
1556:Drivers/STM32L4xx_HAL_Driver/Src/stm32l4xx_hal_rcc.c ****   if(READ_BIT(RCC->CSR, RCC_CSR_LSION) == RCC_CSR_LSION)
1557:Drivers/STM32L4xx_HAL_Driver/Src/stm32l4xx_hal_rcc.c ****   {
1558:Drivers/STM32L4xx_HAL_Driver/Src/stm32l4xx_hal_rcc.c ****     RCC_OscInitStruct->LSIState = RCC_LSI_ON;
1559:Drivers/STM32L4xx_HAL_Driver/Src/stm32l4xx_hal_rcc.c ****   }
1560:Drivers/STM32L4xx_HAL_Driver/Src/stm32l4xx_hal_rcc.c ****   else
1561:Drivers/STM32L4xx_HAL_Driver/Src/stm32l4xx_hal_rcc.c ****   {
1562:Drivers/STM32L4xx_HAL_Driver/Src/stm32l4xx_hal_rcc.c ****     RCC_OscInitStruct->LSIState = RCC_LSI_OFF;
1563:Drivers/STM32L4xx_HAL_Driver/Src/stm32l4xx_hal_rcc.c ****   }
1564:Drivers/STM32L4xx_HAL_Driver/Src/stm32l4xx_hal_rcc.c **** #if defined(RCC_CSR_LSIPREDIV)
1565:Drivers/STM32L4xx_HAL_Driver/Src/stm32l4xx_hal_rcc.c **** 
1566:Drivers/STM32L4xx_HAL_Driver/Src/stm32l4xx_hal_rcc.c ****   /* Get the LSI configuration -----------------------------------------------*/
1567:Drivers/STM32L4xx_HAL_Driver/Src/stm32l4xx_hal_rcc.c ****   if((RCC->CSR & RCC_CSR_LSIPREDIV) == RCC_CSR_LSIPREDIV)
1568:Drivers/STM32L4xx_HAL_Driver/Src/stm32l4xx_hal_rcc.c ****   {
1569:Drivers/STM32L4xx_HAL_Driver/Src/stm32l4xx_hal_rcc.c ****     RCC_OscInitStruct->LSIDiv = RCC_LSI_DIV128;
1570:Drivers/STM32L4xx_HAL_Driver/Src/stm32l4xx_hal_rcc.c ****   }
1571:Drivers/STM32L4xx_HAL_Driver/Src/stm32l4xx_hal_rcc.c ****   else
1572:Drivers/STM32L4xx_HAL_Driver/Src/stm32l4xx_hal_rcc.c ****   {
1573:Drivers/STM32L4xx_HAL_Driver/Src/stm32l4xx_hal_rcc.c ****     RCC_OscInitStruct->LSIDiv = RCC_LSI_DIV1;
1574:Drivers/STM32L4xx_HAL_Driver/Src/stm32l4xx_hal_rcc.c ****   }
1575:Drivers/STM32L4xx_HAL_Driver/Src/stm32l4xx_hal_rcc.c **** #endif /* RCC_CSR_LSIPREDIV */
1576:Drivers/STM32L4xx_HAL_Driver/Src/stm32l4xx_hal_rcc.c **** 
1577:Drivers/STM32L4xx_HAL_Driver/Src/stm32l4xx_hal_rcc.c **** #if defined(RCC_HSI48_SUPPORT)
1578:Drivers/STM32L4xx_HAL_Driver/Src/stm32l4xx_hal_rcc.c ****   /* Get the HSI48 configuration ---------------------------------------------*/
1579:Drivers/STM32L4xx_HAL_Driver/Src/stm32l4xx_hal_rcc.c ****   if(READ_BIT(RCC->CRRCR, RCC_CRRCR_HSI48ON) == RCC_CRRCR_HSI48ON)
1580:Drivers/STM32L4xx_HAL_Driver/Src/stm32l4xx_hal_rcc.c ****   {
1581:Drivers/STM32L4xx_HAL_Driver/Src/stm32l4xx_hal_rcc.c ****     RCC_OscInitStruct->HSI48State = RCC_HSI48_ON;
1582:Drivers/STM32L4xx_HAL_Driver/Src/stm32l4xx_hal_rcc.c ****   }
1583:Drivers/STM32L4xx_HAL_Driver/Src/stm32l4xx_hal_rcc.c ****   else
1584:Drivers/STM32L4xx_HAL_Driver/Src/stm32l4xx_hal_rcc.c ****   {
1585:Drivers/STM32L4xx_HAL_Driver/Src/stm32l4xx_hal_rcc.c ****     RCC_OscInitStruct->HSI48State = RCC_HSI48_OFF;
1586:Drivers/STM32L4xx_HAL_Driver/Src/stm32l4xx_hal_rcc.c ****   }
1587:Drivers/STM32L4xx_HAL_Driver/Src/stm32l4xx_hal_rcc.c **** #else
1588:Drivers/STM32L4xx_HAL_Driver/Src/stm32l4xx_hal_rcc.c ****   RCC_OscInitStruct->HSI48State = RCC_HSI48_OFF;
1589:Drivers/STM32L4xx_HAL_Driver/Src/stm32l4xx_hal_rcc.c **** #endif /* RCC_HSI48_SUPPORT */
1590:Drivers/STM32L4xx_HAL_Driver/Src/stm32l4xx_hal_rcc.c **** 
1591:Drivers/STM32L4xx_HAL_Driver/Src/stm32l4xx_hal_rcc.c ****   /* Get the PLL configuration -----------------------------------------------*/
1592:Drivers/STM32L4xx_HAL_Driver/Src/stm32l4xx_hal_rcc.c ****   if(READ_BIT(RCC->CR, RCC_CR_PLLON) == RCC_CR_PLLON)
1593:Drivers/STM32L4xx_HAL_Driver/Src/stm32l4xx_hal_rcc.c ****   {
1594:Drivers/STM32L4xx_HAL_Driver/Src/stm32l4xx_hal_rcc.c ****     RCC_OscInitStruct->PLL.PLLState = RCC_PLL_ON;
1595:Drivers/STM32L4xx_HAL_Driver/Src/stm32l4xx_hal_rcc.c ****   }
1596:Drivers/STM32L4xx_HAL_Driver/Src/stm32l4xx_hal_rcc.c ****   else
1597:Drivers/STM32L4xx_HAL_Driver/Src/stm32l4xx_hal_rcc.c ****   {
1598:Drivers/STM32L4xx_HAL_Driver/Src/stm32l4xx_hal_rcc.c ****     RCC_OscInitStruct->PLL.PLLState = RCC_PLL_OFF;
1599:Drivers/STM32L4xx_HAL_Driver/Src/stm32l4xx_hal_rcc.c ****   }
1600:Drivers/STM32L4xx_HAL_Driver/Src/stm32l4xx_hal_rcc.c ****   RCC_OscInitStruct->PLL.PLLSource = READ_BIT(RCC->PLLCFGR, RCC_PLLCFGR_PLLSRC);
1601:Drivers/STM32L4xx_HAL_Driver/Src/stm32l4xx_hal_rcc.c ****   RCC_OscInitStruct->PLL.PLLM = (READ_BIT(RCC->PLLCFGR, RCC_PLLCFGR_PLLM) >> RCC_PLLCFGR_PLLM_Pos) 
1602:Drivers/STM32L4xx_HAL_Driver/Src/stm32l4xx_hal_rcc.c ****   RCC_OscInitStruct->PLL.PLLN = READ_BIT(RCC->PLLCFGR, RCC_PLLCFGR_PLLN) >> RCC_PLLCFGR_PLLN_Pos;
ARM GAS  /tmp/ccap8I6O.s 			page 47


1603:Drivers/STM32L4xx_HAL_Driver/Src/stm32l4xx_hal_rcc.c ****   RCC_OscInitStruct->PLL.PLLQ = (((READ_BIT(RCC->PLLCFGR, RCC_PLLCFGR_PLLQ) >> RCC_PLLCFGR_PLLQ_Pos
1604:Drivers/STM32L4xx_HAL_Driver/Src/stm32l4xx_hal_rcc.c ****   RCC_OscInitStruct->PLL.PLLR = (((READ_BIT(RCC->PLLCFGR, RCC_PLLCFGR_PLLR) >> RCC_PLLCFGR_PLLR_Pos
1605:Drivers/STM32L4xx_HAL_Driver/Src/stm32l4xx_hal_rcc.c **** #if defined(RCC_PLLP_SUPPORT)
1606:Drivers/STM32L4xx_HAL_Driver/Src/stm32l4xx_hal_rcc.c **** #if defined(RCC_PLLP_DIV_2_31_SUPPORT)
1607:Drivers/STM32L4xx_HAL_Driver/Src/stm32l4xx_hal_rcc.c ****   RCC_OscInitStruct->PLL.PLLP = READ_BIT(RCC->PLLCFGR, RCC_PLLCFGR_PLLPDIV) >> RCC_PLLCFGR_PLLPDIV_
1608:Drivers/STM32L4xx_HAL_Driver/Src/stm32l4xx_hal_rcc.c **** #else
1609:Drivers/STM32L4xx_HAL_Driver/Src/stm32l4xx_hal_rcc.c ****   if(READ_BIT(RCC->PLLCFGR, RCC_PLLCFGR_PLLP) != 0U)
1610:Drivers/STM32L4xx_HAL_Driver/Src/stm32l4xx_hal_rcc.c ****   {
1611:Drivers/STM32L4xx_HAL_Driver/Src/stm32l4xx_hal_rcc.c ****     RCC_OscInitStruct->PLL.PLLP = RCC_PLLP_DIV17;
1612:Drivers/STM32L4xx_HAL_Driver/Src/stm32l4xx_hal_rcc.c ****   }
1613:Drivers/STM32L4xx_HAL_Driver/Src/stm32l4xx_hal_rcc.c ****   else
1614:Drivers/STM32L4xx_HAL_Driver/Src/stm32l4xx_hal_rcc.c ****   {
1615:Drivers/STM32L4xx_HAL_Driver/Src/stm32l4xx_hal_rcc.c ****     RCC_OscInitStruct->PLL.PLLP = RCC_PLLP_DIV7;
1616:Drivers/STM32L4xx_HAL_Driver/Src/stm32l4xx_hal_rcc.c ****   }
1617:Drivers/STM32L4xx_HAL_Driver/Src/stm32l4xx_hal_rcc.c **** #endif /* RCC_PLLP_DIV_2_31_SUPPORT */
1618:Drivers/STM32L4xx_HAL_Driver/Src/stm32l4xx_hal_rcc.c **** #endif /* RCC_PLLP_SUPPORT */
1619:Drivers/STM32L4xx_HAL_Driver/Src/stm32l4xx_hal_rcc.c **** }
1620:Drivers/STM32L4xx_HAL_Driver/Src/stm32l4xx_hal_rcc.c **** 
1621:Drivers/STM32L4xx_HAL_Driver/Src/stm32l4xx_hal_rcc.c **** /**
1622:Drivers/STM32L4xx_HAL_Driver/Src/stm32l4xx_hal_rcc.c ****   * @brief  Configure the RCC_ClkInitStruct according to the internal
1623:Drivers/STM32L4xx_HAL_Driver/Src/stm32l4xx_hal_rcc.c ****   *         RCC configuration registers.
1624:Drivers/STM32L4xx_HAL_Driver/Src/stm32l4xx_hal_rcc.c ****   * @param  RCC_ClkInitStruct  pointer to an RCC_ClkInitTypeDef structure that
1625:Drivers/STM32L4xx_HAL_Driver/Src/stm32l4xx_hal_rcc.c ****   *         will be configured.
1626:Drivers/STM32L4xx_HAL_Driver/Src/stm32l4xx_hal_rcc.c ****   * @param  pFLatency  Pointer on the Flash Latency.
1627:Drivers/STM32L4xx_HAL_Driver/Src/stm32l4xx_hal_rcc.c ****   * @retval None
1628:Drivers/STM32L4xx_HAL_Driver/Src/stm32l4xx_hal_rcc.c ****   */
1629:Drivers/STM32L4xx_HAL_Driver/Src/stm32l4xx_hal_rcc.c **** void HAL_RCC_GetClockConfig(RCC_ClkInitTypeDef  *RCC_ClkInitStruct, uint32_t *pFLatency)
1630:Drivers/STM32L4xx_HAL_Driver/Src/stm32l4xx_hal_rcc.c **** {
1631:Drivers/STM32L4xx_HAL_Driver/Src/stm32l4xx_hal_rcc.c ****   /* Check the parameters */
1632:Drivers/STM32L4xx_HAL_Driver/Src/stm32l4xx_hal_rcc.c ****   assert_param(RCC_ClkInitStruct != (void  *)NULL);
1633:Drivers/STM32L4xx_HAL_Driver/Src/stm32l4xx_hal_rcc.c ****   assert_param(pFLatency != (void *)NULL);
1634:Drivers/STM32L4xx_HAL_Driver/Src/stm32l4xx_hal_rcc.c **** 
1635:Drivers/STM32L4xx_HAL_Driver/Src/stm32l4xx_hal_rcc.c ****   /* Set all possible values for the Clock type parameter --------------------*/
1636:Drivers/STM32L4xx_HAL_Driver/Src/stm32l4xx_hal_rcc.c ****   RCC_ClkInitStruct->ClockType = RCC_CLOCKTYPE_SYSCLK | RCC_CLOCKTYPE_HCLK | RCC_CLOCKTYPE_PCLK1 | 
1637:Drivers/STM32L4xx_HAL_Driver/Src/stm32l4xx_hal_rcc.c **** 
1638:Drivers/STM32L4xx_HAL_Driver/Src/stm32l4xx_hal_rcc.c ****   /* Get the SYSCLK configuration --------------------------------------------*/
1639:Drivers/STM32L4xx_HAL_Driver/Src/stm32l4xx_hal_rcc.c ****   RCC_ClkInitStruct->SYSCLKSource = READ_BIT(RCC->CFGR, RCC_CFGR_SW);
1640:Drivers/STM32L4xx_HAL_Driver/Src/stm32l4xx_hal_rcc.c **** 
1641:Drivers/STM32L4xx_HAL_Driver/Src/stm32l4xx_hal_rcc.c ****   /* Get the HCLK configuration ----------------------------------------------*/
1642:Drivers/STM32L4xx_HAL_Driver/Src/stm32l4xx_hal_rcc.c ****   RCC_ClkInitStruct->AHBCLKDivider = READ_BIT(RCC->CFGR, RCC_CFGR_HPRE);
1643:Drivers/STM32L4xx_HAL_Driver/Src/stm32l4xx_hal_rcc.c **** 
1644:Drivers/STM32L4xx_HAL_Driver/Src/stm32l4xx_hal_rcc.c ****   /* Get the APB1 configuration ----------------------------------------------*/
1645:Drivers/STM32L4xx_HAL_Driver/Src/stm32l4xx_hal_rcc.c ****   RCC_ClkInitStruct->APB1CLKDivider = READ_BIT(RCC->CFGR, RCC_CFGR_PPRE1);
1646:Drivers/STM32L4xx_HAL_Driver/Src/stm32l4xx_hal_rcc.c **** 
1647:Drivers/STM32L4xx_HAL_Driver/Src/stm32l4xx_hal_rcc.c ****   /* Get the APB2 configuration ----------------------------------------------*/
1648:Drivers/STM32L4xx_HAL_Driver/Src/stm32l4xx_hal_rcc.c ****   RCC_ClkInitStruct->APB2CLKDivider = (READ_BIT(RCC->CFGR, RCC_CFGR_PPRE2) >> 3U);
1649:Drivers/STM32L4xx_HAL_Driver/Src/stm32l4xx_hal_rcc.c **** 
1650:Drivers/STM32L4xx_HAL_Driver/Src/stm32l4xx_hal_rcc.c ****   /* Get the Flash Wait State (Latency) configuration ------------------------*/
1651:Drivers/STM32L4xx_HAL_Driver/Src/stm32l4xx_hal_rcc.c ****   *pFLatency = __HAL_FLASH_GET_LATENCY();
1652:Drivers/STM32L4xx_HAL_Driver/Src/stm32l4xx_hal_rcc.c **** }
1653:Drivers/STM32L4xx_HAL_Driver/Src/stm32l4xx_hal_rcc.c **** 
1654:Drivers/STM32L4xx_HAL_Driver/Src/stm32l4xx_hal_rcc.c **** /**
1655:Drivers/STM32L4xx_HAL_Driver/Src/stm32l4xx_hal_rcc.c ****   * @brief  Enable the Clock Security System.
1656:Drivers/STM32L4xx_HAL_Driver/Src/stm32l4xx_hal_rcc.c ****   * @note   If a failure is detected on the HSE oscillator clock, this oscillator
1657:Drivers/STM32L4xx_HAL_Driver/Src/stm32l4xx_hal_rcc.c ****   *         is automatically disabled and an interrupt is generated to inform the
1658:Drivers/STM32L4xx_HAL_Driver/Src/stm32l4xx_hal_rcc.c ****   *         software about the failure (Clock Security System Interrupt, CSSI),
1659:Drivers/STM32L4xx_HAL_Driver/Src/stm32l4xx_hal_rcc.c ****   *         allowing the MCU to perform rescue operations. The CSSI is linked to
ARM GAS  /tmp/ccap8I6O.s 			page 48


1660:Drivers/STM32L4xx_HAL_Driver/Src/stm32l4xx_hal_rcc.c ****   *         the Cortex-M4 NMI (Non-Maskable Interrupt) exception vector.
1661:Drivers/STM32L4xx_HAL_Driver/Src/stm32l4xx_hal_rcc.c ****   * @note   The Clock Security System can only be cleared by reset.
1662:Drivers/STM32L4xx_HAL_Driver/Src/stm32l4xx_hal_rcc.c ****   * @retval None
1663:Drivers/STM32L4xx_HAL_Driver/Src/stm32l4xx_hal_rcc.c ****   */
1664:Drivers/STM32L4xx_HAL_Driver/Src/stm32l4xx_hal_rcc.c **** void HAL_RCC_EnableCSS(void)
1665:Drivers/STM32L4xx_HAL_Driver/Src/stm32l4xx_hal_rcc.c **** {
1666:Drivers/STM32L4xx_HAL_Driver/Src/stm32l4xx_hal_rcc.c ****   SET_BIT(RCC->CR, RCC_CR_CSSON) ;
1667:Drivers/STM32L4xx_HAL_Driver/Src/stm32l4xx_hal_rcc.c **** }
1668:Drivers/STM32L4xx_HAL_Driver/Src/stm32l4xx_hal_rcc.c **** 
1669:Drivers/STM32L4xx_HAL_Driver/Src/stm32l4xx_hal_rcc.c **** /**
1670:Drivers/STM32L4xx_HAL_Driver/Src/stm32l4xx_hal_rcc.c ****   * @brief Handle the RCC Clock Security System interrupt request.
1671:Drivers/STM32L4xx_HAL_Driver/Src/stm32l4xx_hal_rcc.c ****   * @note This API should be called under the NMI_Handler().
1672:Drivers/STM32L4xx_HAL_Driver/Src/stm32l4xx_hal_rcc.c ****   * @retval None
1673:Drivers/STM32L4xx_HAL_Driver/Src/stm32l4xx_hal_rcc.c ****   */
1674:Drivers/STM32L4xx_HAL_Driver/Src/stm32l4xx_hal_rcc.c **** void HAL_RCC_NMI_IRQHandler(void)
1675:Drivers/STM32L4xx_HAL_Driver/Src/stm32l4xx_hal_rcc.c **** {
1676:Drivers/STM32L4xx_HAL_Driver/Src/stm32l4xx_hal_rcc.c ****   /* Check RCC CSSF interrupt flag  */
1677:Drivers/STM32L4xx_HAL_Driver/Src/stm32l4xx_hal_rcc.c ****   if(__HAL_RCC_GET_IT(RCC_IT_CSS))
1678:Drivers/STM32L4xx_HAL_Driver/Src/stm32l4xx_hal_rcc.c ****   {
1679:Drivers/STM32L4xx_HAL_Driver/Src/stm32l4xx_hal_rcc.c ****     /* RCC Clock Security System interrupt user callback */
1680:Drivers/STM32L4xx_HAL_Driver/Src/stm32l4xx_hal_rcc.c ****     HAL_RCC_CSSCallback();
1681:Drivers/STM32L4xx_HAL_Driver/Src/stm32l4xx_hal_rcc.c **** 
1682:Drivers/STM32L4xx_HAL_Driver/Src/stm32l4xx_hal_rcc.c ****     /* Clear RCC CSS pending bit */
1683:Drivers/STM32L4xx_HAL_Driver/Src/stm32l4xx_hal_rcc.c ****     __HAL_RCC_CLEAR_IT(RCC_IT_CSS);
1684:Drivers/STM32L4xx_HAL_Driver/Src/stm32l4xx_hal_rcc.c ****   }
1685:Drivers/STM32L4xx_HAL_Driver/Src/stm32l4xx_hal_rcc.c **** }
1686:Drivers/STM32L4xx_HAL_Driver/Src/stm32l4xx_hal_rcc.c **** 
1687:Drivers/STM32L4xx_HAL_Driver/Src/stm32l4xx_hal_rcc.c **** /**
1688:Drivers/STM32L4xx_HAL_Driver/Src/stm32l4xx_hal_rcc.c ****   * @brief  RCC Clock Security System interrupt callback.
1689:Drivers/STM32L4xx_HAL_Driver/Src/stm32l4xx_hal_rcc.c ****   * @retval none
1690:Drivers/STM32L4xx_HAL_Driver/Src/stm32l4xx_hal_rcc.c ****   */
1691:Drivers/STM32L4xx_HAL_Driver/Src/stm32l4xx_hal_rcc.c **** __weak void HAL_RCC_CSSCallback(void)
1692:Drivers/STM32L4xx_HAL_Driver/Src/stm32l4xx_hal_rcc.c **** {
1693:Drivers/STM32L4xx_HAL_Driver/Src/stm32l4xx_hal_rcc.c ****   /* NOTE : This function should not be modified, when the callback is needed,
1694:Drivers/STM32L4xx_HAL_Driver/Src/stm32l4xx_hal_rcc.c ****             the HAL_RCC_CSSCallback should be implemented in the user file
1695:Drivers/STM32L4xx_HAL_Driver/Src/stm32l4xx_hal_rcc.c ****    */
1696:Drivers/STM32L4xx_HAL_Driver/Src/stm32l4xx_hal_rcc.c **** }
1697:Drivers/STM32L4xx_HAL_Driver/Src/stm32l4xx_hal_rcc.c **** 
1698:Drivers/STM32L4xx_HAL_Driver/Src/stm32l4xx_hal_rcc.c **** /**
1699:Drivers/STM32L4xx_HAL_Driver/Src/stm32l4xx_hal_rcc.c ****   * @}
1700:Drivers/STM32L4xx_HAL_Driver/Src/stm32l4xx_hal_rcc.c ****   */
1701:Drivers/STM32L4xx_HAL_Driver/Src/stm32l4xx_hal_rcc.c **** 
1702:Drivers/STM32L4xx_HAL_Driver/Src/stm32l4xx_hal_rcc.c **** /**
1703:Drivers/STM32L4xx_HAL_Driver/Src/stm32l4xx_hal_rcc.c ****   * @}
1704:Drivers/STM32L4xx_HAL_Driver/Src/stm32l4xx_hal_rcc.c ****   */
1705:Drivers/STM32L4xx_HAL_Driver/Src/stm32l4xx_hal_rcc.c **** 
1706:Drivers/STM32L4xx_HAL_Driver/Src/stm32l4xx_hal_rcc.c **** /* Private function prototypes -----------------------------------------------*/
1707:Drivers/STM32L4xx_HAL_Driver/Src/stm32l4xx_hal_rcc.c **** /** @addtogroup RCC_Private_Functions
1708:Drivers/STM32L4xx_HAL_Driver/Src/stm32l4xx_hal_rcc.c ****   * @{
1709:Drivers/STM32L4xx_HAL_Driver/Src/stm32l4xx_hal_rcc.c ****   */
1710:Drivers/STM32L4xx_HAL_Driver/Src/stm32l4xx_hal_rcc.c **** /**
1711:Drivers/STM32L4xx_HAL_Driver/Src/stm32l4xx_hal_rcc.c ****   * @brief  Update number of Flash wait states in line with MSI range and current
1712:Drivers/STM32L4xx_HAL_Driver/Src/stm32l4xx_hal_rcc.c ****             voltage range.
1713:Drivers/STM32L4xx_HAL_Driver/Src/stm32l4xx_hal_rcc.c ****   * @param  msirange  MSI range value from RCC_MSIRANGE_0 to RCC_MSIRANGE_11
1714:Drivers/STM32L4xx_HAL_Driver/Src/stm32l4xx_hal_rcc.c ****   * @retval HAL status
1715:Drivers/STM32L4xx_HAL_Driver/Src/stm32l4xx_hal_rcc.c ****   */
1716:Drivers/STM32L4xx_HAL_Driver/Src/stm32l4xx_hal_rcc.c **** static HAL_StatusTypeDef RCC_SetFlashLatencyFromMSIRange(uint32_t msirange)
ARM GAS  /tmp/ccap8I6O.s 			page 49


1717:Drivers/STM32L4xx_HAL_Driver/Src/stm32l4xx_hal_rcc.c **** {
1718:Drivers/STM32L4xx_HAL_Driver/Src/stm32l4xx_hal_rcc.c ****   uint32_t vos;
1719:Drivers/STM32L4xx_HAL_Driver/Src/stm32l4xx_hal_rcc.c ****   uint32_t latency = FLASH_LATENCY_0;  /* default value 0WS */
1720:Drivers/STM32L4xx_HAL_Driver/Src/stm32l4xx_hal_rcc.c **** 
1721:Drivers/STM32L4xx_HAL_Driver/Src/stm32l4xx_hal_rcc.c ****   if(__HAL_RCC_PWR_IS_CLK_ENABLED())
 873              		.loc 1 1721 0
 874 024a DFF8A480 		ldr	r8, .L222
 875              	.LBE20:
 876              	.LBE19:
 442:Drivers/STM32L4xx_HAL_Driver/Src/stm32l4xx_hal_rcc.c ****         {
 877              		.loc 1 442 0
 878 024e 1007     		lsls	r0, r2, #28
 879              	.LVL86:
 880 0250 56BF     		itet	pl
 881 0252 D3F89430 		ldrpl	r3, [r3, #148]
 882 0256 1B68     		ldrmi	r3, [r3]
 883 0258 1B09     		lsrpl	r3, r3, #4
 884 025a 03F0F003 		and	r3, r3, #240
 885 025e BB42     		cmp	r3, r7
 886 0260 80F0C680 		bcs	.L62
 887              	.LVL87:
 888              	.LBB28:
 889              	.LBB22:
 890              		.loc 1 1721 0
 891 0264 D8F85830 		ldr	r3, [r8, #88]
 892 0268 D900     		lsls	r1, r3, #3
 893 026a 00F15981 		bmi	.L217
 894              	.LBB21:
1722:Drivers/STM32L4xx_HAL_Driver/Src/stm32l4xx_hal_rcc.c ****   {
1723:Drivers/STM32L4xx_HAL_Driver/Src/stm32l4xx_hal_rcc.c ****     vos = HAL_PWREx_GetVoltageRange();
1724:Drivers/STM32L4xx_HAL_Driver/Src/stm32l4xx_hal_rcc.c ****   }
1725:Drivers/STM32L4xx_HAL_Driver/Src/stm32l4xx_hal_rcc.c ****   else
1726:Drivers/STM32L4xx_HAL_Driver/Src/stm32l4xx_hal_rcc.c ****   {
1727:Drivers/STM32L4xx_HAL_Driver/Src/stm32l4xx_hal_rcc.c ****     __HAL_RCC_PWR_CLK_ENABLE();
 895              		.loc 1 1727 0
 896 026e D8F85830 		ldr	r3, [r8, #88]
 897 0272 43F08053 		orr	r3, r3, #268435456
 898 0276 C8F85830 		str	r3, [r8, #88]
 899 027a D8F85830 		ldr	r3, [r8, #88]
 900 027e 03F08053 		and	r3, r3, #268435456
 901 0282 0293     		str	r3, [sp, #8]
 902 0284 029B     		ldr	r3, [sp, #8]
 903              	.LBE21:
1728:Drivers/STM32L4xx_HAL_Driver/Src/stm32l4xx_hal_rcc.c ****     vos = HAL_PWREx_GetVoltageRange();
 904              		.loc 1 1728 0
 905 0286 FFF7FEFF 		bl	HAL_PWREx_GetVoltageRange
 906              	.LVL88:
1729:Drivers/STM32L4xx_HAL_Driver/Src/stm32l4xx_hal_rcc.c ****     __HAL_RCC_PWR_CLK_DISABLE();
 907              		.loc 1 1729 0
 908 028a D8F85830 		ldr	r3, [r8, #88]
 909 028e 23F08053 		bic	r3, r3, #268435456
 910 0292 C8F85830 		str	r3, [r8, #88]
 911              	.L64:
1730:Drivers/STM32L4xx_HAL_Driver/Src/stm32l4xx_hal_rcc.c ****   }
1731:Drivers/STM32L4xx_HAL_Driver/Src/stm32l4xx_hal_rcc.c **** 
1732:Drivers/STM32L4xx_HAL_Driver/Src/stm32l4xx_hal_rcc.c ****   if(vos == PWR_REGULATOR_VOLTAGE_SCALE1)
 912              		.loc 1 1732 0
ARM GAS  /tmp/ccap8I6O.s 			page 50


 913 0296 B0F5007F 		cmp	r0, #512
 914 029a 00F0A881 		beq	.L218
1733:Drivers/STM32L4xx_HAL_Driver/Src/stm32l4xx_hal_rcc.c ****   {
1734:Drivers/STM32L4xx_HAL_Driver/Src/stm32l4xx_hal_rcc.c ****     if(msirange > RCC_MSIRANGE_8)
1735:Drivers/STM32L4xx_HAL_Driver/Src/stm32l4xx_hal_rcc.c ****     {
1736:Drivers/STM32L4xx_HAL_Driver/Src/stm32l4xx_hal_rcc.c ****       /* MSI > 16Mhz */
1737:Drivers/STM32L4xx_HAL_Driver/Src/stm32l4xx_hal_rcc.c ****       if(msirange > RCC_MSIRANGE_10)
1738:Drivers/STM32L4xx_HAL_Driver/Src/stm32l4xx_hal_rcc.c ****       {
1739:Drivers/STM32L4xx_HAL_Driver/Src/stm32l4xx_hal_rcc.c ****         /* MSI 48Mhz */
1740:Drivers/STM32L4xx_HAL_Driver/Src/stm32l4xx_hal_rcc.c ****         latency = FLASH_LATENCY_2; /* 2WS */
1741:Drivers/STM32L4xx_HAL_Driver/Src/stm32l4xx_hal_rcc.c ****       }
1742:Drivers/STM32L4xx_HAL_Driver/Src/stm32l4xx_hal_rcc.c ****       else
1743:Drivers/STM32L4xx_HAL_Driver/Src/stm32l4xx_hal_rcc.c ****       {
1744:Drivers/STM32L4xx_HAL_Driver/Src/stm32l4xx_hal_rcc.c ****         /* MSI 24Mhz or 32Mhz */
1745:Drivers/STM32L4xx_HAL_Driver/Src/stm32l4xx_hal_rcc.c ****         latency = FLASH_LATENCY_1; /* 1WS */
1746:Drivers/STM32L4xx_HAL_Driver/Src/stm32l4xx_hal_rcc.c ****       }
1747:Drivers/STM32L4xx_HAL_Driver/Src/stm32l4xx_hal_rcc.c ****     }
1748:Drivers/STM32L4xx_HAL_Driver/Src/stm32l4xx_hal_rcc.c ****     /* else MSI <= 16Mhz default FLASH_LATENCY_0 0WS */
1749:Drivers/STM32L4xx_HAL_Driver/Src/stm32l4xx_hal_rcc.c ****   }
1750:Drivers/STM32L4xx_HAL_Driver/Src/stm32l4xx_hal_rcc.c ****   else
1751:Drivers/STM32L4xx_HAL_Driver/Src/stm32l4xx_hal_rcc.c ****   {
1752:Drivers/STM32L4xx_HAL_Driver/Src/stm32l4xx_hal_rcc.c **** #if defined(STM32L4R5xx) || defined(STM32L4R7xx) || defined(STM32L4R9xx) || defined(STM32L4S5xx) ||
1753:Drivers/STM32L4xx_HAL_Driver/Src/stm32l4xx_hal_rcc.c ****     if(msirange >= RCC_MSIRANGE_8)
1754:Drivers/STM32L4xx_HAL_Driver/Src/stm32l4xx_hal_rcc.c ****     {
1755:Drivers/STM32L4xx_HAL_Driver/Src/stm32l4xx_hal_rcc.c ****       /* MSI >= 16Mhz */
1756:Drivers/STM32L4xx_HAL_Driver/Src/stm32l4xx_hal_rcc.c ****       latency = FLASH_LATENCY_2; /* 2WS */
1757:Drivers/STM32L4xx_HAL_Driver/Src/stm32l4xx_hal_rcc.c ****     }
1758:Drivers/STM32L4xx_HAL_Driver/Src/stm32l4xx_hal_rcc.c ****     else
1759:Drivers/STM32L4xx_HAL_Driver/Src/stm32l4xx_hal_rcc.c ****     {
1760:Drivers/STM32L4xx_HAL_Driver/Src/stm32l4xx_hal_rcc.c ****       if(msirange == RCC_MSIRANGE_7)
1761:Drivers/STM32L4xx_HAL_Driver/Src/stm32l4xx_hal_rcc.c ****       {
1762:Drivers/STM32L4xx_HAL_Driver/Src/stm32l4xx_hal_rcc.c ****         /* MSI 8Mhz */
1763:Drivers/STM32L4xx_HAL_Driver/Src/stm32l4xx_hal_rcc.c ****         latency = FLASH_LATENCY_1; /* 1WS */
1764:Drivers/STM32L4xx_HAL_Driver/Src/stm32l4xx_hal_rcc.c ****       }
1765:Drivers/STM32L4xx_HAL_Driver/Src/stm32l4xx_hal_rcc.c ****       /* else MSI < 8Mhz default FLASH_LATENCY_0 0WS */
1766:Drivers/STM32L4xx_HAL_Driver/Src/stm32l4xx_hal_rcc.c ****     }
1767:Drivers/STM32L4xx_HAL_Driver/Src/stm32l4xx_hal_rcc.c **** #else
1768:Drivers/STM32L4xx_HAL_Driver/Src/stm32l4xx_hal_rcc.c ****     if(msirange > RCC_MSIRANGE_8)
 915              		.loc 1 1768 0
 916 029e 802F     		cmp	r7, #128
 917 02a0 00F29881 		bhi	.L137
1769:Drivers/STM32L4xx_HAL_Driver/Src/stm32l4xx_hal_rcc.c ****     {
1770:Drivers/STM32L4xx_HAL_Driver/Src/stm32l4xx_hal_rcc.c ****       /* MSI > 16Mhz */
1771:Drivers/STM32L4xx_HAL_Driver/Src/stm32l4xx_hal_rcc.c ****       latency = FLASH_LATENCY_3; /* 3WS */
1772:Drivers/STM32L4xx_HAL_Driver/Src/stm32l4xx_hal_rcc.c ****     }
1773:Drivers/STM32L4xx_HAL_Driver/Src/stm32l4xx_hal_rcc.c ****     else
1774:Drivers/STM32L4xx_HAL_Driver/Src/stm32l4xx_hal_rcc.c ****     {
1775:Drivers/STM32L4xx_HAL_Driver/Src/stm32l4xx_hal_rcc.c ****       if(msirange == RCC_MSIRANGE_8)
 918              		.loc 1 1775 0
 919 02a4 00F0FF81 		beq	.L138
1776:Drivers/STM32L4xx_HAL_Driver/Src/stm32l4xx_hal_rcc.c ****       {
1777:Drivers/STM32L4xx_HAL_Driver/Src/stm32l4xx_hal_rcc.c ****         /* MSI 16Mhz */
1778:Drivers/STM32L4xx_HAL_Driver/Src/stm32l4xx_hal_rcc.c ****         latency = FLASH_LATENCY_2; /* 2WS */
1779:Drivers/STM32L4xx_HAL_Driver/Src/stm32l4xx_hal_rcc.c ****       }
1780:Drivers/STM32L4xx_HAL_Driver/Src/stm32l4xx_hal_rcc.c ****       else if(msirange == RCC_MSIRANGE_7)
 920              		.loc 1 1780 0
 921 02a8 A7F17007 		sub	r7, #112
ARM GAS  /tmp/ccap8I6O.s 			page 51


 922              	.LVL89:
 923 02ac B7FA87F7 		clz	r7, r7
 924              	.LVL90:
 925 02b0 7F09     		lsrs	r7, r7, #5
 926              	.L66:
 927              	.LVL91:
1781:Drivers/STM32L4xx_HAL_Driver/Src/stm32l4xx_hal_rcc.c ****       {
1782:Drivers/STM32L4xx_HAL_Driver/Src/stm32l4xx_hal_rcc.c ****         /* MSI 8Mhz */
1783:Drivers/STM32L4xx_HAL_Driver/Src/stm32l4xx_hal_rcc.c ****         latency = FLASH_LATENCY_1; /* 1WS */
1784:Drivers/STM32L4xx_HAL_Driver/Src/stm32l4xx_hal_rcc.c ****       }
1785:Drivers/STM32L4xx_HAL_Driver/Src/stm32l4xx_hal_rcc.c ****       /* else MSI < 8Mhz default FLASH_LATENCY_0 0WS */
1786:Drivers/STM32L4xx_HAL_Driver/Src/stm32l4xx_hal_rcc.c ****     }
1787:Drivers/STM32L4xx_HAL_Driver/Src/stm32l4xx_hal_rcc.c **** #endif
1788:Drivers/STM32L4xx_HAL_Driver/Src/stm32l4xx_hal_rcc.c ****   }
1789:Drivers/STM32L4xx_HAL_Driver/Src/stm32l4xx_hal_rcc.c **** 
1790:Drivers/STM32L4xx_HAL_Driver/Src/stm32l4xx_hal_rcc.c ****   __HAL_FLASH_SET_LATENCY(latency);
 928              		.loc 1 1790 0
 929 02b2 114A     		ldr	r2, .L222+8
 930 02b4 1368     		ldr	r3, [r2]
 931 02b6 23F00703 		bic	r3, r3, #7
 932 02ba 3B43     		orrs	r3, r3, r7
 933 02bc 1360     		str	r3, [r2]
1791:Drivers/STM32L4xx_HAL_Driver/Src/stm32l4xx_hal_rcc.c **** 
1792:Drivers/STM32L4xx_HAL_Driver/Src/stm32l4xx_hal_rcc.c ****   /* Check that the new number of wait states is taken into account to access the Flash
1793:Drivers/STM32L4xx_HAL_Driver/Src/stm32l4xx_hal_rcc.c ****      memory by reading the FLASH_ACR register */
1794:Drivers/STM32L4xx_HAL_Driver/Src/stm32l4xx_hal_rcc.c ****   if(__HAL_FLASH_GET_LATENCY() != latency)
 934              		.loc 1 1794 0
 935 02be 1368     		ldr	r3, [r2]
 936 02c0 03F00703 		and	r3, r3, #7
 937 02c4 9F42     		cmp	r7, r3
 938 02c6 1CD1     		bne	.L149
 939              	.LVL92:
 940              	.LBE22:
 941              	.LBE28:
 451:Drivers/STM32L4xx_HAL_Driver/Src/stm32l4xx_hal_rcc.c ****           /* Adjusts the Multiple Speed oscillator (MSI) calibration value.*/
 942              		.loc 1 451 0
 943 02c8 094B     		ldr	r3, .L222
 944 02ca 1A68     		ldr	r2, [r3]
 945 02cc 42F00802 		orr	r2, r2, #8
 946 02d0 1A60     		str	r2, [r3]
 947 02d2 1A68     		ldr	r2, [r3]
 948 02d4 216A     		ldr	r1, [r4, #32]
 949 02d6 22F0F002 		bic	r2, r2, #240
 950 02da 0A43     		orrs	r2, r2, r1
 951 02dc 1A60     		str	r2, [r3]
 453:Drivers/STM32L4xx_HAL_Driver/Src/stm32l4xx_hal_rcc.c ****         }
 952              		.loc 1 453 0
 953 02de 5A68     		ldr	r2, [r3, #4]
 954 02e0 E169     		ldr	r1, [r4, #28]
 955 02e2 22F47F42 		bic	r2, r2, #65280
 956 02e6 42EA0122 		orr	r2, r2, r1, lsl #8
 957 02ea 5A60     		str	r2, [r3, #4]
 958 02ec C8E0     		b	.L132
 959              	.L223:
 960 02ee 00BF     		.align	2
 961              	.L222:
 962 02f0 00100240 		.word	1073876992
ARM GAS  /tmp/ccap8I6O.s 			page 52


 963 02f4 00700040 		.word	1073770496
 964 02f8 00200240 		.word	1073881088
 965              	.LVL93:
 966              	.L216:
 431:Drivers/STM32L4xx_HAL_Driver/Src/stm32l4xx_hal_rcc.c ****       {
 967              		.loc 1 431 0 discriminator 1
 968 02fc A369     		ldr	r3, [r4, #24]
 969 02fe 002B     		cmp	r3, #0
 970 0300 A0D1     		bne	.L58
 971              	.LVL94:
 972              	.L149:
 978:Drivers/STM32L4xx_HAL_Driver/Src/stm32l4xx_hal_rcc.c ****       }
 973              		.loc 1 978 0
 974 0302 0120     		movs	r0, #1
1003:Drivers/STM32L4xx_HAL_Driver/Src/stm32l4xx_hal_rcc.c **** 
 975              		.loc 1 1003 0
 976 0304 05B0     		add	sp, sp, #20
 977              	.LCFI8:
 978              		.cfi_remember_state
 979              		.cfi_def_cfa_offset 28
 980              		@ sp needed
 981 0306 BDE8F083 		pop	{r4, r5, r6, r7, r8, r9, pc}
 982              	.LVL95:
 983              	.L72:
 984              	.LCFI9:
 985              		.cfi_restore_state
 509:Drivers/STM32L4xx_HAL_Driver/Src/stm32l4xx_hal_rcc.c **** 
 986              		.loc 1 509 0
 987 030a 3B68     		ldr	r3, [r7]
 988 030c 23F00103 		bic	r3, r3, #1
 989 0310 3B60     		str	r3, [r7]
 512:Drivers/STM32L4xx_HAL_Driver/Src/stm32l4xx_hal_rcc.c **** 
 990              		.loc 1 512 0
 991 0312 FFF7FEFF 		bl	HAL_GetTick
 992              	.LVL96:
 993 0316 8046     		mov	r8, r0
 994              	.LVL97:
 515:Drivers/STM32L4xx_HAL_Driver/Src/stm32l4xx_hal_rcc.c ****         {
 995              		.loc 1 515 0
 996 0318 05E0     		b	.L75
 997              	.LVL98:
 998              	.L77:
 517:Drivers/STM32L4xx_HAL_Driver/Src/stm32l4xx_hal_rcc.c ****           {
 999              		.loc 1 517 0
 1000 031a FFF7FEFF 		bl	HAL_GetTick
 1001              	.LVL99:
 1002 031e A0EB0800 		sub	r0, r0, r8
 1003 0322 0228     		cmp	r0, #2
 1004 0324 60D8     		bhi	.L76
 1005              	.L75:
 515:Drivers/STM32L4xx_HAL_Driver/Src/stm32l4xx_hal_rcc.c ****         {
 1006              		.loc 1 515 0
 1007 0326 3B68     		ldr	r3, [r7]
 1008 0328 9807     		lsls	r0, r3, #30
 1009 032a F6D4     		bmi	.L77
 1010              	.LVL100:
 1011              	.L198:
ARM GAS  /tmp/ccap8I6O.s 			page 53


 1012 032c 2368     		ldr	r3, [r4]
 526:Drivers/STM32L4xx_HAL_Driver/Src/stm32l4xx_hal_rcc.c ****   {
 1013              		.loc 1 526 0
 1014 032e D907     		lsls	r1, r3, #31
 1015 0330 7FF5D2AE 		bpl	.L78
 1016 0334 A6E6     		b	.L219
 1017              	.LVL101:
 1018              	.L98:
 707:Drivers/STM32L4xx_HAL_Driver/Src/stm32l4xx_hal_rcc.c **** 
 1019              		.loc 1 707 0
 1020 0336 D6F89430 		ldr	r3, [r6, #148]
 1021 033a 23F00103 		bic	r3, r3, #1
 1022 033e C6F89430 		str	r3, [r6, #148]
 710:Drivers/STM32L4xx_HAL_Driver/Src/stm32l4xx_hal_rcc.c **** 
 1023              		.loc 1 710 0
 1024 0342 FFF7FEFF 		bl	HAL_GetTick
 1025              	.LVL102:
 1026 0346 0746     		mov	r7, r0
 1027              	.LVL103:
 713:Drivers/STM32L4xx_HAL_Driver/Src/stm32l4xx_hal_rcc.c ****       {
 1028              		.loc 1 713 0
 1029 0348 04E0     		b	.L101
 1030              	.LVL104:
 1031              	.L102:
 715:Drivers/STM32L4xx_HAL_Driver/Src/stm32l4xx_hal_rcc.c ****         {
 1032              		.loc 1 715 0
 1033 034a FFF7FEFF 		bl	HAL_GetTick
 1034              	.LVL105:
 1035 034e C01B     		subs	r0, r0, r7
 1036 0350 0228     		cmp	r0, #2
 1037 0352 49D8     		bhi	.L76
 1038              	.L101:
 713:Drivers/STM32L4xx_HAL_Driver/Src/stm32l4xx_hal_rcc.c ****       {
 1039              		.loc 1 713 0
 1040 0354 D6F89430 		ldr	r3, [r6, #148]
 1041 0358 9B07     		lsls	r3, r3, #30
 1042 035a F6D4     		bmi	.L102
 1043 035c DAE6     		b	.L200
 1044              	.LVL106:
 1045              	.L215:
 585:Drivers/STM32L4xx_HAL_Driver/Src/stm32l4xx_hal_rcc.c ****     {
 1046              		.loc 1 585 0
 1047 035e 022E     		cmp	r6, #2
 1048 0360 7FF44AAF 		bne	.L90
 1049              	.L89:
 588:Drivers/STM32L4xx_HAL_Driver/Src/stm32l4xx_hal_rcc.c ****       {
 1050              		.loc 1 588 0
 1051 0364 AC4A     		ldr	r2, .L224
 1052 0366 1268     		ldr	r2, [r2]
 1053 0368 5205     		lsls	r2, r2, #21
 1054 036a 02D5     		bpl	.L91
 588:Drivers/STM32L4xx_HAL_Driver/Src/stm32l4xx_hal_rcc.c ****       {
 1055              		.loc 1 588 0 is_stmt 0 discriminator 1
 1056 036c E268     		ldr	r2, [r4, #12]
 1057 036e 002A     		cmp	r2, #0
 1058 0370 C7D0     		beq	.L149
 1059              	.L91:
ARM GAS  /tmp/ccap8I6O.s 			page 54


 596:Drivers/STM32L4xx_HAL_Driver/Src/stm32l4xx_hal_rcc.c ****       }
 1060              		.loc 1 596 0 is_stmt 1
 1061 0372 A949     		ldr	r1, .L224
 1062 0374 2069     		ldr	r0, [r4, #16]
 1063 0376 4A68     		ldr	r2, [r1, #4]
 1064 0378 22F0F852 		bic	r2, r2, #520093696
 1065 037c 42EA0062 		orr	r2, r2, r0, lsl #24
 1066 0380 4A60     		str	r2, [r1, #4]
 588:Drivers/STM32L4xx_HAL_Driver/Src/stm32l4xx_hal_rcc.c ****       {
 1067              		.loc 1 588 0
 1068 0382 ACE6     		b	.L88
 1069              	.L206:
 533:Drivers/STM32L4xx_HAL_Driver/Src/stm32l4xx_hal_rcc.c ****     {
 1070              		.loc 1 533 0
 1071 0384 032E     		cmp	r6, #3
 1072 0386 7FF483AE 		bne	.L80
 1073              	.L79:
 535:Drivers/STM32L4xx_HAL_Driver/Src/stm32l4xx_hal_rcc.c ****       {
 1074              		.loc 1 535 0
 1075 038a A34A     		ldr	r2, .L224
 1076 038c 1268     		ldr	r2, [r2]
 1077 038e 9203     		lsls	r2, r2, #14
 1078 0390 7FF5A2AE 		bpl	.L78
 535:Drivers/STM32L4xx_HAL_Driver/Src/stm32l4xx_hal_rcc.c ****       {
 1079              		.loc 1 535 0 is_stmt 0 discriminator 1
 1080 0394 6268     		ldr	r2, [r4, #4]
 1081 0396 002A     		cmp	r2, #0
 1082 0398 7FF49EAE 		bne	.L78
 1083 039c B1E7     		b	.L149
 1084              	.L207:
 543:Drivers/STM32L4xx_HAL_Driver/Src/stm32l4xx_hal_rcc.c **** 
 1085              		.loc 1 543 0 is_stmt 1 discriminator 1
 1086 039e 9E4A     		ldr	r2, .L224
 1087 03a0 1368     		ldr	r3, [r2]
 1088 03a2 43F48033 		orr	r3, r3, #65536
 1089 03a6 1360     		str	r3, [r2]
 1090              	.L82:
 549:Drivers/STM32L4xx_HAL_Driver/Src/stm32l4xx_hal_rcc.c **** 
 1091              		.loc 1 549 0
 1092 03a8 FFF7FEFF 		bl	HAL_GetTick
 1093              	.LVL107:
 552:Drivers/STM32L4xx_HAL_Driver/Src/stm32l4xx_hal_rcc.c ****         {
 1094              		.loc 1 552 0
 1095 03ac 9A4F     		ldr	r7, .L224
 549:Drivers/STM32L4xx_HAL_Driver/Src/stm32l4xx_hal_rcc.c **** 
 1096              		.loc 1 549 0
 1097 03ae 8046     		mov	r8, r0
 1098              	.LVL108:
 552:Drivers/STM32L4xx_HAL_Driver/Src/stm32l4xx_hal_rcc.c ****         {
 1099              		.loc 1 552 0
 1100 03b0 05E0     		b	.L133
 1101              	.LVL109:
 1102              	.L85:
 554:Drivers/STM32L4xx_HAL_Driver/Src/stm32l4xx_hal_rcc.c ****           {
 1103              		.loc 1 554 0
 1104 03b2 FFF7FEFF 		bl	HAL_GetTick
 1105              	.LVL110:
ARM GAS  /tmp/ccap8I6O.s 			page 55


 1106 03b6 A0EB0800 		sub	r0, r0, r8
 1107 03ba 6428     		cmp	r0, #100
 1108 03bc 14D8     		bhi	.L76
 1109              	.L133:
 552:Drivers/STM32L4xx_HAL_Driver/Src/stm32l4xx_hal_rcc.c ****         {
 1110              		.loc 1 552 0
 1111 03be 3B68     		ldr	r3, [r7]
 1112 03c0 9B03     		lsls	r3, r3, #14
 1113 03c2 F6D5     		bpl	.L85
 1114 03c4 87E6     		b	.L199
 1115              	.LVL111:
 1116              	.L106:
 1117              	.LBB29:
 741:Drivers/STM32L4xx_HAL_Driver/Src/stm32l4xx_hal_rcc.c **** 
 1118              		.loc 1 741 0
 1119 03c6 3368     		ldr	r3, [r6]
 1120 03c8 43F48073 		orr	r3, r3, #256
 1121 03cc 3360     		str	r3, [r6]
 744:Drivers/STM32L4xx_HAL_Driver/Src/stm32l4xx_hal_rcc.c **** 
 1122              		.loc 1 744 0
 1123 03ce FFF7FEFF 		bl	HAL_GetTick
 1124              	.LVL112:
 1125 03d2 8046     		mov	r8, r0
 1126              	.LVL113:
 1127              	.L109:
 746:Drivers/STM32L4xx_HAL_Driver/Src/stm32l4xx_hal_rcc.c ****       {
 1128              		.loc 1 746 0
 1129 03d4 3368     		ldr	r3, [r6]
 1130 03d6 DA05     		lsls	r2, r3, #23
 1131 03d8 3FF5B3AE 		bmi	.L111
 748:Drivers/STM32L4xx_HAL_Driver/Src/stm32l4xx_hal_rcc.c ****         {
 1132              		.loc 1 748 0
 1133 03dc FFF7FEFF 		bl	HAL_GetTick
 1134              	.LVL114:
 1135 03e0 A0EB0800 		sub	r0, r0, r8
 1136 03e4 0228     		cmp	r0, #2
 1137 03e6 F5D9     		bls	.L109
 1138              	.LVL115:
 1139              	.L76:
 1140              	.LBE29:
 497:Drivers/STM32L4xx_HAL_Driver/Src/stm32l4xx_hal_rcc.c ****           }
 1141              		.loc 1 497 0
 1142 03e8 0320     		movs	r0, #3
1003:Drivers/STM32L4xx_HAL_Driver/Src/stm32l4xx_hal_rcc.c **** 
 1143              		.loc 1 1003 0
 1144 03ea 05B0     		add	sp, sp, #20
 1145              	.LCFI10:
 1146              		.cfi_remember_state
 1147              		.cfi_def_cfa_offset 28
 1148              		@ sp needed
 1149 03ec BDE8F083 		pop	{r4, r5, r6, r7, r8, r9, pc}
 1150              	.LVL116:
 1151              	.L62:
 1152              	.LCFI11:
 1153              		.cfi_restore_state
 459:Drivers/STM32L4xx_HAL_Driver/Src/stm32l4xx_hal_rcc.c ****           /* Adjusts the Multiple Speed oscillator (MSI) calibration value.*/
 1154              		.loc 1 459 0
ARM GAS  /tmp/ccap8I6O.s 			page 56


 1155 03f0 D8F80030 		ldr	r3, [r8]
 1156 03f4 43F00803 		orr	r3, r3, #8
 1157 03f8 C8F80030 		str	r3, [r8]
 1158 03fc D8F80030 		ldr	r3, [r8]
 1159 0400 23F0F003 		bic	r3, r3, #240
 1160 0404 3B43     		orrs	r3, r3, r7
 1161 0406 C8F80030 		str	r3, [r8]
 461:Drivers/STM32L4xx_HAL_Driver/Src/stm32l4xx_hal_rcc.c **** 
 1162              		.loc 1 461 0
 1163 040a D8F80430 		ldr	r3, [r8, #4]
 1164 040e E269     		ldr	r2, [r4, #28]
 1165 0410 23F47F43 		bic	r3, r3, #65280
 1166 0414 43EA0223 		orr	r3, r3, r2, lsl #8
 1167 0418 C8F80430 		str	r3, [r8, #4]
 1168              	.LVL117:
 1169              	.LBB30:
 1170              	.LBB31:
1721:Drivers/STM32L4xx_HAL_Driver/Src/stm32l4xx_hal_rcc.c ****   {
 1171              		.loc 1 1721 0
 1172 041c D8F85830 		ldr	r3, [r8, #88]
 1173 0420 DA00     		lsls	r2, r3, #3
 1174 0422 7AD4     		bmi	.L220
 1175              	.LBB32:
1727:Drivers/STM32L4xx_HAL_Driver/Src/stm32l4xx_hal_rcc.c ****     vos = HAL_PWREx_GetVoltageRange();
 1176              		.loc 1 1727 0
 1177 0424 D8F85830 		ldr	r3, [r8, #88]
 1178 0428 43F08053 		orr	r3, r3, #268435456
 1179 042c C8F85830 		str	r3, [r8, #88]
 1180 0430 D8F85830 		ldr	r3, [r8, #88]
 1181 0434 03F08053 		and	r3, r3, #268435456
 1182 0438 0393     		str	r3, [sp, #12]
 1183 043a 039B     		ldr	r3, [sp, #12]
 1184              	.LBE32:
1728:Drivers/STM32L4xx_HAL_Driver/Src/stm32l4xx_hal_rcc.c ****     __HAL_RCC_PWR_CLK_DISABLE();
 1185              		.loc 1 1728 0
 1186 043c FFF7FEFF 		bl	HAL_PWREx_GetVoltageRange
 1187              	.LVL118:
1729:Drivers/STM32L4xx_HAL_Driver/Src/stm32l4xx_hal_rcc.c ****   }
 1188              		.loc 1 1729 0
 1189 0440 D8F85830 		ldr	r3, [r8, #88]
 1190 0444 23F08053 		bic	r3, r3, #268435456
 1191 0448 C8F85830 		str	r3, [r8, #88]
 1192              	.L69:
1732:Drivers/STM32L4xx_HAL_Driver/Src/stm32l4xx_hal_rcc.c ****   {
 1193              		.loc 1 1732 0
 1194 044c B0F5007F 		cmp	r0, #512
 1195 0450 00F0C680 		beq	.L221
1768:Drivers/STM32L4xx_HAL_Driver/Src/stm32l4xx_hal_rcc.c ****     {
 1196              		.loc 1 1768 0
 1197 0454 802F     		cmp	r7, #128
 1198 0456 00F2BF80 		bhi	.L141
1775:Drivers/STM32L4xx_HAL_Driver/Src/stm32l4xx_hal_rcc.c ****       {
 1199              		.loc 1 1775 0
 1200 045a 00F02281 		beq	.L142
1780:Drivers/STM32L4xx_HAL_Driver/Src/stm32l4xx_hal_rcc.c ****       {
 1201              		.loc 1 1780 0
 1202 045e A7F17007 		sub	r7, #112
ARM GAS  /tmp/ccap8I6O.s 			page 57


 1203              	.LVL119:
 1204 0462 B7FA87F7 		clz	r7, r7
 1205              	.LVL120:
 1206 0466 7F09     		lsrs	r7, r7, #5
 1207              	.L71:
 1208              	.LVL121:
1790:Drivers/STM32L4xx_HAL_Driver/Src/stm32l4xx_hal_rcc.c **** 
 1209              		.loc 1 1790 0
 1210 0468 6C4A     		ldr	r2, .L224+4
 1211 046a 1368     		ldr	r3, [r2]
 1212 046c 23F00703 		bic	r3, r3, #7
 1213 0470 3B43     		orrs	r3, r3, r7
 1214 0472 1360     		str	r3, [r2]
 1215              		.loc 1 1794 0
 1216 0474 1368     		ldr	r3, [r2]
 1217 0476 03F00703 		and	r3, r3, #7
 1218 047a 9F42     		cmp	r7, r3
 1219 047c 7FF441AF 		bne	.L149
 1220              	.LVL122:
 1221              	.L132:
 1222              	.LBE31:
 1223              	.LBE30:
 471:Drivers/STM32L4xx_HAL_Driver/Src/stm32l4xx_hal_rcc.c **** 
 1224              		.loc 1 471 0
 1225 0480 FFF7FEFF 		bl	HAL_RCC_GetSysClockFreq
 1226              	.LVL123:
 1227 0484 644B     		ldr	r3, .L224
 1228 0486 664F     		ldr	r7, .L224+8
 1229 0488 9B68     		ldr	r3, [r3, #8]
 474:Drivers/STM32L4xx_HAL_Driver/Src/stm32l4xx_hal_rcc.c ****         if(status != HAL_OK)
 1230              		.loc 1 474 0
 1231 048a 6649     		ldr	r1, .L224+12
 471:Drivers/STM32L4xx_HAL_Driver/Src/stm32l4xx_hal_rcc.c **** 
 1232              		.loc 1 471 0
 1233 048c 664A     		ldr	r2, .L224+16
 1234 048e C3F30313 		ubfx	r3, r3, #4, #4
 1235 0492 FB5C     		ldrb	r3, [r7, r3]	@ zero_extendqisi2
 1236 0494 03F01F03 		and	r3, r3, #31
 1237 0498 20FA03F3 		lsr	r3, r0, r3
 474:Drivers/STM32L4xx_HAL_Driver/Src/stm32l4xx_hal_rcc.c ****         if(status != HAL_OK)
 1238              		.loc 1 474 0
 1239 049c 0868     		ldr	r0, [r1]
 471:Drivers/STM32L4xx_HAL_Driver/Src/stm32l4xx_hal_rcc.c **** 
 1240              		.loc 1 471 0
 1241 049e 1360     		str	r3, [r2]
 474:Drivers/STM32L4xx_HAL_Driver/Src/stm32l4xx_hal_rcc.c ****         if(status != HAL_OK)
 1242              		.loc 1 474 0
 1243 04a0 FFF7FEFF 		bl	HAL_InitTick
 1244              	.LVL124:
 475:Drivers/STM32L4xx_HAL_Driver/Src/stm32l4xx_hal_rcc.c ****         {
 1245              		.loc 1 475 0
 1246 04a4 0028     		cmp	r0, #0
 1247 04a6 3FF441AF 		beq	.L198
 1248 04aa 9CE6     		b	.L150
 1249              	.LVL125:
 1250              	.L92:
 625:Drivers/STM32L4xx_HAL_Driver/Src/stm32l4xx_hal_rcc.c **** 
ARM GAS  /tmp/ccap8I6O.s 			page 58


 1251              		.loc 1 625 0
 1252 04ac 3368     		ldr	r3, [r6]
 1253 04ae 23F48073 		bic	r3, r3, #256
 1254 04b2 3360     		str	r3, [r6]
 628:Drivers/STM32L4xx_HAL_Driver/Src/stm32l4xx_hal_rcc.c **** 
 1255              		.loc 1 628 0
 1256 04b4 FFF7FEFF 		bl	HAL_GetTick
 1257              	.LVL126:
 1258 04b8 0746     		mov	r7, r0
 1259              	.LVL127:
 631:Drivers/STM32L4xx_HAL_Driver/Src/stm32l4xx_hal_rcc.c ****         {
 1260              		.loc 1 631 0
 1261 04ba 04E0     		b	.L95
 1262              	.LVL128:
 1263              	.L96:
 633:Drivers/STM32L4xx_HAL_Driver/Src/stm32l4xx_hal_rcc.c ****           {
 1264              		.loc 1 633 0
 1265 04bc FFF7FEFF 		bl	HAL_GetTick
 1266              	.LVL129:
 1267 04c0 C01B     		subs	r0, r0, r7
 1268 04c2 0228     		cmp	r0, #2
 1269 04c4 90D8     		bhi	.L76
 1270              	.L95:
 631:Drivers/STM32L4xx_HAL_Driver/Src/stm32l4xx_hal_rcc.c ****         {
 1271              		.loc 1 631 0
 1272 04c6 3368     		ldr	r3, [r6]
 1273 04c8 5805     		lsls	r0, r3, #21
 1274 04ca F7D4     		bmi	.L96
 1275 04cc 2368     		ldr	r3, [r4]
 1276 04ce 06E6     		b	.L88
 1277              	.LVL130:
 1278              	.L143:
 1279              	.LBB38:
 725:Drivers/STM32L4xx_HAL_Driver/Src/stm32l4xx_hal_rcc.c **** 
 1280              		.loc 1 725 0
 1281 04d0 0027     		movs	r7, #0
 1282 04d2 31E6     		b	.L105
 1283              	.LVL131:
 1284              	.L211:
 780:Drivers/STM32L4xx_HAL_Driver/Src/stm32l4xx_hal_rcc.c **** #endif /* RCC_BDCR_LSESYSDIS */
 1285              		.loc 1 780 0 discriminator 3
 1286 04d4 504B     		ldr	r3, .L224
 1287 04d6 D3F89020 		ldr	r2, [r3, #144]
 1288 04da 42F00402 		orr	r2, r2, #4
 1289 04de C3F89020 		str	r2, [r3, #144]
 1290 04e2 D3F89020 		ldr	r2, [r3, #144]
 1291 04e6 42F00102 		orr	r2, r2, #1
 1292 04ea C3F89020 		str	r2, [r3, #144]
 1293              	.L112:
 787:Drivers/STM32L4xx_HAL_Driver/Src/stm32l4xx_hal_rcc.c **** 
 1294              		.loc 1 787 0
 1295 04ee FFF7FEFF 		bl	HAL_GetTick
 1296              	.LVL132:
 790:Drivers/STM32L4xx_HAL_Driver/Src/stm32l4xx_hal_rcc.c ****       {
 1297              		.loc 1 790 0
 1298 04f2 494E     		ldr	r6, .L224
 787:Drivers/STM32L4xx_HAL_Driver/Src/stm32l4xx_hal_rcc.c **** 
ARM GAS  /tmp/ccap8I6O.s 			page 59


 1299              		.loc 1 787 0
 1300 04f4 8146     		mov	r9, r0
 1301              	.LVL133:
 792:Drivers/STM32L4xx_HAL_Driver/Src/stm32l4xx_hal_rcc.c ****         {
 1302              		.loc 1 792 0
 1303 04f6 41F28838 		movw	r8, #5000
 790:Drivers/STM32L4xx_HAL_Driver/Src/stm32l4xx_hal_rcc.c ****       {
 1304              		.loc 1 790 0
 1305 04fa 06E0     		b	.L134
 1306              	.LVL134:
 1307              	.L115:
 792:Drivers/STM32L4xx_HAL_Driver/Src/stm32l4xx_hal_rcc.c ****         {
 1308              		.loc 1 792 0
 1309 04fc FFF7FEFF 		bl	HAL_GetTick
 1310              	.LVL135:
 1311 0500 A0EB0900 		sub	r0, r0, r9
 1312 0504 4045     		cmp	r0, r8
 1313 0506 3FF66FAF 		bhi	.L76
 1314              	.L134:
 790:Drivers/STM32L4xx_HAL_Driver/Src/stm32l4xx_hal_rcc.c ****       {
 1315              		.loc 1 790 0
 1316 050a D6F89030 		ldr	r3, [r6, #144]
 1317 050e 9B07     		lsls	r3, r3, #30
 1318 0510 F4D5     		bpl	.L115
 819:Drivers/STM32L4xx_HAL_Driver/Src/stm32l4xx_hal_rcc.c ****     {
 1319              		.loc 1 819 0
 1320 0512 002F     		cmp	r7, #0
 1321 0514 3FF440AE 		beq	.L104
 1322 0518 0AE0     		b	.L212
 1323              	.LVL136:
 1324              	.L220:
 1325              	.LBE38:
 1326              	.LBB39:
 1327              	.LBB33:
1723:Drivers/STM32L4xx_HAL_Driver/Src/stm32l4xx_hal_rcc.c ****   }
 1328              		.loc 1 1723 0
 1329 051a FFF7FEFF 		bl	HAL_PWREx_GetVoltageRange
 1330              	.LVL137:
 1331 051e 95E7     		b	.L69
 1332              	.LVL138:
 1333              	.L217:
 1334              	.LBE33:
 1335              	.LBE39:
 1336              	.LBB40:
 1337              	.LBB23:
 1338 0520 FFF7FEFF 		bl	HAL_PWREx_GetVoltageRange
 1339              	.LVL139:
 1340 0524 B7E6     		b	.L64
 1341              	.LVL140:
 1342              	.L214:
 1343              	.LBE23:
 1344              	.LBE40:
 941:Drivers/STM32L4xx_HAL_Driver/Src/stm32l4xx_hal_rcc.c ****         }
 1345              		.loc 1 941 0
 1346 0526 DA68     		ldr	r2, [r3, #12]
 1347 0528 22F00302 		bic	r2, r2, #3
 1348 052c DA60     		str	r2, [r3, #12]
ARM GAS  /tmp/ccap8I6O.s 			page 60


 1349 052e 45E6     		b	.L129
 1350              	.LVL141:
 1351              	.L212:
 1352              	.LBB41:
 821:Drivers/STM32L4xx_HAL_Driver/Src/stm32l4xx_hal_rcc.c ****     }
 1353              		.loc 1 821 0
 1354 0530 394A     		ldr	r2, .L224
 1355 0532 936D     		ldr	r3, [r2, #88]
 1356 0534 23F08053 		bic	r3, r3, #268435456
 1357 0538 9365     		str	r3, [r2, #88]
 1358 053a 2DE6     		b	.L104
 1359              	.LVL142:
 1360              	.L208:
 1361              	.LBE41:
 543:Drivers/STM32L4xx_HAL_Driver/Src/stm32l4xx_hal_rcc.c **** 
 1362              		.loc 1 543 0 discriminator 3
 1363 053c 03F18043 		add	r3, r3, #1073741824
 1364 0540 A3F53C33 		sub	r3, r3, #192512
 1365 0544 1A68     		ldr	r2, [r3]
 1366 0546 42F48022 		orr	r2, r2, #262144
 1367 054a 1A60     		str	r2, [r3]
 1368 054c 1A68     		ldr	r2, [r3]
 1369 054e 42F48032 		orr	r2, r2, #65536
 1370 0552 1A60     		str	r2, [r3]
 1371 0554 28E7     		b	.L82
 1372              	.LVL143:
 1373              	.L122:
 976:Drivers/STM32L4xx_HAL_Driver/Src/stm32l4xx_hal_rcc.c ****       {
 1374              		.loc 1 976 0
 1375 0556 0128     		cmp	r0, #1
 1376 0558 3FF445AE 		beq	.L150
 982:Drivers/STM32L4xx_HAL_Driver/Src/stm32l4xx_hal_rcc.c ****         /* Do not return HAL_ERROR if request repeats the current configuration */
 1377              		.loc 1 982 0
 1378 055c 2E4B     		ldr	r3, .L224
 984:Drivers/STM32L4xx_HAL_Driver/Src/stm32l4xx_hal_rcc.c ****            (READ_BIT(pll_config, RCC_PLLCFGR_PLLM)    != ((RCC_OscInitStruct->PLL.PLLM - 1U) << RCC
 1379              		.loc 1 984 0
 1380 055e E26A     		ldr	r2, [r4, #44]
 982:Drivers/STM32L4xx_HAL_Driver/Src/stm32l4xx_hal_rcc.c ****         /* Do not return HAL_ERROR if request repeats the current configuration */
 1381              		.loc 1 982 0
 1382 0560 DB68     		ldr	r3, [r3, #12]
 1383              	.LVL144:
 984:Drivers/STM32L4xx_HAL_Driver/Src/stm32l4xx_hal_rcc.c ****            (READ_BIT(pll_config, RCC_PLLCFGR_PLLM)    != ((RCC_OscInitStruct->PLL.PLLM - 1U) << RCC
 1384              		.loc 1 984 0
 1385 0562 03F00301 		and	r1, r3, #3
 1386 0566 9142     		cmp	r1, r2
 1387 0568 7FF4CBAE 		bne	.L149
 985:Drivers/STM32L4xx_HAL_Driver/Src/stm32l4xx_hal_rcc.c ****            (READ_BIT(pll_config, RCC_PLLCFGR_PLLN)    != (RCC_OscInitStruct->PLL.PLLN << RCC_PLLCFG
 1388              		.loc 1 985 0 discriminator 1
 1389 056c 216B     		ldr	r1, [r4, #48]
 1390 056e 03F07002 		and	r2, r3, #112
 1391 0572 0139     		subs	r1, r1, #1
 984:Drivers/STM32L4xx_HAL_Driver/Src/stm32l4xx_hal_rcc.c ****            (READ_BIT(pll_config, RCC_PLLCFGR_PLLM)    != ((RCC_OscInitStruct->PLL.PLLM - 1U) << RCC
 1392              		.loc 1 984 0 discriminator 1
 1393 0574 B2EB011F 		cmp	r2, r1, lsl #4
 1394 0578 7FF4C3AE 		bne	.L149
 986:Drivers/STM32L4xx_HAL_Driver/Src/stm32l4xx_hal_rcc.c **** #if defined(RCC_PLLP_SUPPORT)
 1395              		.loc 1 986 0
ARM GAS  /tmp/ccap8I6O.s 			page 61


 1396 057c 616B     		ldr	r1, [r4, #52]
 1397 057e 03F4FE42 		and	r2, r3, #32512
 985:Drivers/STM32L4xx_HAL_Driver/Src/stm32l4xx_hal_rcc.c ****            (READ_BIT(pll_config, RCC_PLLCFGR_PLLN)    != (RCC_OscInitStruct->PLL.PLLN << RCC_PLLCFG
 1398              		.loc 1 985 0
 1399 0582 B2EB012F 		cmp	r2, r1, lsl #8
 1400 0586 7FF4BCAE 		bne	.L149
 991:Drivers/STM32L4xx_HAL_Driver/Src/stm32l4xx_hal_rcc.c **** #endif
 1401              		.loc 1 991 0
 1402 058a A26B     		ldr	r2, [r4, #56]
 1403 058c 073A     		subs	r2, r2, #7
 1404 058e 03F40031 		and	r1, r3, #131072
 1405 0592 18BF     		it	ne
 1406 0594 0122     		movne	r2, #1
 986:Drivers/STM32L4xx_HAL_Driver/Src/stm32l4xx_hal_rcc.c **** #if defined(RCC_PLLP_SUPPORT)
 1407              		.loc 1 986 0
 1408 0596 9142     		cmp	r1, r2
 1409 0598 7FF4B3AE 		bne	.L149
 994:Drivers/STM32L4xx_HAL_Driver/Src/stm32l4xx_hal_rcc.c ****            (READ_BIT(pll_config, RCC_PLLCFGR_PLLR)    != ((((RCC_OscInitStruct->PLL.PLLR) >> 1U) - 
 1410              		.loc 1 994 0
 1411 059c E26B     		ldr	r2, [r4, #60]
 1412 059e 5208     		lsrs	r2, r2, #1
 1413 05a0 013A     		subs	r2, r2, #1
 1414 05a2 03F4C001 		and	r1, r3, #6291456
 991:Drivers/STM32L4xx_HAL_Driver/Src/stm32l4xx_hal_rcc.c **** #endif
 1415              		.loc 1 991 0
 1416 05a6 B1EB425F 		cmp	r1, r2, lsl #21
 1417 05aa 7FF4AAAE 		bne	.L149
 995:Drivers/STM32L4xx_HAL_Driver/Src/stm32l4xx_hal_rcc.c ****         {
 1418              		.loc 1 995 0
 1419 05ae 226C     		ldr	r2, [r4, #64]
 1420 05b0 5208     		lsrs	r2, r2, #1
 1421 05b2 013A     		subs	r2, r2, #1
 1422 05b4 03F0C063 		and	r3, r3, #100663296
 1423              	.LVL145:
 994:Drivers/STM32L4xx_HAL_Driver/Src/stm32l4xx_hal_rcc.c ****            (READ_BIT(pll_config, RCC_PLLCFGR_PLLR)    != ((((RCC_OscInitStruct->PLL.PLLR) >> 1U) - 
 1424              		.loc 1 994 0
 1425 05b8 B3EB426F 		cmp	r3, r2, lsl #25
 410:Drivers/STM32L4xx_HAL_Driver/Src/stm32l4xx_hal_rcc.c ****   }
 1426              		.loc 1 410 0
 1427 05bc 14BF     		ite	ne
 1428 05be 0120     		movne	r0, #1
 1429 05c0 0020     		moveq	r0, #0
 1430 05c2 10E6     		b	.L150
 1431              	.LVL146:
 1432              	.L210:
 1433              	.LBB42:
 780:Drivers/STM32L4xx_HAL_Driver/Src/stm32l4xx_hal_rcc.c **** #endif /* RCC_BDCR_LSESYSDIS */
 1434              		.loc 1 780 0 discriminator 1
 1435 05c4 144A     		ldr	r2, .L224
 1436 05c6 D2F89030 		ldr	r3, [r2, #144]
 1437 05ca 43F00103 		orr	r3, r3, #1
 1438 05ce C2F89030 		str	r3, [r2, #144]
 1439 05d2 8CE7     		b	.L112
 1440              	.LVL147:
 1441              	.L137:
 1442              	.LBE42:
 1443              	.LBB43:
ARM GAS  /tmp/ccap8I6O.s 			page 62


 1444              	.LBB24:
1771:Drivers/STM32L4xx_HAL_Driver/Src/stm32l4xx_hal_rcc.c ****     }
 1445              		.loc 1 1771 0
 1446 05d4 0327     		movs	r7, #3
 1447              	.LVL148:
 1448 05d6 6CE6     		b	.L66
 1449              	.LVL149:
 1450              	.L141:
 1451              	.LBE24:
 1452              	.LBE43:
 1453              	.LBB44:
 1454              	.LBB34:
 1455 05d8 0327     		movs	r7, #3
 1456              	.LVL150:
 1457 05da 45E7     		b	.L71
 1458              	.LVL151:
 1459              	.L201:
 1460              	.LCFI12:
 1461              		.cfi_def_cfa_offset 0
 1462              		.cfi_restore 4
 1463              		.cfi_restore 5
 1464              		.cfi_restore 6
 1465              		.cfi_restore 7
 1466              		.cfi_restore 8
 1467              		.cfi_restore 9
 1468              		.cfi_restore 14
 1469              	.LBE34:
 1470              	.LBE44:
 410:Drivers/STM32L4xx_HAL_Driver/Src/stm32l4xx_hal_rcc.c ****   }
 1471              		.loc 1 410 0
 1472 05dc 0120     		movs	r0, #1
 1473              	.LVL152:
1003:Drivers/STM32L4xx_HAL_Driver/Src/stm32l4xx_hal_rcc.c **** 
 1474              		.loc 1 1003 0
 1475 05de 7047     		bx	lr
 1476              	.LVL153:
