ARM GAS  /tmp/cc03sstA.s 			page 1


   1              		.cpu cortex-m4
   2              		.eabi_attribute 27, 1
   3              		.eabi_attribute 28, 1
   4              		.eabi_attribute 20, 1
   5              		.eabi_attribute 21, 1
   6              		.eabi_attribute 23, 3
   7              		.eabi_attribute 24, 1
   8              		.eabi_attribute 25, 1
   9              		.eabi_attribute 26, 1
  10              		.eabi_attribute 30, 2
  11              		.eabi_attribute 34, 1
  12              		.eabi_attribute 18, 4
  13              		.file	"stm32l4xx_hal_exti.c"
  14              		.text
  15              	.Ltext0:
  16              		.cfi_sections	.debug_frame
  17              		.section	.text.HAL_EXTI_SetConfigLine,"ax",%progbits
  18              		.align	1
  19              		.p2align 2,,3
  20              		.global	HAL_EXTI_SetConfigLine
  21              		.syntax unified
  22              		.thumb
  23              		.thumb_func
  24              		.fpu fpv4-sp-d16
  26              	HAL_EXTI_SetConfigLine:
  27              	.LFB130:
  28              		.file 1 "Drivers/STM32L4xx_HAL_Driver/Src/stm32l4xx_hal_exti.c"
   1:Drivers/STM32L4xx_HAL_Driver/Src/stm32l4xx_hal_exti.c **** /**
   2:Drivers/STM32L4xx_HAL_Driver/Src/stm32l4xx_hal_exti.c ****   ******************************************************************************
   3:Drivers/STM32L4xx_HAL_Driver/Src/stm32l4xx_hal_exti.c ****   * @file    stm32l4xx_hal_exti.c
   4:Drivers/STM32L4xx_HAL_Driver/Src/stm32l4xx_hal_exti.c ****   * @author  MCD Application Team
   5:Drivers/STM32L4xx_HAL_Driver/Src/stm32l4xx_hal_exti.c ****   * @brief   EXTI HAL module driver.
   6:Drivers/STM32L4xx_HAL_Driver/Src/stm32l4xx_hal_exti.c ****   *          This file provides firmware functions to manage the following
   7:Drivers/STM32L4xx_HAL_Driver/Src/stm32l4xx_hal_exti.c ****   *          functionalities of the Extended Interrupts and events controller (EXTI) peripheral:
   8:Drivers/STM32L4xx_HAL_Driver/Src/stm32l4xx_hal_exti.c ****   *           + Initialization and de-initialization functions
   9:Drivers/STM32L4xx_HAL_Driver/Src/stm32l4xx_hal_exti.c ****   *           + IO operation functions
  10:Drivers/STM32L4xx_HAL_Driver/Src/stm32l4xx_hal_exti.c ****   *
  11:Drivers/STM32L4xx_HAL_Driver/Src/stm32l4xx_hal_exti.c ****   @verbatim
  12:Drivers/STM32L4xx_HAL_Driver/Src/stm32l4xx_hal_exti.c ****   ==============================================================================
  13:Drivers/STM32L4xx_HAL_Driver/Src/stm32l4xx_hal_exti.c ****                     ##### EXTI Peripheral features #####
  14:Drivers/STM32L4xx_HAL_Driver/Src/stm32l4xx_hal_exti.c ****   ==============================================================================
  15:Drivers/STM32L4xx_HAL_Driver/Src/stm32l4xx_hal_exti.c ****   [..]
  16:Drivers/STM32L4xx_HAL_Driver/Src/stm32l4xx_hal_exti.c ****     (+) Each Exti line can be configured within this driver.
  17:Drivers/STM32L4xx_HAL_Driver/Src/stm32l4xx_hal_exti.c **** 
  18:Drivers/STM32L4xx_HAL_Driver/Src/stm32l4xx_hal_exti.c ****     (+) Exti line can be configured in 3 different modes
  19:Drivers/STM32L4xx_HAL_Driver/Src/stm32l4xx_hal_exti.c ****         (++) Interrupt
  20:Drivers/STM32L4xx_HAL_Driver/Src/stm32l4xx_hal_exti.c ****         (++) Event
  21:Drivers/STM32L4xx_HAL_Driver/Src/stm32l4xx_hal_exti.c ****         (++) Both of them
  22:Drivers/STM32L4xx_HAL_Driver/Src/stm32l4xx_hal_exti.c **** 
  23:Drivers/STM32L4xx_HAL_Driver/Src/stm32l4xx_hal_exti.c ****     (+) Configurable Exti lines can be configured with 3 different triggers
  24:Drivers/STM32L4xx_HAL_Driver/Src/stm32l4xx_hal_exti.c ****         (++) Rising
  25:Drivers/STM32L4xx_HAL_Driver/Src/stm32l4xx_hal_exti.c ****         (++) Falling
  26:Drivers/STM32L4xx_HAL_Driver/Src/stm32l4xx_hal_exti.c ****         (++) Both of them
  27:Drivers/STM32L4xx_HAL_Driver/Src/stm32l4xx_hal_exti.c **** 
  28:Drivers/STM32L4xx_HAL_Driver/Src/stm32l4xx_hal_exti.c ****     (+) When set in interrupt mode, configurable Exti lines have two different
  29:Drivers/STM32L4xx_HAL_Driver/Src/stm32l4xx_hal_exti.c ****         interrupts pending registers which allow to distinguish which transition
  30:Drivers/STM32L4xx_HAL_Driver/Src/stm32l4xx_hal_exti.c ****         occurs:
ARM GAS  /tmp/cc03sstA.s 			page 2


  31:Drivers/STM32L4xx_HAL_Driver/Src/stm32l4xx_hal_exti.c ****         (++) Rising edge pending interrupt
  32:Drivers/STM32L4xx_HAL_Driver/Src/stm32l4xx_hal_exti.c ****         (++) Falling
  33:Drivers/STM32L4xx_HAL_Driver/Src/stm32l4xx_hal_exti.c **** 
  34:Drivers/STM32L4xx_HAL_Driver/Src/stm32l4xx_hal_exti.c ****     (+) Exti lines 0 to 15 are linked to gpio pin number 0 to 15. Gpio port can
  35:Drivers/STM32L4xx_HAL_Driver/Src/stm32l4xx_hal_exti.c ****         be selected through multiplexer.
  36:Drivers/STM32L4xx_HAL_Driver/Src/stm32l4xx_hal_exti.c **** 
  37:Drivers/STM32L4xx_HAL_Driver/Src/stm32l4xx_hal_exti.c ****                      ##### How to use this driver #####
  38:Drivers/STM32L4xx_HAL_Driver/Src/stm32l4xx_hal_exti.c ****   ==============================================================================
  39:Drivers/STM32L4xx_HAL_Driver/Src/stm32l4xx_hal_exti.c ****   [..]
  40:Drivers/STM32L4xx_HAL_Driver/Src/stm32l4xx_hal_exti.c **** 
  41:Drivers/STM32L4xx_HAL_Driver/Src/stm32l4xx_hal_exti.c ****     (#) Configure the EXTI line using HAL_EXTI_SetConfigLine().
  42:Drivers/STM32L4xx_HAL_Driver/Src/stm32l4xx_hal_exti.c ****         (++) Choose the interrupt line number by setting "Line" member from
  43:Drivers/STM32L4xx_HAL_Driver/Src/stm32l4xx_hal_exti.c ****              EXTI_ConfigTypeDef structure.
  44:Drivers/STM32L4xx_HAL_Driver/Src/stm32l4xx_hal_exti.c ****         (++) Configure the interrupt and/or event mode using "Mode" member from
  45:Drivers/STM32L4xx_HAL_Driver/Src/stm32l4xx_hal_exti.c ****              EXTI_ConfigTypeDef structure.
  46:Drivers/STM32L4xx_HAL_Driver/Src/stm32l4xx_hal_exti.c ****         (++) For configurable lines, configure rising and/or falling trigger
  47:Drivers/STM32L4xx_HAL_Driver/Src/stm32l4xx_hal_exti.c ****              "Trigger" member from EXTI_ConfigTypeDef structure.
  48:Drivers/STM32L4xx_HAL_Driver/Src/stm32l4xx_hal_exti.c ****         (++) For Exti lines linked to gpio, choose gpio port using "GPIOSel"
  49:Drivers/STM32L4xx_HAL_Driver/Src/stm32l4xx_hal_exti.c ****              member from GPIO_InitTypeDef structure.
  50:Drivers/STM32L4xx_HAL_Driver/Src/stm32l4xx_hal_exti.c **** 
  51:Drivers/STM32L4xx_HAL_Driver/Src/stm32l4xx_hal_exti.c ****     (#) Get current Exti configuration of a dedicated line using
  52:Drivers/STM32L4xx_HAL_Driver/Src/stm32l4xx_hal_exti.c ****         HAL_EXTI_GetConfigLine().
  53:Drivers/STM32L4xx_HAL_Driver/Src/stm32l4xx_hal_exti.c ****         (++) Provide exiting handle as parameter.
  54:Drivers/STM32L4xx_HAL_Driver/Src/stm32l4xx_hal_exti.c ****         (++) Provide pointer on EXTI_ConfigTypeDef structure as second parameter.
  55:Drivers/STM32L4xx_HAL_Driver/Src/stm32l4xx_hal_exti.c **** 
  56:Drivers/STM32L4xx_HAL_Driver/Src/stm32l4xx_hal_exti.c ****     (#) Clear Exti configuration of a dedicated line using HAL_EXTI_GetConfigLine().
  57:Drivers/STM32L4xx_HAL_Driver/Src/stm32l4xx_hal_exti.c ****         (++) Provide exiting handle as parameter.
  58:Drivers/STM32L4xx_HAL_Driver/Src/stm32l4xx_hal_exti.c **** 
  59:Drivers/STM32L4xx_HAL_Driver/Src/stm32l4xx_hal_exti.c ****     (#) Register callback to treat Exti interrupts using HAL_EXTI_RegisterCallback().
  60:Drivers/STM32L4xx_HAL_Driver/Src/stm32l4xx_hal_exti.c ****         (++) Provide exiting handle as first parameter.
  61:Drivers/STM32L4xx_HAL_Driver/Src/stm32l4xx_hal_exti.c ****         (++) Provide which callback will be registered using one value from
  62:Drivers/STM32L4xx_HAL_Driver/Src/stm32l4xx_hal_exti.c ****              EXTI_CallbackIDTypeDef.
  63:Drivers/STM32L4xx_HAL_Driver/Src/stm32l4xx_hal_exti.c ****         (++) Provide callback function pointer.
  64:Drivers/STM32L4xx_HAL_Driver/Src/stm32l4xx_hal_exti.c **** 
  65:Drivers/STM32L4xx_HAL_Driver/Src/stm32l4xx_hal_exti.c ****     (#) Get interrupt pending bit using HAL_EXTI_GetPending().
  66:Drivers/STM32L4xx_HAL_Driver/Src/stm32l4xx_hal_exti.c **** 
  67:Drivers/STM32L4xx_HAL_Driver/Src/stm32l4xx_hal_exti.c ****     (#) Clear interrupt pending bit using HAL_EXTI_GetPending().
  68:Drivers/STM32L4xx_HAL_Driver/Src/stm32l4xx_hal_exti.c **** 
  69:Drivers/STM32L4xx_HAL_Driver/Src/stm32l4xx_hal_exti.c ****     (#) Generate software interrupt using HAL_EXTI_GenerateSWI().
  70:Drivers/STM32L4xx_HAL_Driver/Src/stm32l4xx_hal_exti.c **** 
  71:Drivers/STM32L4xx_HAL_Driver/Src/stm32l4xx_hal_exti.c ****   @endverbatim
  72:Drivers/STM32L4xx_HAL_Driver/Src/stm32l4xx_hal_exti.c ****   ******************************************************************************
  73:Drivers/STM32L4xx_HAL_Driver/Src/stm32l4xx_hal_exti.c ****   * @attention
  74:Drivers/STM32L4xx_HAL_Driver/Src/stm32l4xx_hal_exti.c ****   *
  75:Drivers/STM32L4xx_HAL_Driver/Src/stm32l4xx_hal_exti.c ****   * <h2><center>&copy; Copyright (c) 2018 STMicroelectronics.
  76:Drivers/STM32L4xx_HAL_Driver/Src/stm32l4xx_hal_exti.c ****   * All rights reserved.</center></h2>
  77:Drivers/STM32L4xx_HAL_Driver/Src/stm32l4xx_hal_exti.c ****   *
  78:Drivers/STM32L4xx_HAL_Driver/Src/stm32l4xx_hal_exti.c ****   * This software component is licensed by ST under BSD 3-Clause license,
  79:Drivers/STM32L4xx_HAL_Driver/Src/stm32l4xx_hal_exti.c ****   * the "License"; You may not use this file except in compliance with the
  80:Drivers/STM32L4xx_HAL_Driver/Src/stm32l4xx_hal_exti.c ****   * License. You may obtain a copy of the License at:
  81:Drivers/STM32L4xx_HAL_Driver/Src/stm32l4xx_hal_exti.c ****   *                        opensource.org/licenses/BSD-3-Clause
  82:Drivers/STM32L4xx_HAL_Driver/Src/stm32l4xx_hal_exti.c ****   *
  83:Drivers/STM32L4xx_HAL_Driver/Src/stm32l4xx_hal_exti.c ****   ******************************************************************************
  84:Drivers/STM32L4xx_HAL_Driver/Src/stm32l4xx_hal_exti.c ****   */
  85:Drivers/STM32L4xx_HAL_Driver/Src/stm32l4xx_hal_exti.c **** 
  86:Drivers/STM32L4xx_HAL_Driver/Src/stm32l4xx_hal_exti.c **** /* Includes ------------------------------------------------------------------*/
  87:Drivers/STM32L4xx_HAL_Driver/Src/stm32l4xx_hal_exti.c **** #include "stm32l4xx_hal.h"
ARM GAS  /tmp/cc03sstA.s 			page 3


  88:Drivers/STM32L4xx_HAL_Driver/Src/stm32l4xx_hal_exti.c **** 
  89:Drivers/STM32L4xx_HAL_Driver/Src/stm32l4xx_hal_exti.c **** /** @addtogroup STM32L4xx_HAL_Driver
  90:Drivers/STM32L4xx_HAL_Driver/Src/stm32l4xx_hal_exti.c ****   * @{
  91:Drivers/STM32L4xx_HAL_Driver/Src/stm32l4xx_hal_exti.c ****   */
  92:Drivers/STM32L4xx_HAL_Driver/Src/stm32l4xx_hal_exti.c **** 
  93:Drivers/STM32L4xx_HAL_Driver/Src/stm32l4xx_hal_exti.c **** /** @addtogroup EXTI
  94:Drivers/STM32L4xx_HAL_Driver/Src/stm32l4xx_hal_exti.c ****   * @{
  95:Drivers/STM32L4xx_HAL_Driver/Src/stm32l4xx_hal_exti.c ****   */
  96:Drivers/STM32L4xx_HAL_Driver/Src/stm32l4xx_hal_exti.c **** /** MISRA C:2012 deviation rule has been granted for following rule:
  97:Drivers/STM32L4xx_HAL_Driver/Src/stm32l4xx_hal_exti.c ****   * Rule-18.1_b - Medium: Array `EXTICR' 1st subscript interval [0,7] may be out
  98:Drivers/STM32L4xx_HAL_Driver/Src/stm32l4xx_hal_exti.c ****   * of bounds [0,3] in following API :
  99:Drivers/STM32L4xx_HAL_Driver/Src/stm32l4xx_hal_exti.c ****   * HAL_EXTI_SetConfigLine
 100:Drivers/STM32L4xx_HAL_Driver/Src/stm32l4xx_hal_exti.c ****   * HAL_EXTI_GetConfigLine
 101:Drivers/STM32L4xx_HAL_Driver/Src/stm32l4xx_hal_exti.c ****   * HAL_EXTI_ClearConfigLine
 102:Drivers/STM32L4xx_HAL_Driver/Src/stm32l4xx_hal_exti.c ****   */
 103:Drivers/STM32L4xx_HAL_Driver/Src/stm32l4xx_hal_exti.c **** 
 104:Drivers/STM32L4xx_HAL_Driver/Src/stm32l4xx_hal_exti.c **** #ifdef HAL_EXTI_MODULE_ENABLED
 105:Drivers/STM32L4xx_HAL_Driver/Src/stm32l4xx_hal_exti.c **** 
 106:Drivers/STM32L4xx_HAL_Driver/Src/stm32l4xx_hal_exti.c **** /* Private typedef -----------------------------------------------------------*/
 107:Drivers/STM32L4xx_HAL_Driver/Src/stm32l4xx_hal_exti.c **** /* Private defines ------------------------------------------------------------*/
 108:Drivers/STM32L4xx_HAL_Driver/Src/stm32l4xx_hal_exti.c **** /** @defgroup EXTI_Private_Constants EXTI Private Constants
 109:Drivers/STM32L4xx_HAL_Driver/Src/stm32l4xx_hal_exti.c ****   * @{
 110:Drivers/STM32L4xx_HAL_Driver/Src/stm32l4xx_hal_exti.c ****   */
 111:Drivers/STM32L4xx_HAL_Driver/Src/stm32l4xx_hal_exti.c **** #define EXTI_MODE_OFFSET                    0x08u   /* 0x20: offset between MCU IMR/EMR registers *
 112:Drivers/STM32L4xx_HAL_Driver/Src/stm32l4xx_hal_exti.c **** #define EXTI_CONFIG_OFFSET                  0x08u   /* 0x20: offset between MCU Rising/Falling conf
 113:Drivers/STM32L4xx_HAL_Driver/Src/stm32l4xx_hal_exti.c **** /**
 114:Drivers/STM32L4xx_HAL_Driver/Src/stm32l4xx_hal_exti.c ****   * @}
 115:Drivers/STM32L4xx_HAL_Driver/Src/stm32l4xx_hal_exti.c ****   */
 116:Drivers/STM32L4xx_HAL_Driver/Src/stm32l4xx_hal_exti.c **** 
 117:Drivers/STM32L4xx_HAL_Driver/Src/stm32l4xx_hal_exti.c **** /* Private macros ------------------------------------------------------------*/
 118:Drivers/STM32L4xx_HAL_Driver/Src/stm32l4xx_hal_exti.c **** /* Private variables ---------------------------------------------------------*/
 119:Drivers/STM32L4xx_HAL_Driver/Src/stm32l4xx_hal_exti.c **** /* Private function prototypes -----------------------------------------------*/
 120:Drivers/STM32L4xx_HAL_Driver/Src/stm32l4xx_hal_exti.c **** /* Exported functions --------------------------------------------------------*/
 121:Drivers/STM32L4xx_HAL_Driver/Src/stm32l4xx_hal_exti.c **** 
 122:Drivers/STM32L4xx_HAL_Driver/Src/stm32l4xx_hal_exti.c **** /** @addtogroup EXTI_Exported_Functions
 123:Drivers/STM32L4xx_HAL_Driver/Src/stm32l4xx_hal_exti.c ****   * @{
 124:Drivers/STM32L4xx_HAL_Driver/Src/stm32l4xx_hal_exti.c ****   */
 125:Drivers/STM32L4xx_HAL_Driver/Src/stm32l4xx_hal_exti.c **** 
 126:Drivers/STM32L4xx_HAL_Driver/Src/stm32l4xx_hal_exti.c **** /** @addtogroup EXTI_Exported_Functions_Group1
 127:Drivers/STM32L4xx_HAL_Driver/Src/stm32l4xx_hal_exti.c ****  *  @brief    Configuration functions
 128:Drivers/STM32L4xx_HAL_Driver/Src/stm32l4xx_hal_exti.c ****  *
 129:Drivers/STM32L4xx_HAL_Driver/Src/stm32l4xx_hal_exti.c **** @verbatim
 130:Drivers/STM32L4xx_HAL_Driver/Src/stm32l4xx_hal_exti.c ****  ===============================================================================
 131:Drivers/STM32L4xx_HAL_Driver/Src/stm32l4xx_hal_exti.c ****               ##### Configuration functions #####
 132:Drivers/STM32L4xx_HAL_Driver/Src/stm32l4xx_hal_exti.c ****  ===============================================================================
 133:Drivers/STM32L4xx_HAL_Driver/Src/stm32l4xx_hal_exti.c **** 
 134:Drivers/STM32L4xx_HAL_Driver/Src/stm32l4xx_hal_exti.c **** @endverbatim
 135:Drivers/STM32L4xx_HAL_Driver/Src/stm32l4xx_hal_exti.c ****   * @{
 136:Drivers/STM32L4xx_HAL_Driver/Src/stm32l4xx_hal_exti.c ****   */
 137:Drivers/STM32L4xx_HAL_Driver/Src/stm32l4xx_hal_exti.c **** 
 138:Drivers/STM32L4xx_HAL_Driver/Src/stm32l4xx_hal_exti.c **** /**
 139:Drivers/STM32L4xx_HAL_Driver/Src/stm32l4xx_hal_exti.c ****   * @brief  Set configuration of a dedicated Exti line.
 140:Drivers/STM32L4xx_HAL_Driver/Src/stm32l4xx_hal_exti.c ****   * @param  hexti Exti handle.
 141:Drivers/STM32L4xx_HAL_Driver/Src/stm32l4xx_hal_exti.c ****   * @param  pExtiConfig Pointer on EXTI configuration to be set.
 142:Drivers/STM32L4xx_HAL_Driver/Src/stm32l4xx_hal_exti.c ****   * @retval HAL Status.
 143:Drivers/STM32L4xx_HAL_Driver/Src/stm32l4xx_hal_exti.c ****   */
 144:Drivers/STM32L4xx_HAL_Driver/Src/stm32l4xx_hal_exti.c **** HAL_StatusTypeDef HAL_EXTI_SetConfigLine(EXTI_HandleTypeDef *hexti, EXTI_ConfigTypeDef *pExtiConfig
ARM GAS  /tmp/cc03sstA.s 			page 4


 145:Drivers/STM32L4xx_HAL_Driver/Src/stm32l4xx_hal_exti.c **** {
  29              		.loc 1 145 0
  30              		.cfi_startproc
  31              		@ args = 0, pretend = 0, frame = 0
  32              		@ frame_needed = 0, uses_anonymous_args = 0
  33              		@ link register save eliminated.
  34              	.LVL0:
 146:Drivers/STM32L4xx_HAL_Driver/Src/stm32l4xx_hal_exti.c ****   __IO uint32_t *regaddr;
 147:Drivers/STM32L4xx_HAL_Driver/Src/stm32l4xx_hal_exti.c ****   uint32_t regval;
 148:Drivers/STM32L4xx_HAL_Driver/Src/stm32l4xx_hal_exti.c ****   uint32_t linepos;
 149:Drivers/STM32L4xx_HAL_Driver/Src/stm32l4xx_hal_exti.c ****   uint32_t maskline;
 150:Drivers/STM32L4xx_HAL_Driver/Src/stm32l4xx_hal_exti.c ****   uint32_t offset;
 151:Drivers/STM32L4xx_HAL_Driver/Src/stm32l4xx_hal_exti.c **** 
 152:Drivers/STM32L4xx_HAL_Driver/Src/stm32l4xx_hal_exti.c ****   /* Check null pointer */
 153:Drivers/STM32L4xx_HAL_Driver/Src/stm32l4xx_hal_exti.c ****   if ((hexti == NULL) || (pExtiConfig == NULL))
  35              		.loc 1 153 0
  36 0000 0028     		cmp	r0, #0
  37 0002 53D0     		beq	.L14
  38              		.loc 1 153 0 is_stmt 0 discriminator 1
  39 0004 0029     		cmp	r1, #0
  40 0006 51D0     		beq	.L14
 145:Drivers/STM32L4xx_HAL_Driver/Src/stm32l4xx_hal_exti.c ****   __IO uint32_t *regaddr;
  41              		.loc 1 145 0 is_stmt 1
  42 0008 F0B4     		push	{r4, r5, r6, r7}
  43              	.LCFI0:
  44              		.cfi_def_cfa_offset 16
  45              		.cfi_offset 4, -16
  46              		.cfi_offset 5, -12
  47              		.cfi_offset 6, -8
  48              		.cfi_offset 7, -4
 154:Drivers/STM32L4xx_HAL_Driver/Src/stm32l4xx_hal_exti.c ****   {
 155:Drivers/STM32L4xx_HAL_Driver/Src/stm32l4xx_hal_exti.c ****     return HAL_ERROR;
 156:Drivers/STM32L4xx_HAL_Driver/Src/stm32l4xx_hal_exti.c ****   }
 157:Drivers/STM32L4xx_HAL_Driver/Src/stm32l4xx_hal_exti.c **** 
 158:Drivers/STM32L4xx_HAL_Driver/Src/stm32l4xx_hal_exti.c ****   /* Check parameters */
 159:Drivers/STM32L4xx_HAL_Driver/Src/stm32l4xx_hal_exti.c ****   assert_param(IS_EXTI_LINE(pExtiConfig->Line));
 160:Drivers/STM32L4xx_HAL_Driver/Src/stm32l4xx_hal_exti.c ****   assert_param(IS_EXTI_MODE(pExtiConfig->Mode));
 161:Drivers/STM32L4xx_HAL_Driver/Src/stm32l4xx_hal_exti.c **** 
 162:Drivers/STM32L4xx_HAL_Driver/Src/stm32l4xx_hal_exti.c ****   /* Assign line number to handle */
 163:Drivers/STM32L4xx_HAL_Driver/Src/stm32l4xx_hal_exti.c ****   hexti->Line = pExtiConfig->Line;
  49              		.loc 1 163 0
  50 000a 0C68     		ldr	r4, [r1]
  51 000c 0460     		str	r4, [r0]
 164:Drivers/STM32L4xx_HAL_Driver/Src/stm32l4xx_hal_exti.c **** 
 165:Drivers/STM32L4xx_HAL_Driver/Src/stm32l4xx_hal_exti.c ****   /* Compute line register offset and line mask */
 166:Drivers/STM32L4xx_HAL_Driver/Src/stm32l4xx_hal_exti.c ****   offset = ((pExtiConfig->Line & EXTI_REG_MASK) >> EXTI_REG_SHIFT);
 167:Drivers/STM32L4xx_HAL_Driver/Src/stm32l4xx_hal_exti.c ****   linepos = (pExtiConfig->Line & EXTI_PIN_MASK);
 168:Drivers/STM32L4xx_HAL_Driver/Src/stm32l4xx_hal_exti.c ****   maskline = (1uL << linepos);
  52              		.loc 1 168 0
  53 000e 0122     		movs	r2, #1
 167:Drivers/STM32L4xx_HAL_Driver/Src/stm32l4xx_hal_exti.c ****   maskline = (1uL << linepos);
  54              		.loc 1 167 0
  55 0010 04F01F00 		and	r0, r4, #31
  56              	.LVL1:
 166:Drivers/STM32L4xx_HAL_Driver/Src/stm32l4xx_hal_exti.c ****   linepos = (pExtiConfig->Line & EXTI_PIN_MASK);
  57              		.loc 1 166 0
  58 0014 C4F30043 		ubfx	r3, r4, #16, #1
ARM GAS  /tmp/cc03sstA.s 			page 5


  59              	.LVL2:
 169:Drivers/STM32L4xx_HAL_Driver/Src/stm32l4xx_hal_exti.c **** 
 170:Drivers/STM32L4xx_HAL_Driver/Src/stm32l4xx_hal_exti.c ****   /* Configure triggers for configurable lines */
 171:Drivers/STM32L4xx_HAL_Driver/Src/stm32l4xx_hal_exti.c ****   if ((pExtiConfig->Line & EXTI_CONFIG) != 0x00u)
  60              		.loc 1 171 0
  61 0018 A501     		lsls	r5, r4, #6
 168:Drivers/STM32L4xx_HAL_Driver/Src/stm32l4xx_hal_exti.c **** 
  62              		.loc 1 168 0
  63 001a 02FA00F2 		lsl	r2, r2, r0
  64              	.LVL3:
 172:Drivers/STM32L4xx_HAL_Driver/Src/stm32l4xx_hal_exti.c ****   {
 173:Drivers/STM32L4xx_HAL_Driver/Src/stm32l4xx_hal_exti.c ****     assert_param(IS_EXTI_TRIGGER(pExtiConfig->Trigger));
 174:Drivers/STM32L4xx_HAL_Driver/Src/stm32l4xx_hal_exti.c **** 
 175:Drivers/STM32L4xx_HAL_Driver/Src/stm32l4xx_hal_exti.c ****     /* Configure rising trigger */
 176:Drivers/STM32L4xx_HAL_Driver/Src/stm32l4xx_hal_exti.c ****     regaddr = (&EXTI->RTSR1 + (EXTI_CONFIG_OFFSET * offset));
  65              		.loc 1 176 0
  66 001e 4FEA4313 		lsl	r3, r3, #5
  67              	.LVL4:
 171:Drivers/STM32L4xx_HAL_Driver/Src/stm32l4xx_hal_exti.c ****   {
  68              		.loc 1 171 0
  69 0022 17D5     		bpl	.L4
  70              		.loc 1 176 0
  71 0024 224D     		ldr	r5, .L21
 177:Drivers/STM32L4xx_HAL_Driver/Src/stm32l4xx_hal_exti.c ****     regval = *regaddr;
 178:Drivers/STM32L4xx_HAL_Driver/Src/stm32l4xx_hal_exti.c **** 
 179:Drivers/STM32L4xx_HAL_Driver/Src/stm32l4xx_hal_exti.c ****     /* Mask or set line */
 180:Drivers/STM32L4xx_HAL_Driver/Src/stm32l4xx_hal_exti.c ****     if ((pExtiConfig->Trigger & EXTI_TRIGGER_RISING) != 0x00u)
  72              		.loc 1 180 0
  73 0026 8F68     		ldr	r7, [r1, #8]
 177:Drivers/STM32L4xx_HAL_Driver/Src/stm32l4xx_hal_exti.c ****     regval = *regaddr;
  74              		.loc 1 177 0
  75 0028 5E59     		ldr	r6, [r3, r5]
  76              		.loc 1 180 0
  77 002a FF07     		lsls	r7, r7, #31
 176:Drivers/STM32L4xx_HAL_Driver/Src/stm32l4xx_hal_exti.c ****     regval = *regaddr;
  78              		.loc 1 176 0
  79 002c 1D44     		add	r5, r5, r3
  80              	.LVL5:
 181:Drivers/STM32L4xx_HAL_Driver/Src/stm32l4xx_hal_exti.c ****     {
 182:Drivers/STM32L4xx_HAL_Driver/Src/stm32l4xx_hal_exti.c ****       regval |= maskline;
  81              		.loc 1 182 0
  82 002e 4CBF     		ite	mi
  83 0030 1643     		orrmi	r6, r6, r2
  84              	.LVL6:
 183:Drivers/STM32L4xx_HAL_Driver/Src/stm32l4xx_hal_exti.c ****     }
 184:Drivers/STM32L4xx_HAL_Driver/Src/stm32l4xx_hal_exti.c ****     else
 185:Drivers/STM32L4xx_HAL_Driver/Src/stm32l4xx_hal_exti.c ****     {
 186:Drivers/STM32L4xx_HAL_Driver/Src/stm32l4xx_hal_exti.c ****       regval &= ~maskline;
  85              		.loc 1 186 0
  86 0032 9643     		bicpl	r6, r6, r2
  87              	.LVL7:
 187:Drivers/STM32L4xx_HAL_Driver/Src/stm32l4xx_hal_exti.c ****     }
 188:Drivers/STM32L4xx_HAL_Driver/Src/stm32l4xx_hal_exti.c **** 
 189:Drivers/STM32L4xx_HAL_Driver/Src/stm32l4xx_hal_exti.c ****     /* Store rising trigger mode */
 190:Drivers/STM32L4xx_HAL_Driver/Src/stm32l4xx_hal_exti.c ****     *regaddr = regval;
  88              		.loc 1 190 0
  89 0034 2E60     		str	r6, [r5]
ARM GAS  /tmp/cc03sstA.s 			page 6


 191:Drivers/STM32L4xx_HAL_Driver/Src/stm32l4xx_hal_exti.c **** 
 192:Drivers/STM32L4xx_HAL_Driver/Src/stm32l4xx_hal_exti.c ****     /* Configure falling trigger */
 193:Drivers/STM32L4xx_HAL_Driver/Src/stm32l4xx_hal_exti.c ****     regaddr = (&EXTI->FTSR1 + (EXTI_CONFIG_OFFSET * offset));
  90              		.loc 1 193 0
  91 0036 1F4D     		ldr	r5, .L21+4
  92              	.LVL8:
 194:Drivers/STM32L4xx_HAL_Driver/Src/stm32l4xx_hal_exti.c ****     regval = *regaddr;
 195:Drivers/STM32L4xx_HAL_Driver/Src/stm32l4xx_hal_exti.c **** 
 196:Drivers/STM32L4xx_HAL_Driver/Src/stm32l4xx_hal_exti.c ****     /* Mask or set line */
 197:Drivers/STM32L4xx_HAL_Driver/Src/stm32l4xx_hal_exti.c ****     if ((pExtiConfig->Trigger & EXTI_TRIGGER_FALLING) != 0x00u)
  93              		.loc 1 197 0
  94 0038 8F68     		ldr	r7, [r1, #8]
 194:Drivers/STM32L4xx_HAL_Driver/Src/stm32l4xx_hal_exti.c ****     regval = *regaddr;
  95              		.loc 1 194 0
  96 003a 5E59     		ldr	r6, [r3, r5]
  97              	.LVL9:
  98              		.loc 1 197 0
  99 003c BF07     		lsls	r7, r7, #30
 193:Drivers/STM32L4xx_HAL_Driver/Src/stm32l4xx_hal_exti.c ****     regval = *regaddr;
 100              		.loc 1 193 0
 101 003e 1D44     		add	r5, r5, r3
 102              	.LVL10:
 198:Drivers/STM32L4xx_HAL_Driver/Src/stm32l4xx_hal_exti.c ****     {
 199:Drivers/STM32L4xx_HAL_Driver/Src/stm32l4xx_hal_exti.c ****       regval |= maskline;
 103              		.loc 1 199 0
 104 0040 4CBF     		ite	mi
 105 0042 1643     		orrmi	r6, r6, r2
 106              	.LVL11:
 200:Drivers/STM32L4xx_HAL_Driver/Src/stm32l4xx_hal_exti.c ****     }
 201:Drivers/STM32L4xx_HAL_Driver/Src/stm32l4xx_hal_exti.c ****     else
 202:Drivers/STM32L4xx_HAL_Driver/Src/stm32l4xx_hal_exti.c ****     {
 203:Drivers/STM32L4xx_HAL_Driver/Src/stm32l4xx_hal_exti.c ****       regval &= ~maskline;
 107              		.loc 1 203 0
 108 0044 9643     		bicpl	r6, r6, r2
 109              	.LVL12:
 204:Drivers/STM32L4xx_HAL_Driver/Src/stm32l4xx_hal_exti.c ****     }
 205:Drivers/STM32L4xx_HAL_Driver/Src/stm32l4xx_hal_exti.c **** 
 206:Drivers/STM32L4xx_HAL_Driver/Src/stm32l4xx_hal_exti.c ****     /* Store falling trigger mode */
 207:Drivers/STM32L4xx_HAL_Driver/Src/stm32l4xx_hal_exti.c ****     *regaddr = regval;
 110              		.loc 1 207 0
 111 0046 2E60     		str	r6, [r5]
 208:Drivers/STM32L4xx_HAL_Driver/Src/stm32l4xx_hal_exti.c **** 
 209:Drivers/STM32L4xx_HAL_Driver/Src/stm32l4xx_hal_exti.c ****     /* Configure gpio port selection in case of gpio exti line */
 210:Drivers/STM32L4xx_HAL_Driver/Src/stm32l4xx_hal_exti.c ****     if ((pExtiConfig->Line & EXTI_GPIO) == EXTI_GPIO)
 112              		.loc 1 210 0
 113 0048 0D68     		ldr	r5, [r1]
 114              	.LVL13:
 115 004a 05F0C065 		and	r5, r5, #100663296
 116 004e B5F1C06F 		cmp	r5, #100663296
 117 0052 17D0     		beq	.L20
 118              	.LVL14:
 119              	.L4:
 211:Drivers/STM32L4xx_HAL_Driver/Src/stm32l4xx_hal_exti.c ****     {
 212:Drivers/STM32L4xx_HAL_Driver/Src/stm32l4xx_hal_exti.c ****       assert_param(IS_EXTI_GPIO_PORT(pExtiConfig->GPIOSel));
 213:Drivers/STM32L4xx_HAL_Driver/Src/stm32l4xx_hal_exti.c ****       assert_param(IS_EXTI_GPIO_PIN(linepos));
 214:Drivers/STM32L4xx_HAL_Driver/Src/stm32l4xx_hal_exti.c **** 
 215:Drivers/STM32L4xx_HAL_Driver/Src/stm32l4xx_hal_exti.c ****       regval = SYSCFG->EXTICR[linepos >> 2u];
ARM GAS  /tmp/cc03sstA.s 			page 7


 216:Drivers/STM32L4xx_HAL_Driver/Src/stm32l4xx_hal_exti.c ****       regval &= ~(SYSCFG_EXTICR1_EXTI0 << (SYSCFG_EXTICR1_EXTI1_Pos * (linepos & 0x03u)));
 217:Drivers/STM32L4xx_HAL_Driver/Src/stm32l4xx_hal_exti.c ****       regval |= (pExtiConfig->GPIOSel << (SYSCFG_EXTICR1_EXTI1_Pos * (linepos & 0x03u)));
 218:Drivers/STM32L4xx_HAL_Driver/Src/stm32l4xx_hal_exti.c ****       SYSCFG->EXTICR[linepos >> 2u] = regval;
 219:Drivers/STM32L4xx_HAL_Driver/Src/stm32l4xx_hal_exti.c ****     }
 220:Drivers/STM32L4xx_HAL_Driver/Src/stm32l4xx_hal_exti.c ****   }
 221:Drivers/STM32L4xx_HAL_Driver/Src/stm32l4xx_hal_exti.c **** 
 222:Drivers/STM32L4xx_HAL_Driver/Src/stm32l4xx_hal_exti.c ****   /* Configure interrupt mode : read current mode */
 223:Drivers/STM32L4xx_HAL_Driver/Src/stm32l4xx_hal_exti.c ****   regaddr = (&EXTI->IMR1 + (EXTI_MODE_OFFSET * offset));
 120              		.loc 1 223 0
 121 0054 03F18040 		add	r0, r3, #1073741824
 122 0058 00F58230 		add	r0, r0, #66560
 123              	.LVL15:
 224:Drivers/STM32L4xx_HAL_Driver/Src/stm32l4xx_hal_exti.c ****   regval = *regaddr;
 225:Drivers/STM32L4xx_HAL_Driver/Src/stm32l4xx_hal_exti.c **** 
 226:Drivers/STM32L4xx_HAL_Driver/Src/stm32l4xx_hal_exti.c ****   /* Mask or set line */
 227:Drivers/STM32L4xx_HAL_Driver/Src/stm32l4xx_hal_exti.c ****   if ((pExtiConfig->Mode & EXTI_MODE_INTERRUPT) != 0x00u)
 124              		.loc 1 227 0
 125 005c 4D68     		ldr	r5, [r1, #4]
 224:Drivers/STM32L4xx_HAL_Driver/Src/stm32l4xx_hal_exti.c ****   regval = *regaddr;
 126              		.loc 1 224 0
 127 005e 0468     		ldr	r4, [r0]
 128              	.LVL16:
 129              		.loc 1 227 0
 130 0060 ED07     		lsls	r5, r5, #31
 228:Drivers/STM32L4xx_HAL_Driver/Src/stm32l4xx_hal_exti.c ****   {
 229:Drivers/STM32L4xx_HAL_Driver/Src/stm32l4xx_hal_exti.c ****     regval |= maskline;
 131              		.loc 1 229 0
 132 0062 4CBF     		ite	mi
 133 0064 1443     		orrmi	r4, r4, r2
 134              	.LVL17:
 230:Drivers/STM32L4xx_HAL_Driver/Src/stm32l4xx_hal_exti.c ****   }
 231:Drivers/STM32L4xx_HAL_Driver/Src/stm32l4xx_hal_exti.c ****   else
 232:Drivers/STM32L4xx_HAL_Driver/Src/stm32l4xx_hal_exti.c ****   {
 233:Drivers/STM32L4xx_HAL_Driver/Src/stm32l4xx_hal_exti.c ****     regval &= ~maskline;
 135              		.loc 1 233 0
 136 0066 9443     		bicpl	r4, r4, r2
 137              	.LVL18:
 234:Drivers/STM32L4xx_HAL_Driver/Src/stm32l4xx_hal_exti.c ****   }
 235:Drivers/STM32L4xx_HAL_Driver/Src/stm32l4xx_hal_exti.c **** 
 236:Drivers/STM32L4xx_HAL_Driver/Src/stm32l4xx_hal_exti.c ****   /* Store interrupt mode */
 237:Drivers/STM32L4xx_HAL_Driver/Src/stm32l4xx_hal_exti.c ****   *regaddr = regval;
 138              		.loc 1 237 0
 139 0068 0460     		str	r4, [r0]
 238:Drivers/STM32L4xx_HAL_Driver/Src/stm32l4xx_hal_exti.c **** 
 239:Drivers/STM32L4xx_HAL_Driver/Src/stm32l4xx_hal_exti.c ****   /* The event mode cannot be configured if the line does not support it */
 240:Drivers/STM32L4xx_HAL_Driver/Src/stm32l4xx_hal_exti.c ****   assert_param(((pExtiConfig->Line & EXTI_EVENT) == EXTI_EVENT) || ((pExtiConfig->Mode & EXTI_MODE_
 241:Drivers/STM32L4xx_HAL_Driver/Src/stm32l4xx_hal_exti.c **** 
 242:Drivers/STM32L4xx_HAL_Driver/Src/stm32l4xx_hal_exti.c ****   /* Configure event mode : read current mode */
 243:Drivers/STM32L4xx_HAL_Driver/Src/stm32l4xx_hal_exti.c ****   regaddr = (&EXTI->EMR1 + (EXTI_MODE_OFFSET * offset));
 140              		.loc 1 243 0
 141 006a 1348     		ldr	r0, .L21+8
 142              	.LVL19:
 244:Drivers/STM32L4xx_HAL_Driver/Src/stm32l4xx_hal_exti.c ****   regval = *regaddr;
 245:Drivers/STM32L4xx_HAL_Driver/Src/stm32l4xx_hal_exti.c **** 
 246:Drivers/STM32L4xx_HAL_Driver/Src/stm32l4xx_hal_exti.c ****   /* Mask or set line */
 247:Drivers/STM32L4xx_HAL_Driver/Src/stm32l4xx_hal_exti.c ****   if ((pExtiConfig->Mode & EXTI_MODE_EVENT) != 0x00u)
 143              		.loc 1 247 0
ARM GAS  /tmp/cc03sstA.s 			page 8


 144 006c 4C68     		ldr	r4, [r1, #4]
 145              	.LVL20:
 244:Drivers/STM32L4xx_HAL_Driver/Src/stm32l4xx_hal_exti.c ****   regval = *regaddr;
 146              		.loc 1 244 0
 147 006e 1958     		ldr	r1, [r3, r0]
 148              	.LVL21:
 243:Drivers/STM32L4xx_HAL_Driver/Src/stm32l4xx_hal_exti.c ****   regval = *regaddr;
 149              		.loc 1 243 0
 150 0070 0344     		add	r3, r3, r0
 151              	.LVL22:
 152              		.loc 1 247 0
 153 0072 A007     		lsls	r0, r4, #30
 248:Drivers/STM32L4xx_HAL_Driver/Src/stm32l4xx_hal_exti.c ****   {
 249:Drivers/STM32L4xx_HAL_Driver/Src/stm32l4xx_hal_exti.c ****     regval |= maskline;
 154              		.loc 1 249 0
 155 0074 4CBF     		ite	mi
 156 0076 0A43     		orrmi	r2, r2, r1
 157              	.LVL23:
 250:Drivers/STM32L4xx_HAL_Driver/Src/stm32l4xx_hal_exti.c ****   }
 251:Drivers/STM32L4xx_HAL_Driver/Src/stm32l4xx_hal_exti.c ****   else
 252:Drivers/STM32L4xx_HAL_Driver/Src/stm32l4xx_hal_exti.c ****   {
 253:Drivers/STM32L4xx_HAL_Driver/Src/stm32l4xx_hal_exti.c ****     regval &= ~maskline;
 158              		.loc 1 253 0
 159 0078 21EA0202 		bicpl	r2, r1, r2
 160              	.LVL24:
 254:Drivers/STM32L4xx_HAL_Driver/Src/stm32l4xx_hal_exti.c ****   }
 255:Drivers/STM32L4xx_HAL_Driver/Src/stm32l4xx_hal_exti.c **** 
 256:Drivers/STM32L4xx_HAL_Driver/Src/stm32l4xx_hal_exti.c ****   /* Store event mode */
 257:Drivers/STM32L4xx_HAL_Driver/Src/stm32l4xx_hal_exti.c ****   *regaddr = regval;
 258:Drivers/STM32L4xx_HAL_Driver/Src/stm32l4xx_hal_exti.c **** 
 259:Drivers/STM32L4xx_HAL_Driver/Src/stm32l4xx_hal_exti.c ****   return HAL_OK;
 161              		.loc 1 259 0
 162 007c 0020     		movs	r0, #0
 257:Drivers/STM32L4xx_HAL_Driver/Src/stm32l4xx_hal_exti.c **** 
 163              		.loc 1 257 0
 164 007e 1A60     		str	r2, [r3]
 260:Drivers/STM32L4xx_HAL_Driver/Src/stm32l4xx_hal_exti.c **** }
 165              		.loc 1 260 0
 166 0080 F0BC     		pop	{r4, r5, r6, r7}
 167              	.LCFI1:
 168              		.cfi_remember_state
 169              		.cfi_restore 7
 170              		.cfi_restore 6
 171              		.cfi_restore 5
 172              		.cfi_restore 4
 173              		.cfi_def_cfa_offset 0
 174 0082 7047     		bx	lr
 175              	.LVL25:
 176              	.L20:
 177              	.LCFI2:
 178              		.cfi_restore_state
 179 0084 00F01C00 		and	r0, r0, #28
 180              	.LVL26:
 181 0088 00F18040 		add	r0, r0, #1073741824
 182 008c 00F58030 		add	r0, r0, #65536
 216:Drivers/STM32L4xx_HAL_Driver/Src/stm32l4xx_hal_exti.c ****       regval |= (pExtiConfig->GPIOSel << (SYSCFG_EXTICR1_EXTI1_Pos * (linepos & 0x03u)));
 183              		.loc 1 216 0
ARM GAS  /tmp/cc03sstA.s 			page 9


 184 0090 04F00304 		and	r4, r4, #3
 185              	.LVL27:
 186 0094 A400     		lsls	r4, r4, #2
 215:Drivers/STM32L4xx_HAL_Driver/Src/stm32l4xx_hal_exti.c ****       regval &= ~(SYSCFG_EXTICR1_EXTI0 << (SYSCFG_EXTICR1_EXTI1_Pos * (linepos & 0x03u)));
 187              		.loc 1 215 0
 188 0096 8668     		ldr	r6, [r0, #8]
 189              	.LVL28:
 217:Drivers/STM32L4xx_HAL_Driver/Src/stm32l4xx_hal_exti.c ****       SYSCFG->EXTICR[linepos >> 2u] = regval;
 190              		.loc 1 217 0
 191 0098 CD68     		ldr	r5, [r1, #12]
 216:Drivers/STM32L4xx_HAL_Driver/Src/stm32l4xx_hal_exti.c ****       regval |= (pExtiConfig->GPIOSel << (SYSCFG_EXTICR1_EXTI1_Pos * (linepos & 0x03u)));
 192              		.loc 1 216 0
 193 009a 0727     		movs	r7, #7
 194 009c A740     		lsls	r7, r7, r4
 195 009e 26EA0706 		bic	r6, r6, r7
 196              	.LVL29:
 217:Drivers/STM32L4xx_HAL_Driver/Src/stm32l4xx_hal_exti.c ****       SYSCFG->EXTICR[linepos >> 2u] = regval;
 197              		.loc 1 217 0
 198 00a2 05FA04F4 		lsl	r4, r5, r4
 199 00a6 3443     		orrs	r4, r4, r6
 200              	.LVL30:
 218:Drivers/STM32L4xx_HAL_Driver/Src/stm32l4xx_hal_exti.c ****     }
 201              		.loc 1 218 0
 202 00a8 8460     		str	r4, [r0, #8]
 203 00aa D3E7     		b	.L4
 204              	.LVL31:
 205              	.L14:
 206              	.LCFI3:
 207              		.cfi_def_cfa_offset 0
 208              		.cfi_restore 4
 209              		.cfi_restore 5
 210              		.cfi_restore 6
 211              		.cfi_restore 7
 155:Drivers/STM32L4xx_HAL_Driver/Src/stm32l4xx_hal_exti.c ****   }
 212              		.loc 1 155 0
 213 00ac 0120     		movs	r0, #1
 214              	.LVL32:
 215 00ae 7047     		bx	lr
 216              	.L22:
 217              		.align	2
 218              	.L21:
 219 00b0 08040140 		.word	1073808392
 220 00b4 0C040140 		.word	1073808396
 221 00b8 04040140 		.word	1073808388
 222              		.cfi_endproc
 223              	.LFE130:
 225              		.section	.text.HAL_EXTI_GetConfigLine,"ax",%progbits
 226              		.align	1
 227              		.p2align 2,,3
 228              		.global	HAL_EXTI_GetConfigLine
 229              		.syntax unified
 230              		.thumb
 231              		.thumb_func
 232              		.fpu fpv4-sp-d16
 234              	HAL_EXTI_GetConfigLine:
 235              	.LFB131:
 261:Drivers/STM32L4xx_HAL_Driver/Src/stm32l4xx_hal_exti.c **** 
ARM GAS  /tmp/cc03sstA.s 			page 10


 262:Drivers/STM32L4xx_HAL_Driver/Src/stm32l4xx_hal_exti.c **** 
 263:Drivers/STM32L4xx_HAL_Driver/Src/stm32l4xx_hal_exti.c **** /**
 264:Drivers/STM32L4xx_HAL_Driver/Src/stm32l4xx_hal_exti.c ****   * @brief  Get configuration of a dedicated Exti line.
 265:Drivers/STM32L4xx_HAL_Driver/Src/stm32l4xx_hal_exti.c ****   * @param  hexti Exti handle.
 266:Drivers/STM32L4xx_HAL_Driver/Src/stm32l4xx_hal_exti.c ****   * @param  pExtiConfig Pointer on structure to store Exti configuration.
 267:Drivers/STM32L4xx_HAL_Driver/Src/stm32l4xx_hal_exti.c ****   * @retval HAL Status.
 268:Drivers/STM32L4xx_HAL_Driver/Src/stm32l4xx_hal_exti.c ****   */
 269:Drivers/STM32L4xx_HAL_Driver/Src/stm32l4xx_hal_exti.c **** HAL_StatusTypeDef HAL_EXTI_GetConfigLine(EXTI_HandleTypeDef *hexti, EXTI_ConfigTypeDef *pExtiConfig
 270:Drivers/STM32L4xx_HAL_Driver/Src/stm32l4xx_hal_exti.c **** {
 236              		.loc 1 270 0
 237              		.cfi_startproc
 238              		@ args = 0, pretend = 0, frame = 0
 239              		@ frame_needed = 0, uses_anonymous_args = 0
 240              		@ link register save eliminated.
 241              	.LVL33:
 271:Drivers/STM32L4xx_HAL_Driver/Src/stm32l4xx_hal_exti.c ****   __IO uint32_t *regaddr;
 272:Drivers/STM32L4xx_HAL_Driver/Src/stm32l4xx_hal_exti.c ****   uint32_t regval;
 273:Drivers/STM32L4xx_HAL_Driver/Src/stm32l4xx_hal_exti.c ****   uint32_t linepos;
 274:Drivers/STM32L4xx_HAL_Driver/Src/stm32l4xx_hal_exti.c ****   uint32_t maskline;
 275:Drivers/STM32L4xx_HAL_Driver/Src/stm32l4xx_hal_exti.c ****   uint32_t offset;
 276:Drivers/STM32L4xx_HAL_Driver/Src/stm32l4xx_hal_exti.c **** 
 277:Drivers/STM32L4xx_HAL_Driver/Src/stm32l4xx_hal_exti.c ****   /* Check null pointer */
 278:Drivers/STM32L4xx_HAL_Driver/Src/stm32l4xx_hal_exti.c ****   if ((hexti == NULL) || (pExtiConfig == NULL))
 242              		.loc 1 278 0
 243 0000 0028     		cmp	r0, #0
 244 0002 3BD0     		beq	.L30
 245              		.loc 1 278 0 is_stmt 0 discriminator 1
 246 0004 0029     		cmp	r1, #0
 247 0006 39D0     		beq	.L30
 279:Drivers/STM32L4xx_HAL_Driver/Src/stm32l4xx_hal_exti.c ****   {
 280:Drivers/STM32L4xx_HAL_Driver/Src/stm32l4xx_hal_exti.c ****     return HAL_ERROR;
 281:Drivers/STM32L4xx_HAL_Driver/Src/stm32l4xx_hal_exti.c ****   }
 282:Drivers/STM32L4xx_HAL_Driver/Src/stm32l4xx_hal_exti.c **** 
 283:Drivers/STM32L4xx_HAL_Driver/Src/stm32l4xx_hal_exti.c ****   /* Check the parameter */
 284:Drivers/STM32L4xx_HAL_Driver/Src/stm32l4xx_hal_exti.c ****   assert_param(IS_EXTI_LINE(hexti->Line));
 285:Drivers/STM32L4xx_HAL_Driver/Src/stm32l4xx_hal_exti.c **** 
 286:Drivers/STM32L4xx_HAL_Driver/Src/stm32l4xx_hal_exti.c ****   /* Store handle line number to configuration structure */
 287:Drivers/STM32L4xx_HAL_Driver/Src/stm32l4xx_hal_exti.c ****   pExtiConfig->Line = hexti->Line;
 248              		.loc 1 287 0 is_stmt 1
 249 0008 0368     		ldr	r3, [r0]
 250 000a 0B60     		str	r3, [r1]
 251              	.LVL34:
 270:Drivers/STM32L4xx_HAL_Driver/Src/stm32l4xx_hal_exti.c ****   __IO uint32_t *regaddr;
 252              		.loc 1 270 0
 253 000c 70B4     		push	{r4, r5, r6}
 254              	.LCFI4:
 255              		.cfi_def_cfa_offset 12
 256              		.cfi_offset 4, -12
 257              		.cfi_offset 5, -8
 258              		.cfi_offset 6, -4
 288:Drivers/STM32L4xx_HAL_Driver/Src/stm32l4xx_hal_exti.c **** 
 289:Drivers/STM32L4xx_HAL_Driver/Src/stm32l4xx_hal_exti.c ****   /* Compute line register offset and line mask */
 290:Drivers/STM32L4xx_HAL_Driver/Src/stm32l4xx_hal_exti.c ****   offset = ((pExtiConfig->Line & EXTI_REG_MASK) >> EXTI_REG_SHIFT);
 259              		.loc 1 290 0
 260 000e C3F30045 		ubfx	r5, r3, #16, #1
 291:Drivers/STM32L4xx_HAL_Driver/Src/stm32l4xx_hal_exti.c ****   linepos = (pExtiConfig->Line & EXTI_PIN_MASK);
 292:Drivers/STM32L4xx_HAL_Driver/Src/stm32l4xx_hal_exti.c ****   maskline = (1uL << linepos);
ARM GAS  /tmp/cc03sstA.s 			page 11


 293:Drivers/STM32L4xx_HAL_Driver/Src/stm32l4xx_hal_exti.c **** 
 294:Drivers/STM32L4xx_HAL_Driver/Src/stm32l4xx_hal_exti.c ****   /* 1] Get core mode : interrupt */
 295:Drivers/STM32L4xx_HAL_Driver/Src/stm32l4xx_hal_exti.c ****   regaddr = (&EXTI->IMR1 + (EXTI_MODE_OFFSET * offset));
 261              		.loc 1 295 0
 262 0012 6D01     		lsls	r5, r5, #5
 263 0014 05F18042 		add	r2, r5, #1073741824
 264 0018 02F58232 		add	r2, r2, #66560
 291:Drivers/STM32L4xx_HAL_Driver/Src/stm32l4xx_hal_exti.c ****   linepos = (pExtiConfig->Line & EXTI_PIN_MASK);
 265              		.loc 1 291 0
 266 001c 03F01F06 		and	r6, r3, #31
 267              	.LVL35:
 296:Drivers/STM32L4xx_HAL_Driver/Src/stm32l4xx_hal_exti.c ****   regval = *regaddr;
 268              		.loc 1 296 0
 269 0020 1068     		ldr	r0, [r2]
 270              	.LVL36:
 297:Drivers/STM32L4xx_HAL_Driver/Src/stm32l4xx_hal_exti.c **** 
 298:Drivers/STM32L4xx_HAL_Driver/Src/stm32l4xx_hal_exti.c ****   /* Check if selected line is enable */
 299:Drivers/STM32L4xx_HAL_Driver/Src/stm32l4xx_hal_exti.c ****   if ((regval & maskline) != 0x00u)
 300:Drivers/STM32L4xx_HAL_Driver/Src/stm32l4xx_hal_exti.c ****   {
 301:Drivers/STM32L4xx_HAL_Driver/Src/stm32l4xx_hal_exti.c ****     pExtiConfig->Mode = EXTI_MODE_INTERRUPT;
 302:Drivers/STM32L4xx_HAL_Driver/Src/stm32l4xx_hal_exti.c ****   }
 303:Drivers/STM32L4xx_HAL_Driver/Src/stm32l4xx_hal_exti.c ****   else
 304:Drivers/STM32L4xx_HAL_Driver/Src/stm32l4xx_hal_exti.c ****   {
 305:Drivers/STM32L4xx_HAL_Driver/Src/stm32l4xx_hal_exti.c ****     pExtiConfig->Mode = EXTI_MODE_NONE;
 306:Drivers/STM32L4xx_HAL_Driver/Src/stm32l4xx_hal_exti.c ****   }
 307:Drivers/STM32L4xx_HAL_Driver/Src/stm32l4xx_hal_exti.c **** 
 308:Drivers/STM32L4xx_HAL_Driver/Src/stm32l4xx_hal_exti.c ****   /* Get event mode */
 309:Drivers/STM32L4xx_HAL_Driver/Src/stm32l4xx_hal_exti.c ****   regaddr = (&EXTI->EMR1 + (EXTI_MODE_OFFSET * offset));
 271              		.loc 1 309 0
 272 0022 1F4C     		ldr	r4, .L42
 292:Drivers/STM32L4xx_HAL_Driver/Src/stm32l4xx_hal_exti.c **** 
 273              		.loc 1 292 0
 274 0024 0122     		movs	r2, #1
 275 0026 B240     		lsls	r2, r2, r6
 276              	.LVL37:
 299:Drivers/STM32L4xx_HAL_Driver/Src/stm32l4xx_hal_exti.c ****   {
 277              		.loc 1 299 0
 278 0028 0242     		tst	r2, r0
 279 002a 14BF     		ite	ne
 280 002c 0120     		movne	r0, #1
 281              	.LVL38:
 282 002e 0020     		moveq	r0, #0
 283 0030 4860     		str	r0, [r1, #4]
 310:Drivers/STM32L4xx_HAL_Driver/Src/stm32l4xx_hal_exti.c ****   regval = *regaddr;
 284              		.loc 1 310 0
 285 0032 2C59     		ldr	r4, [r5, r4]
 286              	.LVL39:
 311:Drivers/STM32L4xx_HAL_Driver/Src/stm32l4xx_hal_exti.c **** 
 312:Drivers/STM32L4xx_HAL_Driver/Src/stm32l4xx_hal_exti.c ****   /* Check if selected line is enable */
 313:Drivers/STM32L4xx_HAL_Driver/Src/stm32l4xx_hal_exti.c ****   if ((regval & maskline) != 0x00u)
 287              		.loc 1 313 0
 288 0034 2242     		tst	r2, r4
 314:Drivers/STM32L4xx_HAL_Driver/Src/stm32l4xx_hal_exti.c ****   {
 315:Drivers/STM32L4xx_HAL_Driver/Src/stm32l4xx_hal_exti.c ****     pExtiConfig->Mode |= EXTI_MODE_EVENT;
 289              		.loc 1 315 0
 290 0036 1CBF     		itt	ne
 291 0038 40F00200 		orrne	r0, r0, #2
ARM GAS  /tmp/cc03sstA.s 			page 12


 292 003c 4860     		strne	r0, [r1, #4]
 316:Drivers/STM32L4xx_HAL_Driver/Src/stm32l4xx_hal_exti.c ****   }
 317:Drivers/STM32L4xx_HAL_Driver/Src/stm32l4xx_hal_exti.c **** 
 318:Drivers/STM32L4xx_HAL_Driver/Src/stm32l4xx_hal_exti.c ****   /* 2] Get trigger for configurable lines : rising */
 319:Drivers/STM32L4xx_HAL_Driver/Src/stm32l4xx_hal_exti.c ****   if ((pExtiConfig->Line & EXTI_CONFIG) != 0x00u)
 293              		.loc 1 319 0
 294 003e 13F00070 		ands	r0, r3, #33554432
 295 0042 17D0     		beq	.L26
 320:Drivers/STM32L4xx_HAL_Driver/Src/stm32l4xx_hal_exti.c ****   {
 321:Drivers/STM32L4xx_HAL_Driver/Src/stm32l4xx_hal_exti.c ****     regaddr = (&EXTI->RTSR1 + (EXTI_CONFIG_OFFSET * offset));
 296              		.loc 1 321 0
 297 0044 1748     		ldr	r0, .L42+4
 298              	.LVL40:
 322:Drivers/STM32L4xx_HAL_Driver/Src/stm32l4xx_hal_exti.c ****     regval = *regaddr;
 323:Drivers/STM32L4xx_HAL_Driver/Src/stm32l4xx_hal_exti.c **** 
 324:Drivers/STM32L4xx_HAL_Driver/Src/stm32l4xx_hal_exti.c ****     /* Check if configuration of selected line is enable */
 325:Drivers/STM32L4xx_HAL_Driver/Src/stm32l4xx_hal_exti.c ****     if ((regval & maskline) != 0x00u)
 326:Drivers/STM32L4xx_HAL_Driver/Src/stm32l4xx_hal_exti.c ****     {
 327:Drivers/STM32L4xx_HAL_Driver/Src/stm32l4xx_hal_exti.c ****       pExtiConfig->Trigger = EXTI_TRIGGER_RISING;
 328:Drivers/STM32L4xx_HAL_Driver/Src/stm32l4xx_hal_exti.c ****     }
 329:Drivers/STM32L4xx_HAL_Driver/Src/stm32l4xx_hal_exti.c ****     else
 330:Drivers/STM32L4xx_HAL_Driver/Src/stm32l4xx_hal_exti.c ****     {
 331:Drivers/STM32L4xx_HAL_Driver/Src/stm32l4xx_hal_exti.c ****       pExtiConfig->Trigger = EXTI_TRIGGER_NONE;
 332:Drivers/STM32L4xx_HAL_Driver/Src/stm32l4xx_hal_exti.c ****     }
 333:Drivers/STM32L4xx_HAL_Driver/Src/stm32l4xx_hal_exti.c **** 
 334:Drivers/STM32L4xx_HAL_Driver/Src/stm32l4xx_hal_exti.c ****     /* Get falling configuration */
 335:Drivers/STM32L4xx_HAL_Driver/Src/stm32l4xx_hal_exti.c ****     regaddr = (&EXTI->FTSR1 + (EXTI_CONFIG_OFFSET * offset));
 299              		.loc 1 335 0
 300 0046 184C     		ldr	r4, .L42+8
 301              	.LVL41:
 322:Drivers/STM32L4xx_HAL_Driver/Src/stm32l4xx_hal_exti.c ****     regval = *regaddr;
 302              		.loc 1 322 0
 303 0048 2858     		ldr	r0, [r5, r0]
 304              	.LVL42:
 325:Drivers/STM32L4xx_HAL_Driver/Src/stm32l4xx_hal_exti.c ****     {
 305              		.loc 1 325 0
 306 004a 0242     		tst	r2, r0
 307 004c 14BF     		ite	ne
 308 004e 0120     		movne	r0, #1
 309              	.LVL43:
 310 0050 0020     		moveq	r0, #0
 311 0052 8860     		str	r0, [r1, #8]
 336:Drivers/STM32L4xx_HAL_Driver/Src/stm32l4xx_hal_exti.c ****     regval = *regaddr;
 312              		.loc 1 336 0
 313 0054 2C59     		ldr	r4, [r5, r4]
 314              	.LVL44:
 337:Drivers/STM32L4xx_HAL_Driver/Src/stm32l4xx_hal_exti.c **** 
 338:Drivers/STM32L4xx_HAL_Driver/Src/stm32l4xx_hal_exti.c ****     /* Check if configuration of selected line is enable */
 339:Drivers/STM32L4xx_HAL_Driver/Src/stm32l4xx_hal_exti.c ****     if ((regval & maskline) != 0x00u)
 315              		.loc 1 339 0
 316 0056 2242     		tst	r2, r4
 340:Drivers/STM32L4xx_HAL_Driver/Src/stm32l4xx_hal_exti.c ****     {
 341:Drivers/STM32L4xx_HAL_Driver/Src/stm32l4xx_hal_exti.c ****       pExtiConfig->Trigger |= EXTI_TRIGGER_FALLING;
 317              		.loc 1 341 0
 318 0058 18BF     		it	ne
 319 005a 40F00200 		orrne	r0, r0, #2
 342:Drivers/STM32L4xx_HAL_Driver/Src/stm32l4xx_hal_exti.c ****     }
ARM GAS  /tmp/cc03sstA.s 			page 13


 343:Drivers/STM32L4xx_HAL_Driver/Src/stm32l4xx_hal_exti.c **** 
 344:Drivers/STM32L4xx_HAL_Driver/Src/stm32l4xx_hal_exti.c ****     /* Get Gpio port selection for gpio lines */
 345:Drivers/STM32L4xx_HAL_Driver/Src/stm32l4xx_hal_exti.c ****     if ((pExtiConfig->Line & EXTI_GPIO) == EXTI_GPIO)
 320              		.loc 1 345 0
 321 005e 03F0C063 		and	r3, r3, #100663296
 322              	.LVL45:
 341:Drivers/STM32L4xx_HAL_Driver/Src/stm32l4xx_hal_exti.c ****     }
 323              		.loc 1 341 0
 324 0062 18BF     		it	ne
 325 0064 8860     		strne	r0, [r1, #8]
 326              		.loc 1 345 0
 327 0066 B3F1C06F 		cmp	r3, #100663296
 328 006a 09D0     		beq	.L41
 346:Drivers/STM32L4xx_HAL_Driver/Src/stm32l4xx_hal_exti.c ****     {
 347:Drivers/STM32L4xx_HAL_Driver/Src/stm32l4xx_hal_exti.c ****       assert_param(IS_EXTI_GPIO_PIN(linepos));
 348:Drivers/STM32L4xx_HAL_Driver/Src/stm32l4xx_hal_exti.c **** 
 349:Drivers/STM32L4xx_HAL_Driver/Src/stm32l4xx_hal_exti.c ****       regval = SYSCFG->EXTICR[linepos >> 2u];
 350:Drivers/STM32L4xx_HAL_Driver/Src/stm32l4xx_hal_exti.c ****       pExtiConfig->GPIOSel = ((regval << (SYSCFG_EXTICR1_EXTI1_Pos * (3uL - (linepos & 0x03u)))) >>
 351:Drivers/STM32L4xx_HAL_Driver/Src/stm32l4xx_hal_exti.c ****     }
 352:Drivers/STM32L4xx_HAL_Driver/Src/stm32l4xx_hal_exti.c ****     else
 353:Drivers/STM32L4xx_HAL_Driver/Src/stm32l4xx_hal_exti.c ****     {
 354:Drivers/STM32L4xx_HAL_Driver/Src/stm32l4xx_hal_exti.c ****       pExtiConfig->GPIOSel = 0x00u;
 329              		.loc 1 354 0
 330 006c 0020     		movs	r0, #0
 331 006e C860     		str	r0, [r1, #12]
 355:Drivers/STM32L4xx_HAL_Driver/Src/stm32l4xx_hal_exti.c ****     }
 356:Drivers/STM32L4xx_HAL_Driver/Src/stm32l4xx_hal_exti.c ****   }
 357:Drivers/STM32L4xx_HAL_Driver/Src/stm32l4xx_hal_exti.c ****   else
 358:Drivers/STM32L4xx_HAL_Driver/Src/stm32l4xx_hal_exti.c ****   {
 359:Drivers/STM32L4xx_HAL_Driver/Src/stm32l4xx_hal_exti.c ****     pExtiConfig->Trigger = EXTI_TRIGGER_NONE;
 360:Drivers/STM32L4xx_HAL_Driver/Src/stm32l4xx_hal_exti.c ****     pExtiConfig->GPIOSel = 0x00u;
 361:Drivers/STM32L4xx_HAL_Driver/Src/stm32l4xx_hal_exti.c ****   }
 362:Drivers/STM32L4xx_HAL_Driver/Src/stm32l4xx_hal_exti.c **** 
 363:Drivers/STM32L4xx_HAL_Driver/Src/stm32l4xx_hal_exti.c ****   return HAL_OK;
 364:Drivers/STM32L4xx_HAL_Driver/Src/stm32l4xx_hal_exti.c **** }
 332              		.loc 1 364 0
 333 0070 70BC     		pop	{r4, r5, r6}
 334              	.LCFI5:
 335              		.cfi_remember_state
 336              		.cfi_restore 4
 337              		.cfi_restore 5
 338              		.cfi_restore 6
 339              		.cfi_def_cfa_offset 0
 340              	.LVL46:
 341 0072 7047     		bx	lr
 342              	.LVL47:
 343              	.L26:
 344              	.LCFI6:
 345              		.cfi_restore_state
 359:Drivers/STM32L4xx_HAL_Driver/Src/stm32l4xx_hal_exti.c ****     pExtiConfig->GPIOSel = 0x00u;
 346              		.loc 1 359 0
 347 0074 8860     		str	r0, [r1, #8]
 360:Drivers/STM32L4xx_HAL_Driver/Src/stm32l4xx_hal_exti.c ****   }
 348              		.loc 1 360 0
 349 0076 C860     		str	r0, [r1, #12]
 350              		.loc 1 364 0
 351 0078 70BC     		pop	{r4, r5, r6}
ARM GAS  /tmp/cc03sstA.s 			page 14


 352              	.LCFI7:
 353              		.cfi_restore 6
 354              		.cfi_restore 5
 355              		.cfi_restore 4
 356              		.cfi_def_cfa_offset 0
 357              	.LVL48:
 358 007a 7047     		bx	lr
 359              	.LVL49:
 360              	.L30:
 280:Drivers/STM32L4xx_HAL_Driver/Src/stm32l4xx_hal_exti.c ****   }
 361              		.loc 1 280 0
 362 007c 0120     		movs	r0, #1
 363              	.LVL50:
 364 007e 7047     		bx	lr
 365              	.LVL51:
 366              	.L41:
 367              	.LCFI8:
 368              		.cfi_def_cfa_offset 12
 369              		.cfi_offset 4, -12
 370              		.cfi_offset 5, -8
 371              		.cfi_offset 6, -4
 349:Drivers/STM32L4xx_HAL_Driver/Src/stm32l4xx_hal_exti.c ****       pExtiConfig->GPIOSel = ((regval << (SYSCFG_EXTICR1_EXTI1_Pos * (3uL - (linepos & 0x03u)))) >>
 372              		.loc 1 349 0
 373 0080 B208     		lsrs	r2, r6, #2
 374              	.LVL52:
 375 0082 0A48     		ldr	r0, .L42+12
 376 0084 0232     		adds	r2, r2, #2
 350:Drivers/STM32L4xx_HAL_Driver/Src/stm32l4xx_hal_exti.c ****     }
 377              		.loc 1 350 0
 378 0086 F343     		mvns	r3, r6
 349:Drivers/STM32L4xx_HAL_Driver/Src/stm32l4xx_hal_exti.c ****       pExtiConfig->GPIOSel = ((regval << (SYSCFG_EXTICR1_EXTI1_Pos * (3uL - (linepos & 0x03u)))) >>
 379              		.loc 1 349 0
 380 0088 50F82220 		ldr	r2, [r0, r2, lsl #2]
 381              	.LVL53:
 350:Drivers/STM32L4xx_HAL_Driver/Src/stm32l4xx_hal_exti.c ****     }
 382              		.loc 1 350 0
 383 008c 03F00303 		and	r3, r3, #3
 384 0090 9B00     		lsls	r3, r3, #2
 385 0092 02FA03F3 		lsl	r3, r2, r3
 386 0096 1B0E     		lsrs	r3, r3, #24
 363:Drivers/STM32L4xx_HAL_Driver/Src/stm32l4xx_hal_exti.c **** }
 387              		.loc 1 363 0
 388 0098 0020     		movs	r0, #0
 350:Drivers/STM32L4xx_HAL_Driver/Src/stm32l4xx_hal_exti.c ****     }
 389              		.loc 1 350 0
 390 009a CB60     		str	r3, [r1, #12]
 391              		.loc 1 364 0
 392 009c 70BC     		pop	{r4, r5, r6}
 393              	.LCFI9:
 394              		.cfi_restore 4
 395              		.cfi_restore 5
 396              		.cfi_restore 6
 397              		.cfi_def_cfa_offset 0
 398              	.LVL54:
 399 009e 7047     		bx	lr
 400              	.L43:
 401              		.align	2
ARM GAS  /tmp/cc03sstA.s 			page 15


 402              	.L42:
 403 00a0 04040140 		.word	1073808388
 404 00a4 08040140 		.word	1073808392
 405 00a8 0C040140 		.word	1073808396
 406 00ac 00000140 		.word	1073807360
 407              		.cfi_endproc
 408              	.LFE131:
 410              		.section	.text.HAL_EXTI_ClearConfigLine,"ax",%progbits
 411              		.align	1
 412              		.p2align 2,,3
 413              		.global	HAL_EXTI_ClearConfigLine
 414              		.syntax unified
 415              		.thumb
 416              		.thumb_func
 417              		.fpu fpv4-sp-d16
 419              	HAL_EXTI_ClearConfigLine:
 420              	.LFB132:
 365:Drivers/STM32L4xx_HAL_Driver/Src/stm32l4xx_hal_exti.c **** 
 366:Drivers/STM32L4xx_HAL_Driver/Src/stm32l4xx_hal_exti.c **** 
 367:Drivers/STM32L4xx_HAL_Driver/Src/stm32l4xx_hal_exti.c **** /**
 368:Drivers/STM32L4xx_HAL_Driver/Src/stm32l4xx_hal_exti.c ****   * @brief  Clear whole configuration of a dedicated Exti line.
 369:Drivers/STM32L4xx_HAL_Driver/Src/stm32l4xx_hal_exti.c ****   * @param  hexti Exti handle.
 370:Drivers/STM32L4xx_HAL_Driver/Src/stm32l4xx_hal_exti.c ****   * @retval HAL Status.
 371:Drivers/STM32L4xx_HAL_Driver/Src/stm32l4xx_hal_exti.c ****   */
 372:Drivers/STM32L4xx_HAL_Driver/Src/stm32l4xx_hal_exti.c **** HAL_StatusTypeDef HAL_EXTI_ClearConfigLine(EXTI_HandleTypeDef *hexti)
 373:Drivers/STM32L4xx_HAL_Driver/Src/stm32l4xx_hal_exti.c **** {
 421              		.loc 1 373 0
 422              		.cfi_startproc
 423              		@ args = 0, pretend = 0, frame = 0
 424              		@ frame_needed = 0, uses_anonymous_args = 0
 425              		@ link register save eliminated.
 426              	.LVL55:
 374:Drivers/STM32L4xx_HAL_Driver/Src/stm32l4xx_hal_exti.c ****   __IO uint32_t *regaddr;
 375:Drivers/STM32L4xx_HAL_Driver/Src/stm32l4xx_hal_exti.c ****   uint32_t regval;
 376:Drivers/STM32L4xx_HAL_Driver/Src/stm32l4xx_hal_exti.c ****   uint32_t linepos;
 377:Drivers/STM32L4xx_HAL_Driver/Src/stm32l4xx_hal_exti.c ****   uint32_t maskline;
 378:Drivers/STM32L4xx_HAL_Driver/Src/stm32l4xx_hal_exti.c ****   uint32_t offset;
 379:Drivers/STM32L4xx_HAL_Driver/Src/stm32l4xx_hal_exti.c **** 
 380:Drivers/STM32L4xx_HAL_Driver/Src/stm32l4xx_hal_exti.c ****   /* Check null pointer */
 381:Drivers/STM32L4xx_HAL_Driver/Src/stm32l4xx_hal_exti.c ****   if (hexti == NULL)
 427              		.loc 1 381 0
 428 0000 0028     		cmp	r0, #0
 429 0002 3BD0     		beq	.L48
 373:Drivers/STM32L4xx_HAL_Driver/Src/stm32l4xx_hal_exti.c ****   __IO uint32_t *regaddr;
 430              		.loc 1 373 0
 431 0004 F0B4     		push	{r4, r5, r6, r7}
 432              	.LCFI10:
 433              		.cfi_def_cfa_offset 16
 434              		.cfi_offset 4, -16
 435              		.cfi_offset 5, -12
 436              		.cfi_offset 6, -8
 437              		.cfi_offset 7, -4
 382:Drivers/STM32L4xx_HAL_Driver/Src/stm32l4xx_hal_exti.c ****   {
 383:Drivers/STM32L4xx_HAL_Driver/Src/stm32l4xx_hal_exti.c ****     return HAL_ERROR;
 384:Drivers/STM32L4xx_HAL_Driver/Src/stm32l4xx_hal_exti.c ****   }
 385:Drivers/STM32L4xx_HAL_Driver/Src/stm32l4xx_hal_exti.c **** 
 386:Drivers/STM32L4xx_HAL_Driver/Src/stm32l4xx_hal_exti.c ****   /* Check the parameter */
ARM GAS  /tmp/cc03sstA.s 			page 16


 387:Drivers/STM32L4xx_HAL_Driver/Src/stm32l4xx_hal_exti.c ****   assert_param(IS_EXTI_LINE(hexti->Line));
 388:Drivers/STM32L4xx_HAL_Driver/Src/stm32l4xx_hal_exti.c **** 
 389:Drivers/STM32L4xx_HAL_Driver/Src/stm32l4xx_hal_exti.c ****   /* compute line register offset and line mask */
 390:Drivers/STM32L4xx_HAL_Driver/Src/stm32l4xx_hal_exti.c ****   offset = ((hexti->Line & EXTI_REG_MASK) >> EXTI_REG_SHIFT);
 438              		.loc 1 390 0
 439 0006 0568     		ldr	r5, [r0]
 440              	.LVL56:
 391:Drivers/STM32L4xx_HAL_Driver/Src/stm32l4xx_hal_exti.c ****   linepos = (hexti->Line & EXTI_PIN_MASK);
 392:Drivers/STM32L4xx_HAL_Driver/Src/stm32l4xx_hal_exti.c ****   maskline = (1uL << linepos);
 393:Drivers/STM32L4xx_HAL_Driver/Src/stm32l4xx_hal_exti.c **** 
 394:Drivers/STM32L4xx_HAL_Driver/Src/stm32l4xx_hal_exti.c ****   /* 1] Clear interrupt mode */
 395:Drivers/STM32L4xx_HAL_Driver/Src/stm32l4xx_hal_exti.c ****   regaddr = (&EXTI->IMR1 + (EXTI_MODE_OFFSET * offset));
 396:Drivers/STM32L4xx_HAL_Driver/Src/stm32l4xx_hal_exti.c ****   regval = (*regaddr & ~maskline);
 397:Drivers/STM32L4xx_HAL_Driver/Src/stm32l4xx_hal_exti.c ****   *regaddr = regval;
 398:Drivers/STM32L4xx_HAL_Driver/Src/stm32l4xx_hal_exti.c **** 
 399:Drivers/STM32L4xx_HAL_Driver/Src/stm32l4xx_hal_exti.c ****   /* 2] Clear event mode */
 400:Drivers/STM32L4xx_HAL_Driver/Src/stm32l4xx_hal_exti.c ****   regaddr = (&EXTI->EMR1 + (EXTI_MODE_OFFSET * offset));
 441              		.loc 1 400 0
 442 0008 1D4F     		ldr	r7, .L55
 390:Drivers/STM32L4xx_HAL_Driver/Src/stm32l4xx_hal_exti.c ****   linepos = (hexti->Line & EXTI_PIN_MASK);
 443              		.loc 1 390 0
 444 000a C5F30044 		ubfx	r4, r5, #16, #1
 395:Drivers/STM32L4xx_HAL_Driver/Src/stm32l4xx_hal_exti.c ****   regval = (*regaddr & ~maskline);
 445              		.loc 1 395 0
 446 000e 6401     		lsls	r4, r4, #5
 447 0010 04F18042 		add	r2, r4, #1073741824
 448 0014 02F58232 		add	r2, r2, #66560
 391:Drivers/STM32L4xx_HAL_Driver/Src/stm32l4xx_hal_exti.c ****   linepos = (hexti->Line & EXTI_PIN_MASK);
 449              		.loc 1 391 0
 450 0018 05F01F06 		and	r6, r5, #31
 451              	.LVL57:
 392:Drivers/STM32L4xx_HAL_Driver/Src/stm32l4xx_hal_exti.c **** 
 452              		.loc 1 392 0
 453 001c 0123     		movs	r3, #1
 396:Drivers/STM32L4xx_HAL_Driver/Src/stm32l4xx_hal_exti.c ****   *regaddr = regval;
 454              		.loc 1 396 0
 455 001e 1168     		ldr	r1, [r2]
 392:Drivers/STM32L4xx_HAL_Driver/Src/stm32l4xx_hal_exti.c **** 
 456              		.loc 1 392 0
 457 0020 B340     		lsls	r3, r3, r6
 458              	.LVL58:
 396:Drivers/STM32L4xx_HAL_Driver/Src/stm32l4xx_hal_exti.c ****   *regaddr = regval;
 459              		.loc 1 396 0
 460 0022 DB43     		mvns	r3, r3
 461              	.LVL59:
 462 0024 1940     		ands	r1, r1, r3
 463              	.LVL60:
 397:Drivers/STM32L4xx_HAL_Driver/Src/stm32l4xx_hal_exti.c **** 
 464              		.loc 1 397 0
 465 0026 1160     		str	r1, [r2]
 401:Drivers/STM32L4xx_HAL_Driver/Src/stm32l4xx_hal_exti.c ****   regval = (*regaddr & ~maskline);
 466              		.loc 1 401 0
 467 0028 E259     		ldr	r2, [r4, r7]
 468 002a 1A40     		ands	r2, r2, r3
 469              	.LVL61:
 402:Drivers/STM32L4xx_HAL_Driver/Src/stm32l4xx_hal_exti.c ****   *regaddr = regval;
 470              		.loc 1 402 0
ARM GAS  /tmp/cc03sstA.s 			page 17


 471 002c E251     		str	r2, [r4, r7]
 403:Drivers/STM32L4xx_HAL_Driver/Src/stm32l4xx_hal_exti.c **** 
 404:Drivers/STM32L4xx_HAL_Driver/Src/stm32l4xx_hal_exti.c ****   /* 3] Clear triggers in case of configurable lines */
 405:Drivers/STM32L4xx_HAL_Driver/Src/stm32l4xx_hal_exti.c ****   if ((hexti->Line & EXTI_CONFIG) != 0x00u)
 472              		.loc 1 405 0
 473 002e 0268     		ldr	r2, [r0]
 474              	.LVL62:
 475 0030 9201     		lsls	r2, r2, #6
 476 0032 0DD5     		bpl	.L53
 406:Drivers/STM32L4xx_HAL_Driver/Src/stm32l4xx_hal_exti.c ****   {
 407:Drivers/STM32L4xx_HAL_Driver/Src/stm32l4xx_hal_exti.c ****     regaddr = (&EXTI->RTSR1 + (EXTI_CONFIG_OFFSET * offset));
 477              		.loc 1 407 0
 478 0034 134F     		ldr	r7, .L55+4
 479              	.LVL63:
 408:Drivers/STM32L4xx_HAL_Driver/Src/stm32l4xx_hal_exti.c ****     regval = (*regaddr & ~maskline);
 409:Drivers/STM32L4xx_HAL_Driver/Src/stm32l4xx_hal_exti.c ****     *regaddr = regval;
 410:Drivers/STM32L4xx_HAL_Driver/Src/stm32l4xx_hal_exti.c **** 
 411:Drivers/STM32L4xx_HAL_Driver/Src/stm32l4xx_hal_exti.c ****     regaddr = (&EXTI->FTSR1 + (EXTI_CONFIG_OFFSET * offset));
 480              		.loc 1 411 0
 481 0036 1449     		ldr	r1, .L55+8
 408:Drivers/STM32L4xx_HAL_Driver/Src/stm32l4xx_hal_exti.c ****     regval = (*regaddr & ~maskline);
 482              		.loc 1 408 0
 483 0038 E259     		ldr	r2, [r4, r7]
 484 003a 1A40     		ands	r2, r2, r3
 485              	.LVL64:
 409:Drivers/STM32L4xx_HAL_Driver/Src/stm32l4xx_hal_exti.c **** 
 486              		.loc 1 409 0
 487 003c E251     		str	r2, [r4, r7]
 412:Drivers/STM32L4xx_HAL_Driver/Src/stm32l4xx_hal_exti.c ****     regval = (*regaddr & ~maskline);
 488              		.loc 1 412 0
 489 003e 6258     		ldr	r2, [r4, r1]
 490              	.LVL65:
 491 0040 1340     		ands	r3, r3, r2
 492              	.LVL66:
 413:Drivers/STM32L4xx_HAL_Driver/Src/stm32l4xx_hal_exti.c ****     *regaddr = regval;
 493              		.loc 1 413 0
 494 0042 6350     		str	r3, [r4, r1]
 414:Drivers/STM32L4xx_HAL_Driver/Src/stm32l4xx_hal_exti.c **** 
 415:Drivers/STM32L4xx_HAL_Driver/Src/stm32l4xx_hal_exti.c ****     /* Get Gpio port selection for gpio lines */
 416:Drivers/STM32L4xx_HAL_Driver/Src/stm32l4xx_hal_exti.c ****     if ((hexti->Line & EXTI_GPIO) == EXTI_GPIO)
 495              		.loc 1 416 0
 496 0044 0368     		ldr	r3, [r0]
 497              	.LVL67:
 498 0046 03F0C063 		and	r3, r3, #100663296
 499 004a B3F1C06F 		cmp	r3, #100663296
 500 004e 02D0     		beq	.L54
 501              	.LVL68:
 502              	.L53:
 417:Drivers/STM32L4xx_HAL_Driver/Src/stm32l4xx_hal_exti.c ****     {
 418:Drivers/STM32L4xx_HAL_Driver/Src/stm32l4xx_hal_exti.c ****       assert_param(IS_EXTI_GPIO_PIN(linepos));
 419:Drivers/STM32L4xx_HAL_Driver/Src/stm32l4xx_hal_exti.c **** 
 420:Drivers/STM32L4xx_HAL_Driver/Src/stm32l4xx_hal_exti.c ****       regval = SYSCFG->EXTICR[linepos >> 2u];
 421:Drivers/STM32L4xx_HAL_Driver/Src/stm32l4xx_hal_exti.c ****       regval &= ~(SYSCFG_EXTICR1_EXTI0 << (SYSCFG_EXTICR1_EXTI1_Pos * (linepos & 0x03u)));
 422:Drivers/STM32L4xx_HAL_Driver/Src/stm32l4xx_hal_exti.c ****       SYSCFG->EXTICR[linepos >> 2u] = regval;
 423:Drivers/STM32L4xx_HAL_Driver/Src/stm32l4xx_hal_exti.c ****     }
 424:Drivers/STM32L4xx_HAL_Driver/Src/stm32l4xx_hal_exti.c ****   }
 425:Drivers/STM32L4xx_HAL_Driver/Src/stm32l4xx_hal_exti.c **** 
ARM GAS  /tmp/cc03sstA.s 			page 18


 426:Drivers/STM32L4xx_HAL_Driver/Src/stm32l4xx_hal_exti.c ****   return HAL_OK;
 503              		.loc 1 426 0
 504 0050 0020     		movs	r0, #0
 505              	.LVL69:
 427:Drivers/STM32L4xx_HAL_Driver/Src/stm32l4xx_hal_exti.c **** }
 506              		.loc 1 427 0
 507 0052 F0BC     		pop	{r4, r5, r6, r7}
 508              	.LCFI11:
 509              		.cfi_remember_state
 510              		.cfi_restore 7
 511              		.cfi_restore 6
 512              		.cfi_restore 5
 513              		.cfi_restore 4
 514              		.cfi_def_cfa_offset 0
 515              	.LVL70:
 516 0054 7047     		bx	lr
 517              	.LVL71:
 518              	.L54:
 519              	.LCFI12:
 520              		.cfi_restore_state
 521 0056 06F01C06 		and	r6, r6, #28
 522              	.LVL72:
 523 005a 06F18046 		add	r6, r6, #1073741824
 524 005e 06F58036 		add	r6, r6, #65536
 421:Drivers/STM32L4xx_HAL_Driver/Src/stm32l4xx_hal_exti.c ****       SYSCFG->EXTICR[linepos >> 2u] = regval;
 525              		.loc 1 421 0
 526 0062 05F00303 		and	r3, r5, #3
 420:Drivers/STM32L4xx_HAL_Driver/Src/stm32l4xx_hal_exti.c ****       regval &= ~(SYSCFG_EXTICR1_EXTI0 << (SYSCFG_EXTICR1_EXTI1_Pos * (linepos & 0x03u)));
 527              		.loc 1 420 0
 528 0066 B268     		ldr	r2, [r6, #8]
 529              	.LVL73:
 421:Drivers/STM32L4xx_HAL_Driver/Src/stm32l4xx_hal_exti.c ****       SYSCFG->EXTICR[linepos >> 2u] = regval;
 530              		.loc 1 421 0
 531 0068 9B00     		lsls	r3, r3, #2
 532 006a 0721     		movs	r1, #7
 533              	.LVL74:
 534 006c 01FA03F3 		lsl	r3, r1, r3
 535 0070 22EA0303 		bic	r3, r2, r3
 536              	.LVL75:
 422:Drivers/STM32L4xx_HAL_Driver/Src/stm32l4xx_hal_exti.c ****     }
 537              		.loc 1 422 0
 538 0074 B360     		str	r3, [r6, #8]
 426:Drivers/STM32L4xx_HAL_Driver/Src/stm32l4xx_hal_exti.c **** }
 539              		.loc 1 426 0
 540 0076 0020     		movs	r0, #0
 541              	.LVL76:
 542              		.loc 1 427 0
 543 0078 F0BC     		pop	{r4, r5, r6, r7}
 544              	.LCFI13:
 545              		.cfi_restore 4
 546              		.cfi_restore 5
 547              		.cfi_restore 6
 548              		.cfi_restore 7
 549              		.cfi_def_cfa_offset 0
 550              	.LVL77:
 551 007a 7047     		bx	lr
 552              	.LVL78:
ARM GAS  /tmp/cc03sstA.s 			page 19


 553              	.L48:
 383:Drivers/STM32L4xx_HAL_Driver/Src/stm32l4xx_hal_exti.c ****   }
 554              		.loc 1 383 0
 555 007c 0120     		movs	r0, #1
 556              	.LVL79:
 557 007e 7047     		bx	lr
 558              	.L56:
 559              		.align	2
 560              	.L55:
 561 0080 04040140 		.word	1073808388
 562 0084 08040140 		.word	1073808392
 563 0088 0C040140 		.word	1073808396
 564              		.cfi_endproc
 565              	.LFE132:
 567              		.section	.text.HAL_EXTI_RegisterCallback,"ax",%progbits
 568              		.align	1
 569              		.p2align 2,,3
 570              		.global	HAL_EXTI_RegisterCallback
 571              		.syntax unified
 572              		.thumb
 573              		.thumb_func
 574              		.fpu fpv4-sp-d16
 576              	HAL_EXTI_RegisterCallback:
 577              	.LFB133:
 428:Drivers/STM32L4xx_HAL_Driver/Src/stm32l4xx_hal_exti.c **** 
 429:Drivers/STM32L4xx_HAL_Driver/Src/stm32l4xx_hal_exti.c **** 
 430:Drivers/STM32L4xx_HAL_Driver/Src/stm32l4xx_hal_exti.c **** /**
 431:Drivers/STM32L4xx_HAL_Driver/Src/stm32l4xx_hal_exti.c ****   * @brief  Register callback for a dedicated Exti line.
 432:Drivers/STM32L4xx_HAL_Driver/Src/stm32l4xx_hal_exti.c ****   * @param  hexti Exti handle.
 433:Drivers/STM32L4xx_HAL_Driver/Src/stm32l4xx_hal_exti.c ****   * @param  CallbackID User callback identifier.
 434:Drivers/STM32L4xx_HAL_Driver/Src/stm32l4xx_hal_exti.c ****   *         This parameter can be one of @arg @ref EXTI_CallbackIDTypeDef values.
 435:Drivers/STM32L4xx_HAL_Driver/Src/stm32l4xx_hal_exti.c ****   * @param  pPendingCbfn function pointer to be stored as callback.
 436:Drivers/STM32L4xx_HAL_Driver/Src/stm32l4xx_hal_exti.c ****   * @retval HAL Status.
 437:Drivers/STM32L4xx_HAL_Driver/Src/stm32l4xx_hal_exti.c ****   */
 438:Drivers/STM32L4xx_HAL_Driver/Src/stm32l4xx_hal_exti.c **** HAL_StatusTypeDef HAL_EXTI_RegisterCallback(EXTI_HandleTypeDef *hexti, EXTI_CallbackIDTypeDef Callb
 439:Drivers/STM32L4xx_HAL_Driver/Src/stm32l4xx_hal_exti.c **** {
 578              		.loc 1 439 0
 579              		.cfi_startproc
 580              		@ args = 0, pretend = 0, frame = 0
 581              		@ frame_needed = 0, uses_anonymous_args = 0
 582              		@ link register save eliminated.
 583              	.LVL80:
 440:Drivers/STM32L4xx_HAL_Driver/Src/stm32l4xx_hal_exti.c ****   HAL_StatusTypeDef status = HAL_OK;
 441:Drivers/STM32L4xx_HAL_Driver/Src/stm32l4xx_hal_exti.c **** 
 442:Drivers/STM32L4xx_HAL_Driver/Src/stm32l4xx_hal_exti.c ****   switch (CallbackID)
 584              		.loc 1 442 0
 585 0000 11B9     		cbnz	r1, .L61
 443:Drivers/STM32L4xx_HAL_Driver/Src/stm32l4xx_hal_exti.c ****   {
 444:Drivers/STM32L4xx_HAL_Driver/Src/stm32l4xx_hal_exti.c ****     case  HAL_EXTI_COMMON_CB_ID:
 445:Drivers/STM32L4xx_HAL_Driver/Src/stm32l4xx_hal_exti.c ****       hexti->PendingCallback = pPendingCbfn;
 586              		.loc 1 445 0
 587 0002 4260     		str	r2, [r0, #4]
 440:Drivers/STM32L4xx_HAL_Driver/Src/stm32l4xx_hal_exti.c ****   HAL_StatusTypeDef status = HAL_OK;
 588              		.loc 1 440 0
 589 0004 0846     		mov	r0, r1
 590              	.LVL81:
 446:Drivers/STM32L4xx_HAL_Driver/Src/stm32l4xx_hal_exti.c ****       break;
ARM GAS  /tmp/cc03sstA.s 			page 20


 591              		.loc 1 446 0
 592 0006 7047     		bx	lr
 593              	.LVL82:
 594              	.L61:
 447:Drivers/STM32L4xx_HAL_Driver/Src/stm32l4xx_hal_exti.c **** 
 448:Drivers/STM32L4xx_HAL_Driver/Src/stm32l4xx_hal_exti.c ****     default:
 449:Drivers/STM32L4xx_HAL_Driver/Src/stm32l4xx_hal_exti.c ****       status = HAL_ERROR;
 595              		.loc 1 449 0
 596 0008 0120     		movs	r0, #1
 597              	.LVL83:
 450:Drivers/STM32L4xx_HAL_Driver/Src/stm32l4xx_hal_exti.c ****       break;
 451:Drivers/STM32L4xx_HAL_Driver/Src/stm32l4xx_hal_exti.c ****   }
 452:Drivers/STM32L4xx_HAL_Driver/Src/stm32l4xx_hal_exti.c **** 
 453:Drivers/STM32L4xx_HAL_Driver/Src/stm32l4xx_hal_exti.c ****   return status;
 454:Drivers/STM32L4xx_HAL_Driver/Src/stm32l4xx_hal_exti.c **** }
 598              		.loc 1 454 0
 599 000a 7047     		bx	lr
 600              		.cfi_endproc
 601              	.LFE133:
 603              		.section	.text.HAL_EXTI_GetHandle,"ax",%progbits
 604              		.align	1
 605              		.p2align 2,,3
 606              		.global	HAL_EXTI_GetHandle
 607              		.syntax unified
 608              		.thumb
 609              		.thumb_func
 610              		.fpu fpv4-sp-d16
 612              	HAL_EXTI_GetHandle:
 613              	.LFB134:
 455:Drivers/STM32L4xx_HAL_Driver/Src/stm32l4xx_hal_exti.c **** 
 456:Drivers/STM32L4xx_HAL_Driver/Src/stm32l4xx_hal_exti.c **** 
 457:Drivers/STM32L4xx_HAL_Driver/Src/stm32l4xx_hal_exti.c **** /**
 458:Drivers/STM32L4xx_HAL_Driver/Src/stm32l4xx_hal_exti.c ****   * @brief  Store line number as handle private field.
 459:Drivers/STM32L4xx_HAL_Driver/Src/stm32l4xx_hal_exti.c ****   * @param  hexti Exti handle.
 460:Drivers/STM32L4xx_HAL_Driver/Src/stm32l4xx_hal_exti.c ****   * @param  ExtiLine Exti line number.
 461:Drivers/STM32L4xx_HAL_Driver/Src/stm32l4xx_hal_exti.c ****   *         This parameter can be from 0 to @ref EXTI_LINE_NB.
 462:Drivers/STM32L4xx_HAL_Driver/Src/stm32l4xx_hal_exti.c ****   * @retval HAL Status.
 463:Drivers/STM32L4xx_HAL_Driver/Src/stm32l4xx_hal_exti.c ****   */
 464:Drivers/STM32L4xx_HAL_Driver/Src/stm32l4xx_hal_exti.c **** HAL_StatusTypeDef HAL_EXTI_GetHandle(EXTI_HandleTypeDef *hexti, uint32_t ExtiLine)
 465:Drivers/STM32L4xx_HAL_Driver/Src/stm32l4xx_hal_exti.c **** {
 614              		.loc 1 465 0
 615              		.cfi_startproc
 616              		@ args = 0, pretend = 0, frame = 0
 617              		@ frame_needed = 0, uses_anonymous_args = 0
 618              		@ link register save eliminated.
 619              	.LVL84:
 466:Drivers/STM32L4xx_HAL_Driver/Src/stm32l4xx_hal_exti.c ****   /* Check the parameters */
 467:Drivers/STM32L4xx_HAL_Driver/Src/stm32l4xx_hal_exti.c ****   assert_param(IS_EXTI_LINE(ExtiLine));
 468:Drivers/STM32L4xx_HAL_Driver/Src/stm32l4xx_hal_exti.c **** 
 469:Drivers/STM32L4xx_HAL_Driver/Src/stm32l4xx_hal_exti.c ****   /* Check null pointer */
 470:Drivers/STM32L4xx_HAL_Driver/Src/stm32l4xx_hal_exti.c ****   if (hexti == NULL)
 620              		.loc 1 470 0
 621 0000 10B1     		cbz	r0, .L64
 471:Drivers/STM32L4xx_HAL_Driver/Src/stm32l4xx_hal_exti.c ****   {
 472:Drivers/STM32L4xx_HAL_Driver/Src/stm32l4xx_hal_exti.c ****     return HAL_ERROR;
 473:Drivers/STM32L4xx_HAL_Driver/Src/stm32l4xx_hal_exti.c ****   }
 474:Drivers/STM32L4xx_HAL_Driver/Src/stm32l4xx_hal_exti.c ****   else
ARM GAS  /tmp/cc03sstA.s 			page 21


 475:Drivers/STM32L4xx_HAL_Driver/Src/stm32l4xx_hal_exti.c ****   {
 476:Drivers/STM32L4xx_HAL_Driver/Src/stm32l4xx_hal_exti.c ****     /* Store line number as handle private field */
 477:Drivers/STM32L4xx_HAL_Driver/Src/stm32l4xx_hal_exti.c ****     hexti->Line = ExtiLine;
 622              		.loc 1 477 0
 623 0002 0160     		str	r1, [r0]
 478:Drivers/STM32L4xx_HAL_Driver/Src/stm32l4xx_hal_exti.c **** 
 479:Drivers/STM32L4xx_HAL_Driver/Src/stm32l4xx_hal_exti.c ****     return HAL_OK;
 624              		.loc 1 479 0
 625 0004 0020     		movs	r0, #0
 626              	.LVL85:
 627 0006 7047     		bx	lr
 628              	.LVL86:
 629              	.L64:
 472:Drivers/STM32L4xx_HAL_Driver/Src/stm32l4xx_hal_exti.c ****   }
 630              		.loc 1 472 0
 631 0008 0120     		movs	r0, #1
 632              	.LVL87:
 480:Drivers/STM32L4xx_HAL_Driver/Src/stm32l4xx_hal_exti.c ****   }
 481:Drivers/STM32L4xx_HAL_Driver/Src/stm32l4xx_hal_exti.c **** }
 633              		.loc 1 481 0
 634 000a 7047     		bx	lr
 635              		.cfi_endproc
 636              	.LFE134:
 638              		.section	.text.HAL_EXTI_IRQHandler,"ax",%progbits
 639              		.align	1
 640              		.p2align 2,,3
 641              		.global	HAL_EXTI_IRQHandler
 642              		.syntax unified
 643              		.thumb
 644              		.thumb_func
 645              		.fpu fpv4-sp-d16
 647              	HAL_EXTI_IRQHandler:
 648              	.LFB135:
 482:Drivers/STM32L4xx_HAL_Driver/Src/stm32l4xx_hal_exti.c **** 
 483:Drivers/STM32L4xx_HAL_Driver/Src/stm32l4xx_hal_exti.c **** 
 484:Drivers/STM32L4xx_HAL_Driver/Src/stm32l4xx_hal_exti.c **** /**
 485:Drivers/STM32L4xx_HAL_Driver/Src/stm32l4xx_hal_exti.c ****   * @}
 486:Drivers/STM32L4xx_HAL_Driver/Src/stm32l4xx_hal_exti.c ****   */
 487:Drivers/STM32L4xx_HAL_Driver/Src/stm32l4xx_hal_exti.c **** 
 488:Drivers/STM32L4xx_HAL_Driver/Src/stm32l4xx_hal_exti.c **** /** @addtogroup EXTI_Exported_Functions_Group2
 489:Drivers/STM32L4xx_HAL_Driver/Src/stm32l4xx_hal_exti.c ****  *  @brief EXTI IO functions.
 490:Drivers/STM32L4xx_HAL_Driver/Src/stm32l4xx_hal_exti.c ****  *
 491:Drivers/STM32L4xx_HAL_Driver/Src/stm32l4xx_hal_exti.c **** @verbatim
 492:Drivers/STM32L4xx_HAL_Driver/Src/stm32l4xx_hal_exti.c ****  ===============================================================================
 493:Drivers/STM32L4xx_HAL_Driver/Src/stm32l4xx_hal_exti.c ****                        ##### IO operation functions #####
 494:Drivers/STM32L4xx_HAL_Driver/Src/stm32l4xx_hal_exti.c ****  ===============================================================================
 495:Drivers/STM32L4xx_HAL_Driver/Src/stm32l4xx_hal_exti.c **** 
 496:Drivers/STM32L4xx_HAL_Driver/Src/stm32l4xx_hal_exti.c **** @endverbatim
 497:Drivers/STM32L4xx_HAL_Driver/Src/stm32l4xx_hal_exti.c ****   * @{
 498:Drivers/STM32L4xx_HAL_Driver/Src/stm32l4xx_hal_exti.c ****   */
 499:Drivers/STM32L4xx_HAL_Driver/Src/stm32l4xx_hal_exti.c **** 
 500:Drivers/STM32L4xx_HAL_Driver/Src/stm32l4xx_hal_exti.c **** /**
 501:Drivers/STM32L4xx_HAL_Driver/Src/stm32l4xx_hal_exti.c ****   * @brief  Handle EXTI interrupt request.
 502:Drivers/STM32L4xx_HAL_Driver/Src/stm32l4xx_hal_exti.c ****   * @param  hexti Exti handle.
 503:Drivers/STM32L4xx_HAL_Driver/Src/stm32l4xx_hal_exti.c ****   * @retval none.
 504:Drivers/STM32L4xx_HAL_Driver/Src/stm32l4xx_hal_exti.c ****   */
 505:Drivers/STM32L4xx_HAL_Driver/Src/stm32l4xx_hal_exti.c **** void HAL_EXTI_IRQHandler(EXTI_HandleTypeDef *hexti)
ARM GAS  /tmp/cc03sstA.s 			page 22


 506:Drivers/STM32L4xx_HAL_Driver/Src/stm32l4xx_hal_exti.c **** {
 649              		.loc 1 506 0
 650              		.cfi_startproc
 651              		@ args = 0, pretend = 0, frame = 0
 652              		@ frame_needed = 0, uses_anonymous_args = 0
 653              		@ link register save eliminated.
 654              	.LVL88:
 507:Drivers/STM32L4xx_HAL_Driver/Src/stm32l4xx_hal_exti.c ****   __IO uint32_t *regaddr;
 508:Drivers/STM32L4xx_HAL_Driver/Src/stm32l4xx_hal_exti.c ****   uint32_t regval;
 509:Drivers/STM32L4xx_HAL_Driver/Src/stm32l4xx_hal_exti.c ****   uint32_t maskline;
 510:Drivers/STM32L4xx_HAL_Driver/Src/stm32l4xx_hal_exti.c ****   uint32_t offset;
 511:Drivers/STM32L4xx_HAL_Driver/Src/stm32l4xx_hal_exti.c **** 
 512:Drivers/STM32L4xx_HAL_Driver/Src/stm32l4xx_hal_exti.c ****   /* Compute line register offset and line mask */
 513:Drivers/STM32L4xx_HAL_Driver/Src/stm32l4xx_hal_exti.c ****   offset = ((hexti->Line & EXTI_REG_MASK) >> EXTI_REG_SHIFT);
 655              		.loc 1 513 0
 656 0000 0368     		ldr	r3, [r0]
 657              	.LVL89:
 658 0002 C3F30042 		ubfx	r2, r3, #16, #1
 506:Drivers/STM32L4xx_HAL_Driver/Src/stm32l4xx_hal_exti.c ****   __IO uint32_t *regaddr;
 659              		.loc 1 506 0
 660 0006 30B4     		push	{r4, r5}
 661              	.LCFI14:
 662              		.cfi_def_cfa_offset 8
 663              		.cfi_offset 4, -8
 664              		.cfi_offset 5, -4
 514:Drivers/STM32L4xx_HAL_Driver/Src/stm32l4xx_hal_exti.c ****   maskline = (1uL << (hexti->Line & EXTI_PIN_MASK));
 515:Drivers/STM32L4xx_HAL_Driver/Src/stm32l4xx_hal_exti.c **** 
 516:Drivers/STM32L4xx_HAL_Driver/Src/stm32l4xx_hal_exti.c ****   /* Get pending bit  */
 517:Drivers/STM32L4xx_HAL_Driver/Src/stm32l4xx_hal_exti.c ****   regaddr = (&EXTI->PR1 + (EXTI_CONFIG_OFFSET * offset));
 665              		.loc 1 517 0
 666 0008 5201     		lsls	r2, r2, #5
 667 000a 084C     		ldr	r4, .L73
 514:Drivers/STM32L4xx_HAL_Driver/Src/stm32l4xx_hal_exti.c ****   maskline = (1uL << (hexti->Line & EXTI_PIN_MASK));
 668              		.loc 1 514 0
 669 000c 03F01F03 		and	r3, r3, #31
 670              	.LVL90:
 671 0010 0121     		movs	r1, #1
 518:Drivers/STM32L4xx_HAL_Driver/Src/stm32l4xx_hal_exti.c ****   regval = (*regaddr & maskline);
 672              		.loc 1 518 0
 673 0012 1559     		ldr	r5, [r2, r4]
 514:Drivers/STM32L4xx_HAL_Driver/Src/stm32l4xx_hal_exti.c ****   maskline = (1uL << (hexti->Line & EXTI_PIN_MASK));
 674              		.loc 1 514 0
 675 0014 01FA03F3 		lsl	r3, r1, r3
 676              	.LVL91:
 519:Drivers/STM32L4xx_HAL_Driver/Src/stm32l4xx_hal_exti.c **** 
 520:Drivers/STM32L4xx_HAL_Driver/Src/stm32l4xx_hal_exti.c ****   if (regval != 0x00u)
 677              		.loc 1 520 0
 678 0018 2B42     		tst	r3, r5
 679 001a 04D0     		beq	.L65
 521:Drivers/STM32L4xx_HAL_Driver/Src/stm32l4xx_hal_exti.c ****   {
 522:Drivers/STM32L4xx_HAL_Driver/Src/stm32l4xx_hal_exti.c ****     /* Clear pending bit */
 523:Drivers/STM32L4xx_HAL_Driver/Src/stm32l4xx_hal_exti.c ****     *regaddr = maskline;
 524:Drivers/STM32L4xx_HAL_Driver/Src/stm32l4xx_hal_exti.c **** 
 525:Drivers/STM32L4xx_HAL_Driver/Src/stm32l4xx_hal_exti.c ****     /* Call callback */
 526:Drivers/STM32L4xx_HAL_Driver/Src/stm32l4xx_hal_exti.c ****     if (hexti->PendingCallback != NULL)
 680              		.loc 1 526 0
 681 001c 4168     		ldr	r1, [r0, #4]
ARM GAS  /tmp/cc03sstA.s 			page 23


 523:Drivers/STM32L4xx_HAL_Driver/Src/stm32l4xx_hal_exti.c **** 
 682              		.loc 1 523 0
 683 001e 1351     		str	r3, [r2, r4]
 684              	.LVL92:
 685              		.loc 1 526 0
 686 0020 09B1     		cbz	r1, .L65
 527:Drivers/STM32L4xx_HAL_Driver/Src/stm32l4xx_hal_exti.c ****     {
 528:Drivers/STM32L4xx_HAL_Driver/Src/stm32l4xx_hal_exti.c ****       hexti->PendingCallback();
 529:Drivers/STM32L4xx_HAL_Driver/Src/stm32l4xx_hal_exti.c ****     }
 530:Drivers/STM32L4xx_HAL_Driver/Src/stm32l4xx_hal_exti.c ****   }
 531:Drivers/STM32L4xx_HAL_Driver/Src/stm32l4xx_hal_exti.c **** }
 687              		.loc 1 531 0
 688 0022 30BC     		pop	{r4, r5}
 689              	.LCFI15:
 690              		.cfi_remember_state
 691              		.cfi_restore 5
 692              		.cfi_restore 4
 693              		.cfi_def_cfa_offset 0
 694              	.LVL93:
 528:Drivers/STM32L4xx_HAL_Driver/Src/stm32l4xx_hal_exti.c ****     }
 695              		.loc 1 528 0
 696 0024 0847     		bx	r1	@ indirect register sibling call
 697              	.LVL94:
 698              	.L65:
 699              	.LCFI16:
 700              		.cfi_restore_state
 701              		.loc 1 531 0
 702 0026 30BC     		pop	{r4, r5}
 703              	.LCFI17:
 704              		.cfi_restore 5
 705              		.cfi_restore 4
 706              		.cfi_def_cfa_offset 0
 707              	.LVL95:
 708 0028 7047     		bx	lr
 709              	.L74:
 710 002a 00BF     		.align	2
 711              	.L73:
 712 002c 14040140 		.word	1073808404
 713              		.cfi_endproc
 714              	.LFE135:
 716              		.section	.text.HAL_EXTI_GetPending,"ax",%progbits
 717              		.align	1
 718              		.p2align 2,,3
 719              		.global	HAL_EXTI_GetPending
 720              		.syntax unified
 721              		.thumb
 722              		.thumb_func
 723              		.fpu fpv4-sp-d16
 725              	HAL_EXTI_GetPending:
 726              	.LFB136:
 532:Drivers/STM32L4xx_HAL_Driver/Src/stm32l4xx_hal_exti.c **** 
 533:Drivers/STM32L4xx_HAL_Driver/Src/stm32l4xx_hal_exti.c **** 
 534:Drivers/STM32L4xx_HAL_Driver/Src/stm32l4xx_hal_exti.c **** /**
 535:Drivers/STM32L4xx_HAL_Driver/Src/stm32l4xx_hal_exti.c ****   * @brief  Get interrupt pending bit of a dedicated line.
 536:Drivers/STM32L4xx_HAL_Driver/Src/stm32l4xx_hal_exti.c ****   * @param  hexti Exti handle.
 537:Drivers/STM32L4xx_HAL_Driver/Src/stm32l4xx_hal_exti.c ****   * @param  Edge Specify which pending edge as to be checked.
 538:Drivers/STM32L4xx_HAL_Driver/Src/stm32l4xx_hal_exti.c ****   *         This parameter can be one of the following values:
ARM GAS  /tmp/cc03sstA.s 			page 24


 539:Drivers/STM32L4xx_HAL_Driver/Src/stm32l4xx_hal_exti.c ****   *           @arg @ref EXTI_TRIGGER_RISING_FALLING
 540:Drivers/STM32L4xx_HAL_Driver/Src/stm32l4xx_hal_exti.c ****   *         This parameter is kept for compatibility with other series.
 541:Drivers/STM32L4xx_HAL_Driver/Src/stm32l4xx_hal_exti.c ****   * @retval 1 if interrupt is pending else 0.
 542:Drivers/STM32L4xx_HAL_Driver/Src/stm32l4xx_hal_exti.c ****   */
 543:Drivers/STM32L4xx_HAL_Driver/Src/stm32l4xx_hal_exti.c **** uint32_t HAL_EXTI_GetPending(EXTI_HandleTypeDef *hexti, uint32_t Edge)
 544:Drivers/STM32L4xx_HAL_Driver/Src/stm32l4xx_hal_exti.c **** {
 727              		.loc 1 544 0
 728              		.cfi_startproc
 729              		@ args = 0, pretend = 0, frame = 0
 730              		@ frame_needed = 0, uses_anonymous_args = 0
 731              		@ link register save eliminated.
 732              	.LVL96:
 545:Drivers/STM32L4xx_HAL_Driver/Src/stm32l4xx_hal_exti.c ****   __IO uint32_t *regaddr;
 546:Drivers/STM32L4xx_HAL_Driver/Src/stm32l4xx_hal_exti.c ****   uint32_t regval;
 547:Drivers/STM32L4xx_HAL_Driver/Src/stm32l4xx_hal_exti.c ****   uint32_t linepos;
 548:Drivers/STM32L4xx_HAL_Driver/Src/stm32l4xx_hal_exti.c ****   uint32_t maskline;
 549:Drivers/STM32L4xx_HAL_Driver/Src/stm32l4xx_hal_exti.c ****   uint32_t offset;
 550:Drivers/STM32L4xx_HAL_Driver/Src/stm32l4xx_hal_exti.c **** 
 551:Drivers/STM32L4xx_HAL_Driver/Src/stm32l4xx_hal_exti.c ****   /* Check parameters */
 552:Drivers/STM32L4xx_HAL_Driver/Src/stm32l4xx_hal_exti.c ****   assert_param(IS_EXTI_LINE(hexti->Line));
 553:Drivers/STM32L4xx_HAL_Driver/Src/stm32l4xx_hal_exti.c ****   assert_param(IS_EXTI_CONFIG_LINE(hexti->Line));
 554:Drivers/STM32L4xx_HAL_Driver/Src/stm32l4xx_hal_exti.c ****   assert_param(IS_EXTI_PENDING_EDGE(Edge));
 555:Drivers/STM32L4xx_HAL_Driver/Src/stm32l4xx_hal_exti.c **** 
 556:Drivers/STM32L4xx_HAL_Driver/Src/stm32l4xx_hal_exti.c ****   /* Compute line register offset and line mask */
 557:Drivers/STM32L4xx_HAL_Driver/Src/stm32l4xx_hal_exti.c ****   offset = ((hexti->Line & EXTI_REG_MASK) >> EXTI_REG_SHIFT);
 733              		.loc 1 557 0
 734 0000 0368     		ldr	r3, [r0]
 735              	.LVL97:
 558:Drivers/STM32L4xx_HAL_Driver/Src/stm32l4xx_hal_exti.c ****   linepos = (hexti->Line & EXTI_PIN_MASK);
 559:Drivers/STM32L4xx_HAL_Driver/Src/stm32l4xx_hal_exti.c ****   maskline = (1uL << linepos);
 560:Drivers/STM32L4xx_HAL_Driver/Src/stm32l4xx_hal_exti.c **** 
 561:Drivers/STM32L4xx_HAL_Driver/Src/stm32l4xx_hal_exti.c ****   /* Get pending bit */
 562:Drivers/STM32L4xx_HAL_Driver/Src/stm32l4xx_hal_exti.c ****   regaddr = (&EXTI->PR1 + (EXTI_CONFIG_OFFSET * offset));
 736              		.loc 1 562 0
 737 0002 0649     		ldr	r1, .L76
 738              	.LVL98:
 557:Drivers/STM32L4xx_HAL_Driver/Src/stm32l4xx_hal_exti.c ****   linepos = (hexti->Line & EXTI_PIN_MASK);
 739              		.loc 1 557 0
 740 0004 C3F30042 		ubfx	r2, r3, #16, #1
 741              		.loc 1 562 0
 742 0008 5201     		lsls	r2, r2, #5
 558:Drivers/STM32L4xx_HAL_Driver/Src/stm32l4xx_hal_exti.c ****   linepos = (hexti->Line & EXTI_PIN_MASK);
 743              		.loc 1 558 0
 744 000a 03F01F03 		and	r3, r3, #31
 745              	.LVL99:
 563:Drivers/STM32L4xx_HAL_Driver/Src/stm32l4xx_hal_exti.c **** 
 564:Drivers/STM32L4xx_HAL_Driver/Src/stm32l4xx_hal_exti.c ****   /* return 1 if bit is set else 0 */
 565:Drivers/STM32L4xx_HAL_Driver/Src/stm32l4xx_hal_exti.c ****   regval = ((*regaddr & maskline) >> linepos);
 746              		.loc 1 565 0
 747 000e 5258     		ldr	r2, [r2, r1]
 748              	.LVL100:
 559:Drivers/STM32L4xx_HAL_Driver/Src/stm32l4xx_hal_exti.c **** 
 749              		.loc 1 559 0
 750 0010 0120     		movs	r0, #1
 751              	.LVL101:
 752 0012 9840     		lsls	r0, r0, r3
 753              	.LVL102:
ARM GAS  /tmp/cc03sstA.s 			page 25


 754              		.loc 1 565 0
 755 0014 1040     		ands	r0, r0, r2
 756              	.LVL103:
 566:Drivers/STM32L4xx_HAL_Driver/Src/stm32l4xx_hal_exti.c ****   return regval;
 567:Drivers/STM32L4xx_HAL_Driver/Src/stm32l4xx_hal_exti.c **** }
 757              		.loc 1 567 0
 758 0016 D840     		lsrs	r0, r0, r3
 759              	.LVL104:
 760 0018 7047     		bx	lr
 761              	.L77:
 762 001a 00BF     		.align	2
 763              	.L76:
 764 001c 14040140 		.word	1073808404
 765              		.cfi_endproc
 766              	.LFE136:
 768              		.section	.text.HAL_EXTI_ClearPending,"ax",%progbits
 769              		.align	1
 770              		.p2align 2,,3
 771              		.global	HAL_EXTI_ClearPending
 772              		.syntax unified
 773              		.thumb
 774              		.thumb_func
 775              		.fpu fpv4-sp-d16
 777              	HAL_EXTI_ClearPending:
 778              	.LFB137:
 568:Drivers/STM32L4xx_HAL_Driver/Src/stm32l4xx_hal_exti.c **** 
 569:Drivers/STM32L4xx_HAL_Driver/Src/stm32l4xx_hal_exti.c **** 
 570:Drivers/STM32L4xx_HAL_Driver/Src/stm32l4xx_hal_exti.c **** /**
 571:Drivers/STM32L4xx_HAL_Driver/Src/stm32l4xx_hal_exti.c ****   * @brief  Clear interrupt pending bit of a dedicated line.
 572:Drivers/STM32L4xx_HAL_Driver/Src/stm32l4xx_hal_exti.c ****   * @param  hexti Exti handle.
 573:Drivers/STM32L4xx_HAL_Driver/Src/stm32l4xx_hal_exti.c ****   * @param  Edge Specify which pending edge as to be clear.
 574:Drivers/STM32L4xx_HAL_Driver/Src/stm32l4xx_hal_exti.c ****   *         This parameter can be one of the following values:
 575:Drivers/STM32L4xx_HAL_Driver/Src/stm32l4xx_hal_exti.c ****   *           @arg @ref EXTI_TRIGGER_RISING_FALLING
 576:Drivers/STM32L4xx_HAL_Driver/Src/stm32l4xx_hal_exti.c ****   *         This parameter is kept for compatibility with other series.
 577:Drivers/STM32L4xx_HAL_Driver/Src/stm32l4xx_hal_exti.c ****   * @retval None.
 578:Drivers/STM32L4xx_HAL_Driver/Src/stm32l4xx_hal_exti.c ****   */
 579:Drivers/STM32L4xx_HAL_Driver/Src/stm32l4xx_hal_exti.c **** void HAL_EXTI_ClearPending(EXTI_HandleTypeDef *hexti, uint32_t Edge)
 580:Drivers/STM32L4xx_HAL_Driver/Src/stm32l4xx_hal_exti.c **** {
 779              		.loc 1 580 0
 780              		.cfi_startproc
 781              		@ args = 0, pretend = 0, frame = 0
 782              		@ frame_needed = 0, uses_anonymous_args = 0
 783              		@ link register save eliminated.
 784              	.LVL105:
 581:Drivers/STM32L4xx_HAL_Driver/Src/stm32l4xx_hal_exti.c ****   __IO uint32_t *regaddr;
 582:Drivers/STM32L4xx_HAL_Driver/Src/stm32l4xx_hal_exti.c ****   uint32_t maskline;
 583:Drivers/STM32L4xx_HAL_Driver/Src/stm32l4xx_hal_exti.c ****   uint32_t offset;
 584:Drivers/STM32L4xx_HAL_Driver/Src/stm32l4xx_hal_exti.c **** 
 585:Drivers/STM32L4xx_HAL_Driver/Src/stm32l4xx_hal_exti.c ****   /* Check parameters */
 586:Drivers/STM32L4xx_HAL_Driver/Src/stm32l4xx_hal_exti.c ****   assert_param(IS_EXTI_LINE(hexti->Line));
 587:Drivers/STM32L4xx_HAL_Driver/Src/stm32l4xx_hal_exti.c ****   assert_param(IS_EXTI_CONFIG_LINE(hexti->Line));
 588:Drivers/STM32L4xx_HAL_Driver/Src/stm32l4xx_hal_exti.c ****   assert_param(IS_EXTI_PENDING_EDGE(Edge));
 589:Drivers/STM32L4xx_HAL_Driver/Src/stm32l4xx_hal_exti.c **** 
 590:Drivers/STM32L4xx_HAL_Driver/Src/stm32l4xx_hal_exti.c ****   /* compute line register offset and line mask */
 591:Drivers/STM32L4xx_HAL_Driver/Src/stm32l4xx_hal_exti.c ****   offset = ((hexti->Line & EXTI_REG_MASK) >> EXTI_REG_SHIFT);
 785              		.loc 1 591 0
 786 0000 0368     		ldr	r3, [r0]
ARM GAS  /tmp/cc03sstA.s 			page 26


 787              	.LVL106:
 592:Drivers/STM32L4xx_HAL_Driver/Src/stm32l4xx_hal_exti.c ****   maskline = (1uL << (hexti->Line & EXTI_PIN_MASK));
 593:Drivers/STM32L4xx_HAL_Driver/Src/stm32l4xx_hal_exti.c **** 
 594:Drivers/STM32L4xx_HAL_Driver/Src/stm32l4xx_hal_exti.c ****   /* Get pending register address */
 595:Drivers/STM32L4xx_HAL_Driver/Src/stm32l4xx_hal_exti.c ****   regaddr = (&EXTI->PR1 + (EXTI_CONFIG_OFFSET * offset));
 788              		.loc 1 595 0
 789 0002 0548     		ldr	r0, .L79
 790              	.LVL107:
 591:Drivers/STM32L4xx_HAL_Driver/Src/stm32l4xx_hal_exti.c ****   maskline = (1uL << (hexti->Line & EXTI_PIN_MASK));
 791              		.loc 1 591 0
 792 0004 C3F30042 		ubfx	r2, r3, #16, #1
 793              		.loc 1 595 0
 794 0008 5201     		lsls	r2, r2, #5
 592:Drivers/STM32L4xx_HAL_Driver/Src/stm32l4xx_hal_exti.c ****   maskline = (1uL << (hexti->Line & EXTI_PIN_MASK));
 795              		.loc 1 592 0
 796 000a 03F01F03 		and	r3, r3, #31
 797              	.LVL108:
 798 000e 0121     		movs	r1, #1
 799              	.LVL109:
 800 0010 01FA03F3 		lsl	r3, r1, r3
 801              	.LVL110:
 596:Drivers/STM32L4xx_HAL_Driver/Src/stm32l4xx_hal_exti.c **** 
 597:Drivers/STM32L4xx_HAL_Driver/Src/stm32l4xx_hal_exti.c ****   /* Clear Pending bit */
 598:Drivers/STM32L4xx_HAL_Driver/Src/stm32l4xx_hal_exti.c ****   *regaddr =  maskline;
 802              		.loc 1 598 0
 803 0014 1350     		str	r3, [r2, r0]
 804              	.LVL111:
 805 0016 7047     		bx	lr
 806              	.L80:
 807              		.align	2
 808              	.L79:
 809 0018 14040140 		.word	1073808404
 810              		.cfi_endproc
 811              	.LFE137:
 813              		.section	.text.HAL_EXTI_GenerateSWI,"ax",%progbits
 814              		.align	1
 815              		.p2align 2,,3
 816              		.global	HAL_EXTI_GenerateSWI
 817              		.syntax unified
 818              		.thumb
 819              		.thumb_func
 820              		.fpu fpv4-sp-d16
 822              	HAL_EXTI_GenerateSWI:
 823              	.LFB138:
 599:Drivers/STM32L4xx_HAL_Driver/Src/stm32l4xx_hal_exti.c **** }
 600:Drivers/STM32L4xx_HAL_Driver/Src/stm32l4xx_hal_exti.c **** 
 601:Drivers/STM32L4xx_HAL_Driver/Src/stm32l4xx_hal_exti.c **** 
 602:Drivers/STM32L4xx_HAL_Driver/Src/stm32l4xx_hal_exti.c **** /**
 603:Drivers/STM32L4xx_HAL_Driver/Src/stm32l4xx_hal_exti.c ****   * @brief  Generate a software interrupt for a dedicated line.
 604:Drivers/STM32L4xx_HAL_Driver/Src/stm32l4xx_hal_exti.c ****   * @param  hexti Exti handle.
 605:Drivers/STM32L4xx_HAL_Driver/Src/stm32l4xx_hal_exti.c ****   * @retval None.
 606:Drivers/STM32L4xx_HAL_Driver/Src/stm32l4xx_hal_exti.c ****   */
 607:Drivers/STM32L4xx_HAL_Driver/Src/stm32l4xx_hal_exti.c **** void HAL_EXTI_GenerateSWI(EXTI_HandleTypeDef *hexti)
 608:Drivers/STM32L4xx_HAL_Driver/Src/stm32l4xx_hal_exti.c **** {
 824              		.loc 1 608 0
 825              		.cfi_startproc
 826              		@ args = 0, pretend = 0, frame = 0
ARM GAS  /tmp/cc03sstA.s 			page 27


 827              		@ frame_needed = 0, uses_anonymous_args = 0
 828              		@ link register save eliminated.
 829              	.LVL112:
 609:Drivers/STM32L4xx_HAL_Driver/Src/stm32l4xx_hal_exti.c ****   __IO uint32_t *regaddr;
 610:Drivers/STM32L4xx_HAL_Driver/Src/stm32l4xx_hal_exti.c ****   uint32_t maskline;
 611:Drivers/STM32L4xx_HAL_Driver/Src/stm32l4xx_hal_exti.c ****   uint32_t offset;
 612:Drivers/STM32L4xx_HAL_Driver/Src/stm32l4xx_hal_exti.c **** 
 613:Drivers/STM32L4xx_HAL_Driver/Src/stm32l4xx_hal_exti.c ****   /* Check parameters */
 614:Drivers/STM32L4xx_HAL_Driver/Src/stm32l4xx_hal_exti.c ****   assert_param(IS_EXTI_LINE(hexti->Line));
 615:Drivers/STM32L4xx_HAL_Driver/Src/stm32l4xx_hal_exti.c ****   assert_param(IS_EXTI_CONFIG_LINE(hexti->Line));
 616:Drivers/STM32L4xx_HAL_Driver/Src/stm32l4xx_hal_exti.c **** 
 617:Drivers/STM32L4xx_HAL_Driver/Src/stm32l4xx_hal_exti.c ****   /* compute line register offset and line mask */
 618:Drivers/STM32L4xx_HAL_Driver/Src/stm32l4xx_hal_exti.c ****   offset = ((hexti->Line & EXTI_REG_MASK) >> EXTI_REG_SHIFT);
 830              		.loc 1 618 0
 831 0000 0368     		ldr	r3, [r0]
 832              	.LVL113:
 619:Drivers/STM32L4xx_HAL_Driver/Src/stm32l4xx_hal_exti.c ****   maskline = (1uL << (hexti->Line & EXTI_PIN_MASK));
 620:Drivers/STM32L4xx_HAL_Driver/Src/stm32l4xx_hal_exti.c **** 
 621:Drivers/STM32L4xx_HAL_Driver/Src/stm32l4xx_hal_exti.c ****   regaddr = (&EXTI->SWIER1 + (EXTI_CONFIG_OFFSET * offset));
 833              		.loc 1 621 0
 834 0002 0548     		ldr	r0, .L82
 835              	.LVL114:
 618:Drivers/STM32L4xx_HAL_Driver/Src/stm32l4xx_hal_exti.c ****   maskline = (1uL << (hexti->Line & EXTI_PIN_MASK));
 836              		.loc 1 618 0
 837 0004 C3F30042 		ubfx	r2, r3, #16, #1
 838              		.loc 1 621 0
 839 0008 5201     		lsls	r2, r2, #5
 619:Drivers/STM32L4xx_HAL_Driver/Src/stm32l4xx_hal_exti.c ****   maskline = (1uL << (hexti->Line & EXTI_PIN_MASK));
 840              		.loc 1 619 0
 841 000a 03F01F03 		and	r3, r3, #31
 842              	.LVL115:
 843 000e 0121     		movs	r1, #1
 844 0010 01FA03F3 		lsl	r3, r1, r3
 845              	.LVL116:
 622:Drivers/STM32L4xx_HAL_Driver/Src/stm32l4xx_hal_exti.c ****   *regaddr = maskline;
 846              		.loc 1 622 0
 847 0014 1350     		str	r3, [r2, r0]
 848              	.LVL117:
 849 0016 7047     		bx	lr
 850              	.L83:
 851              		.align	2
 852              	.L82:
 853 0018 10040140 		.word	1073808400
 854              		.cfi_endproc
 855              	.LFE138:
 857              		.text
 858              	.Letext0:
 859              		.file 2 "/usr/include/newlib/machine/_default_types.h"
 860              		.file 3 "/usr/include/newlib/sys/_stdint.h"
 861              		.file 4 "Drivers/CMSIS/Include/core_cm4.h"
 862              		.file 5 "Drivers/CMSIS/Device/ST/STM32L4xx/Include/system_stm32l4xx.h"
 863              		.file 6 "Drivers/CMSIS/Device/ST/STM32L4xx/Include/stm32l475xx.h"
 864              		.file 7 "Drivers/STM32L4xx_HAL_Driver/Inc/stm32l4xx_hal_def.h"
 865              		.file 8 "Drivers/STM32L4xx_HAL_Driver/Inc/stm32l4xx_hal_exti.h"
 866              		.file 9 "Drivers/STM32L4xx_HAL_Driver/Inc/stm32l4xx_hal_flash.h"
 867              		.file 10 "Drivers/STM32L4xx_HAL_Driver/Inc/stm32l4xx_hal.h"
ARM GAS  /tmp/cc03sstA.s 			page 28

