ARM GAS  /tmp/ccByjmRO.s 			page 1


   1              		.cpu cortex-m4
   2              		.eabi_attribute 27, 1
   3              		.eabi_attribute 28, 1
   4              		.eabi_attribute 20, 1
   5              		.eabi_attribute 21, 1
   6              		.eabi_attribute 23, 3
   7              		.eabi_attribute 24, 1
   8              		.eabi_attribute 25, 1
   9              		.eabi_attribute 26, 1
  10              		.eabi_attribute 30, 2
  11              		.eabi_attribute 34, 1
  12              		.eabi_attribute 18, 4
  13              		.file	"stm32l4xx_hal_tim_ex.c"
  14              		.text
  15              	.Ltext0:
  16              		.cfi_sections	.debug_frame
  17              		.section	.text.HAL_TIMEx_HallSensor_MspInit,"ax",%progbits
  18              		.align	1
  19              		.p2align 2,,3
  20              		.weak	HAL_TIMEx_HallSensor_MspInit
  21              		.syntax unified
  22              		.thumb
  23              		.thumb_func
  24              		.fpu fpv4-sp-d16
  26              	HAL_TIMEx_HallSensor_MspInit:
  27              	.LFB187:
  28              		.cfi_startproc
  29              		@ args = 0, pretend = 0, frame = 0
  30              		@ frame_needed = 0, uses_anonymous_args = 0
  31              		@ link register save eliminated.
  32 0000 7047     		bx	lr
  33              		.cfi_endproc
  34              	.LFE187:
  36 0002 00BF     		.section	.text.HAL_TIMEx_HallSensor_Init,"ax",%progbits
  37              		.align	1
  38              		.p2align 2,,3
  39              		.global	HAL_TIMEx_HallSensor_Init
  40              		.syntax unified
  41              		.thumb
  42              		.thumb_func
  43              		.fpu fpv4-sp-d16
  45              	HAL_TIMEx_HallSensor_Init:
  46              	.LFB130:
  47              		.file 1 "Drivers/STM32L4xx_HAL_Driver/Src/stm32l4xx_hal_tim_ex.c"
   1:Drivers/STM32L4xx_HAL_Driver/Src/stm32l4xx_hal_tim_ex.c **** /**
   2:Drivers/STM32L4xx_HAL_Driver/Src/stm32l4xx_hal_tim_ex.c ****   ******************************************************************************
   3:Drivers/STM32L4xx_HAL_Driver/Src/stm32l4xx_hal_tim_ex.c ****   * @file    stm32l4xx_hal_tim_ex.c
   4:Drivers/STM32L4xx_HAL_Driver/Src/stm32l4xx_hal_tim_ex.c ****   * @author  MCD Application Team
   5:Drivers/STM32L4xx_HAL_Driver/Src/stm32l4xx_hal_tim_ex.c ****   * @brief   TIM HAL module driver.
   6:Drivers/STM32L4xx_HAL_Driver/Src/stm32l4xx_hal_tim_ex.c ****   *          This file provides firmware functions to manage the following
   7:Drivers/STM32L4xx_HAL_Driver/Src/stm32l4xx_hal_tim_ex.c ****   *          functionalities of the Timer Extended peripheral:
   8:Drivers/STM32L4xx_HAL_Driver/Src/stm32l4xx_hal_tim_ex.c ****   *           + Time Hall Sensor Interface Initialization
   9:Drivers/STM32L4xx_HAL_Driver/Src/stm32l4xx_hal_tim_ex.c ****   *           + Time Hall Sensor Interface Start
  10:Drivers/STM32L4xx_HAL_Driver/Src/stm32l4xx_hal_tim_ex.c ****   *           + Time Complementary signal break and dead time configuration
  11:Drivers/STM32L4xx_HAL_Driver/Src/stm32l4xx_hal_tim_ex.c ****   *           + Time Master and Slave synchronization configuration
  12:Drivers/STM32L4xx_HAL_Driver/Src/stm32l4xx_hal_tim_ex.c ****   *           + Time Output Compare/PWM Channel Configuration (for channels 5 and 6)
  13:Drivers/STM32L4xx_HAL_Driver/Src/stm32l4xx_hal_tim_ex.c ****   *           + Time OCRef clear configuration
ARM GAS  /tmp/ccByjmRO.s 			page 2


  14:Drivers/STM32L4xx_HAL_Driver/Src/stm32l4xx_hal_tim_ex.c ****   *           + Timer remapping capabilities configuration
  15:Drivers/STM32L4xx_HAL_Driver/Src/stm32l4xx_hal_tim_ex.c ****   @verbatim
  16:Drivers/STM32L4xx_HAL_Driver/Src/stm32l4xx_hal_tim_ex.c ****   ==============================================================================
  17:Drivers/STM32L4xx_HAL_Driver/Src/stm32l4xx_hal_tim_ex.c ****                       ##### TIMER Extended features #####
  18:Drivers/STM32L4xx_HAL_Driver/Src/stm32l4xx_hal_tim_ex.c ****   ==============================================================================
  19:Drivers/STM32L4xx_HAL_Driver/Src/stm32l4xx_hal_tim_ex.c ****   [..]
  20:Drivers/STM32L4xx_HAL_Driver/Src/stm32l4xx_hal_tim_ex.c ****     The Timer Extended features include:
  21:Drivers/STM32L4xx_HAL_Driver/Src/stm32l4xx_hal_tim_ex.c ****     (#) Complementary outputs with programmable dead-time for :
  22:Drivers/STM32L4xx_HAL_Driver/Src/stm32l4xx_hal_tim_ex.c ****         (++) Output Compare
  23:Drivers/STM32L4xx_HAL_Driver/Src/stm32l4xx_hal_tim_ex.c ****         (++) PWM generation (Edge and Center-aligned Mode)
  24:Drivers/STM32L4xx_HAL_Driver/Src/stm32l4xx_hal_tim_ex.c ****         (++) One-pulse mode output
  25:Drivers/STM32L4xx_HAL_Driver/Src/stm32l4xx_hal_tim_ex.c ****     (#) Synchronization circuit to control the timer with external signals and to
  26:Drivers/STM32L4xx_HAL_Driver/Src/stm32l4xx_hal_tim_ex.c ****         interconnect several timers together.
  27:Drivers/STM32L4xx_HAL_Driver/Src/stm32l4xx_hal_tim_ex.c ****     (#) Break input to put the timer output signals in reset state or in a known state.
  28:Drivers/STM32L4xx_HAL_Driver/Src/stm32l4xx_hal_tim_ex.c ****     (#) Supports incremental (quadrature) encoder and hall-sensor circuitry for
  29:Drivers/STM32L4xx_HAL_Driver/Src/stm32l4xx_hal_tim_ex.c ****         positioning purposes
  30:Drivers/STM32L4xx_HAL_Driver/Src/stm32l4xx_hal_tim_ex.c **** 
  31:Drivers/STM32L4xx_HAL_Driver/Src/stm32l4xx_hal_tim_ex.c ****             ##### How to use this driver #####
  32:Drivers/STM32L4xx_HAL_Driver/Src/stm32l4xx_hal_tim_ex.c ****   ==============================================================================
  33:Drivers/STM32L4xx_HAL_Driver/Src/stm32l4xx_hal_tim_ex.c ****     [..]
  34:Drivers/STM32L4xx_HAL_Driver/Src/stm32l4xx_hal_tim_ex.c ****      (#) Initialize the TIM low level resources by implementing the following functions
  35:Drivers/STM32L4xx_HAL_Driver/Src/stm32l4xx_hal_tim_ex.c ****          depending on the selected feature:
  36:Drivers/STM32L4xx_HAL_Driver/Src/stm32l4xx_hal_tim_ex.c ****            (++) Hall Sensor output : HAL_TIMEx_HallSensor_MspInit()
  37:Drivers/STM32L4xx_HAL_Driver/Src/stm32l4xx_hal_tim_ex.c **** 
  38:Drivers/STM32L4xx_HAL_Driver/Src/stm32l4xx_hal_tim_ex.c ****      (#) Initialize the TIM low level resources :
  39:Drivers/STM32L4xx_HAL_Driver/Src/stm32l4xx_hal_tim_ex.c ****         (##) Enable the TIM interface clock using __HAL_RCC_TIMx_CLK_ENABLE();
  40:Drivers/STM32L4xx_HAL_Driver/Src/stm32l4xx_hal_tim_ex.c ****         (##) TIM pins configuration
  41:Drivers/STM32L4xx_HAL_Driver/Src/stm32l4xx_hal_tim_ex.c ****             (+++) Enable the clock for the TIM GPIOs using the following function:
  42:Drivers/STM32L4xx_HAL_Driver/Src/stm32l4xx_hal_tim_ex.c ****               __HAL_RCC_GPIOx_CLK_ENABLE();
  43:Drivers/STM32L4xx_HAL_Driver/Src/stm32l4xx_hal_tim_ex.c ****             (+++) Configure these TIM pins in Alternate function mode using HAL_GPIO_Init();
  44:Drivers/STM32L4xx_HAL_Driver/Src/stm32l4xx_hal_tim_ex.c **** 
  45:Drivers/STM32L4xx_HAL_Driver/Src/stm32l4xx_hal_tim_ex.c ****      (#) The external Clock can be configured, if needed (the default clock is the
  46:Drivers/STM32L4xx_HAL_Driver/Src/stm32l4xx_hal_tim_ex.c ****          internal clock from the APBx), using the following function:
  47:Drivers/STM32L4xx_HAL_Driver/Src/stm32l4xx_hal_tim_ex.c ****          HAL_TIM_ConfigClockSource, the clock configuration should be done before
  48:Drivers/STM32L4xx_HAL_Driver/Src/stm32l4xx_hal_tim_ex.c ****          any start function.
  49:Drivers/STM32L4xx_HAL_Driver/Src/stm32l4xx_hal_tim_ex.c **** 
  50:Drivers/STM32L4xx_HAL_Driver/Src/stm32l4xx_hal_tim_ex.c ****      (#) Configure the TIM in the desired functioning mode using one of the
  51:Drivers/STM32L4xx_HAL_Driver/Src/stm32l4xx_hal_tim_ex.c ****          initialization function of this driver:
  52:Drivers/STM32L4xx_HAL_Driver/Src/stm32l4xx_hal_tim_ex.c ****           (++) HAL_TIMEx_HallSensor_Init() and HAL_TIMEx_ConfigCommutEvent(): to use the
  53:Drivers/STM32L4xx_HAL_Driver/Src/stm32l4xx_hal_tim_ex.c ****                Timer Hall Sensor Interface and the commutation event with the corresponding
  54:Drivers/STM32L4xx_HAL_Driver/Src/stm32l4xx_hal_tim_ex.c ****                Interrupt and DMA request if needed (Note that One Timer is used to interface
  55:Drivers/STM32L4xx_HAL_Driver/Src/stm32l4xx_hal_tim_ex.c ****                with the Hall sensor Interface and another Timer should be used to use
  56:Drivers/STM32L4xx_HAL_Driver/Src/stm32l4xx_hal_tim_ex.c ****                the commutation event).
  57:Drivers/STM32L4xx_HAL_Driver/Src/stm32l4xx_hal_tim_ex.c **** 
  58:Drivers/STM32L4xx_HAL_Driver/Src/stm32l4xx_hal_tim_ex.c ****      (#) Activate the TIM peripheral using one of the start functions:
  59:Drivers/STM32L4xx_HAL_Driver/Src/stm32l4xx_hal_tim_ex.c ****            (++) Complementary Output Compare : HAL_TIMEx_OCN_Start(), HAL_TIMEx_OCN_Start_DMA(), HA
  60:Drivers/STM32L4xx_HAL_Driver/Src/stm32l4xx_hal_tim_ex.c ****            (++) Complementary PWM generation : HAL_TIMEx_PWMN_Start(), HAL_TIMEx_PWMN_Start_DMA(), 
  61:Drivers/STM32L4xx_HAL_Driver/Src/stm32l4xx_hal_tim_ex.c ****            (++) Complementary One-pulse mode output : HAL_TIMEx_OnePulseN_Start(), HAL_TIMEx_OnePul
  62:Drivers/STM32L4xx_HAL_Driver/Src/stm32l4xx_hal_tim_ex.c ****            (++) Hall Sensor output : HAL_TIMEx_HallSensor_Start(), HAL_TIMEx_HallSensor_Start_DMA()
  63:Drivers/STM32L4xx_HAL_Driver/Src/stm32l4xx_hal_tim_ex.c **** 
  64:Drivers/STM32L4xx_HAL_Driver/Src/stm32l4xx_hal_tim_ex.c ****   @endverbatim
  65:Drivers/STM32L4xx_HAL_Driver/Src/stm32l4xx_hal_tim_ex.c ****   ******************************************************************************
  66:Drivers/STM32L4xx_HAL_Driver/Src/stm32l4xx_hal_tim_ex.c ****   * @attention
  67:Drivers/STM32L4xx_HAL_Driver/Src/stm32l4xx_hal_tim_ex.c ****   *
  68:Drivers/STM32L4xx_HAL_Driver/Src/stm32l4xx_hal_tim_ex.c ****   * <h2><center>&copy; Copyright (c) 2017 STMicroelectronics.
  69:Drivers/STM32L4xx_HAL_Driver/Src/stm32l4xx_hal_tim_ex.c ****   * All rights reserved.</center></h2>
  70:Drivers/STM32L4xx_HAL_Driver/Src/stm32l4xx_hal_tim_ex.c ****   *
ARM GAS  /tmp/ccByjmRO.s 			page 3


  71:Drivers/STM32L4xx_HAL_Driver/Src/stm32l4xx_hal_tim_ex.c ****   * This software component is licensed by ST under BSD 3-Clause license,
  72:Drivers/STM32L4xx_HAL_Driver/Src/stm32l4xx_hal_tim_ex.c ****   * the "License"; You may not use this file except in compliance with the
  73:Drivers/STM32L4xx_HAL_Driver/Src/stm32l4xx_hal_tim_ex.c ****   * License. You may obtain a copy of the License at:
  74:Drivers/STM32L4xx_HAL_Driver/Src/stm32l4xx_hal_tim_ex.c ****   *                        opensource.org/licenses/BSD-3-Clause
  75:Drivers/STM32L4xx_HAL_Driver/Src/stm32l4xx_hal_tim_ex.c ****   *
  76:Drivers/STM32L4xx_HAL_Driver/Src/stm32l4xx_hal_tim_ex.c ****   ******************************************************************************
  77:Drivers/STM32L4xx_HAL_Driver/Src/stm32l4xx_hal_tim_ex.c ****   */
  78:Drivers/STM32L4xx_HAL_Driver/Src/stm32l4xx_hal_tim_ex.c **** 
  79:Drivers/STM32L4xx_HAL_Driver/Src/stm32l4xx_hal_tim_ex.c **** /* Includes ------------------------------------------------------------------*/
  80:Drivers/STM32L4xx_HAL_Driver/Src/stm32l4xx_hal_tim_ex.c **** #include "stm32l4xx_hal.h"
  81:Drivers/STM32L4xx_HAL_Driver/Src/stm32l4xx_hal_tim_ex.c **** 
  82:Drivers/STM32L4xx_HAL_Driver/Src/stm32l4xx_hal_tim_ex.c **** /** @addtogroup STM32L4xx_HAL_Driver
  83:Drivers/STM32L4xx_HAL_Driver/Src/stm32l4xx_hal_tim_ex.c ****   * @{
  84:Drivers/STM32L4xx_HAL_Driver/Src/stm32l4xx_hal_tim_ex.c ****   */
  85:Drivers/STM32L4xx_HAL_Driver/Src/stm32l4xx_hal_tim_ex.c **** 
  86:Drivers/STM32L4xx_HAL_Driver/Src/stm32l4xx_hal_tim_ex.c **** /** @defgroup TIMEx TIMEx
  87:Drivers/STM32L4xx_HAL_Driver/Src/stm32l4xx_hal_tim_ex.c ****   * @brief TIM Extended HAL module driver
  88:Drivers/STM32L4xx_HAL_Driver/Src/stm32l4xx_hal_tim_ex.c ****   * @{
  89:Drivers/STM32L4xx_HAL_Driver/Src/stm32l4xx_hal_tim_ex.c ****   */
  90:Drivers/STM32L4xx_HAL_Driver/Src/stm32l4xx_hal_tim_ex.c **** 
  91:Drivers/STM32L4xx_HAL_Driver/Src/stm32l4xx_hal_tim_ex.c **** #ifdef HAL_TIM_MODULE_ENABLED
  92:Drivers/STM32L4xx_HAL_Driver/Src/stm32l4xx_hal_tim_ex.c **** 
  93:Drivers/STM32L4xx_HAL_Driver/Src/stm32l4xx_hal_tim_ex.c **** /* Private typedef -----------------------------------------------------------*/
  94:Drivers/STM32L4xx_HAL_Driver/Src/stm32l4xx_hal_tim_ex.c **** /* Private define ------------------------------------------------------------*/
  95:Drivers/STM32L4xx_HAL_Driver/Src/stm32l4xx_hal_tim_ex.c **** /* Private macro -------------------------------------------------------------*/
  96:Drivers/STM32L4xx_HAL_Driver/Src/stm32l4xx_hal_tim_ex.c **** /* Private variables ---------------------------------------------------------*/
  97:Drivers/STM32L4xx_HAL_Driver/Src/stm32l4xx_hal_tim_ex.c **** /* Private function prototypes -----------------------------------------------*/
  98:Drivers/STM32L4xx_HAL_Driver/Src/stm32l4xx_hal_tim_ex.c **** static void TIM_CCxNChannelCmd(TIM_TypeDef *TIMx, uint32_t Channel, uint32_t ChannelNState);
  99:Drivers/STM32L4xx_HAL_Driver/Src/stm32l4xx_hal_tim_ex.c **** 
 100:Drivers/STM32L4xx_HAL_Driver/Src/stm32l4xx_hal_tim_ex.c **** /* Exported functions --------------------------------------------------------*/
 101:Drivers/STM32L4xx_HAL_Driver/Src/stm32l4xx_hal_tim_ex.c **** /** @defgroup TIMEx_Exported_Functions TIM Extended Exported Functions
 102:Drivers/STM32L4xx_HAL_Driver/Src/stm32l4xx_hal_tim_ex.c ****   * @{
 103:Drivers/STM32L4xx_HAL_Driver/Src/stm32l4xx_hal_tim_ex.c ****   */
 104:Drivers/STM32L4xx_HAL_Driver/Src/stm32l4xx_hal_tim_ex.c **** 
 105:Drivers/STM32L4xx_HAL_Driver/Src/stm32l4xx_hal_tim_ex.c **** /** @defgroup TIMEx_Exported_Functions_Group1 Extended Timer Hall Sensor functions
 106:Drivers/STM32L4xx_HAL_Driver/Src/stm32l4xx_hal_tim_ex.c ****   * @brief    Timer Hall Sensor functions
 107:Drivers/STM32L4xx_HAL_Driver/Src/stm32l4xx_hal_tim_ex.c ****   *
 108:Drivers/STM32L4xx_HAL_Driver/Src/stm32l4xx_hal_tim_ex.c **** @verbatim
 109:Drivers/STM32L4xx_HAL_Driver/Src/stm32l4xx_hal_tim_ex.c ****   ==============================================================================
 110:Drivers/STM32L4xx_HAL_Driver/Src/stm32l4xx_hal_tim_ex.c ****                       ##### Timer Hall Sensor functions #####
 111:Drivers/STM32L4xx_HAL_Driver/Src/stm32l4xx_hal_tim_ex.c ****   ==============================================================================
 112:Drivers/STM32L4xx_HAL_Driver/Src/stm32l4xx_hal_tim_ex.c ****   [..]
 113:Drivers/STM32L4xx_HAL_Driver/Src/stm32l4xx_hal_tim_ex.c ****     This section provides functions allowing to:
 114:Drivers/STM32L4xx_HAL_Driver/Src/stm32l4xx_hal_tim_ex.c ****     (+) Initialize and configure TIM HAL Sensor.
 115:Drivers/STM32L4xx_HAL_Driver/Src/stm32l4xx_hal_tim_ex.c ****     (+) De-initialize TIM HAL Sensor.
 116:Drivers/STM32L4xx_HAL_Driver/Src/stm32l4xx_hal_tim_ex.c ****     (+) Start the Hall Sensor Interface.
 117:Drivers/STM32L4xx_HAL_Driver/Src/stm32l4xx_hal_tim_ex.c ****     (+) Stop the Hall Sensor Interface.
 118:Drivers/STM32L4xx_HAL_Driver/Src/stm32l4xx_hal_tim_ex.c ****     (+) Start the Hall Sensor Interface and enable interrupts.
 119:Drivers/STM32L4xx_HAL_Driver/Src/stm32l4xx_hal_tim_ex.c ****     (+) Stop the Hall Sensor Interface and disable interrupts.
 120:Drivers/STM32L4xx_HAL_Driver/Src/stm32l4xx_hal_tim_ex.c ****     (+) Start the Hall Sensor Interface and enable DMA transfers.
 121:Drivers/STM32L4xx_HAL_Driver/Src/stm32l4xx_hal_tim_ex.c ****     (+) Stop the Hall Sensor Interface and disable DMA transfers.
 122:Drivers/STM32L4xx_HAL_Driver/Src/stm32l4xx_hal_tim_ex.c **** 
 123:Drivers/STM32L4xx_HAL_Driver/Src/stm32l4xx_hal_tim_ex.c **** @endverbatim
 124:Drivers/STM32L4xx_HAL_Driver/Src/stm32l4xx_hal_tim_ex.c ****   * @{
 125:Drivers/STM32L4xx_HAL_Driver/Src/stm32l4xx_hal_tim_ex.c ****   */
 126:Drivers/STM32L4xx_HAL_Driver/Src/stm32l4xx_hal_tim_ex.c **** /**
 127:Drivers/STM32L4xx_HAL_Driver/Src/stm32l4xx_hal_tim_ex.c ****   * @brief  Initializes the TIM Hall Sensor Interface and initialize the associated handle.
ARM GAS  /tmp/ccByjmRO.s 			page 4


 128:Drivers/STM32L4xx_HAL_Driver/Src/stm32l4xx_hal_tim_ex.c ****   * @param  htim TIM Hall Sensor Interface handle
 129:Drivers/STM32L4xx_HAL_Driver/Src/stm32l4xx_hal_tim_ex.c ****   * @param  sConfig TIM Hall Sensor configuration structure
 130:Drivers/STM32L4xx_HAL_Driver/Src/stm32l4xx_hal_tim_ex.c ****   * @retval HAL status
 131:Drivers/STM32L4xx_HAL_Driver/Src/stm32l4xx_hal_tim_ex.c ****   */
 132:Drivers/STM32L4xx_HAL_Driver/Src/stm32l4xx_hal_tim_ex.c **** HAL_StatusTypeDef HAL_TIMEx_HallSensor_Init(TIM_HandleTypeDef *htim, TIM_HallSensor_InitTypeDef *sC
 133:Drivers/STM32L4xx_HAL_Driver/Src/stm32l4xx_hal_tim_ex.c **** {
  48              		.loc 1 133 0
  49              		.cfi_startproc
  50              		@ args = 0, pretend = 0, frame = 32
  51              		@ frame_needed = 0, uses_anonymous_args = 0
  52              	.LVL0:
 134:Drivers/STM32L4xx_HAL_Driver/Src/stm32l4xx_hal_tim_ex.c ****   TIM_OC_InitTypeDef OC_Config;
 135:Drivers/STM32L4xx_HAL_Driver/Src/stm32l4xx_hal_tim_ex.c **** 
 136:Drivers/STM32L4xx_HAL_Driver/Src/stm32l4xx_hal_tim_ex.c ****   /* Check the TIM handle allocation */
 137:Drivers/STM32L4xx_HAL_Driver/Src/stm32l4xx_hal_tim_ex.c ****   if (htim == NULL)
  53              		.loc 1 137 0
  54 0000 0028     		cmp	r0, #0
  55 0002 56D0     		beq	.L5
 133:Drivers/STM32L4xx_HAL_Driver/Src/stm32l4xx_hal_tim_ex.c ****   TIM_OC_InitTypeDef OC_Config;
  56              		.loc 1 133 0
  57 0004 70B5     		push	{r4, r5, r6, lr}
  58              	.LCFI0:
  59              		.cfi_def_cfa_offset 16
  60              		.cfi_offset 4, -16
  61              		.cfi_offset 5, -12
  62              		.cfi_offset 6, -8
  63              		.cfi_offset 14, -4
 138:Drivers/STM32L4xx_HAL_Driver/Src/stm32l4xx_hal_tim_ex.c ****   {
 139:Drivers/STM32L4xx_HAL_Driver/Src/stm32l4xx_hal_tim_ex.c ****     return HAL_ERROR;
 140:Drivers/STM32L4xx_HAL_Driver/Src/stm32l4xx_hal_tim_ex.c ****   }
 141:Drivers/STM32L4xx_HAL_Driver/Src/stm32l4xx_hal_tim_ex.c **** 
 142:Drivers/STM32L4xx_HAL_Driver/Src/stm32l4xx_hal_tim_ex.c ****   /* Check the parameters */
 143:Drivers/STM32L4xx_HAL_Driver/Src/stm32l4xx_hal_tim_ex.c ****   assert_param(IS_TIM_HALL_SENSOR_INTERFACE_INSTANCE(htim->Instance));
 144:Drivers/STM32L4xx_HAL_Driver/Src/stm32l4xx_hal_tim_ex.c ****   assert_param(IS_TIM_COUNTER_MODE(htim->Init.CounterMode));
 145:Drivers/STM32L4xx_HAL_Driver/Src/stm32l4xx_hal_tim_ex.c ****   assert_param(IS_TIM_CLOCKDIVISION_DIV(htim->Init.ClockDivision));
 146:Drivers/STM32L4xx_HAL_Driver/Src/stm32l4xx_hal_tim_ex.c ****   assert_param(IS_TIM_AUTORELOAD_PRELOAD(htim->Init.AutoReloadPreload));
 147:Drivers/STM32L4xx_HAL_Driver/Src/stm32l4xx_hal_tim_ex.c ****   assert_param(IS_TIM_IC_POLARITY(sConfig->IC1Polarity));
 148:Drivers/STM32L4xx_HAL_Driver/Src/stm32l4xx_hal_tim_ex.c ****   assert_param(IS_TIM_IC_PRESCALER(sConfig->IC1Prescaler));
 149:Drivers/STM32L4xx_HAL_Driver/Src/stm32l4xx_hal_tim_ex.c ****   assert_param(IS_TIM_IC_FILTER(sConfig->IC1Filter));
 150:Drivers/STM32L4xx_HAL_Driver/Src/stm32l4xx_hal_tim_ex.c **** 
 151:Drivers/STM32L4xx_HAL_Driver/Src/stm32l4xx_hal_tim_ex.c ****   if (htim->State == HAL_TIM_STATE_RESET)
  64              		.loc 1 151 0
  65 0006 90F83D30 		ldrb	r3, [r0, #61]	@ zero_extendqisi2
 133:Drivers/STM32L4xx_HAL_Driver/Src/stm32l4xx_hal_tim_ex.c ****   TIM_OC_InitTypeDef OC_Config;
  66              		.loc 1 133 0
  67 000a 88B0     		sub	sp, sp, #32
  68              	.LCFI1:
  69              		.cfi_def_cfa_offset 48
  70 000c 0446     		mov	r4, r0
  71 000e 0D46     		mov	r5, r1
  72              		.loc 1 151 0
  73 0010 03F0FF02 		and	r2, r3, #255
  74 0014 002B     		cmp	r3, #0
  75 0016 47D0     		beq	.L11
  76              	.LVL1:
  77              	.L4:
 152:Drivers/STM32L4xx_HAL_Driver/Src/stm32l4xx_hal_tim_ex.c ****   {
ARM GAS  /tmp/ccByjmRO.s 			page 5


 153:Drivers/STM32L4xx_HAL_Driver/Src/stm32l4xx_hal_tim_ex.c ****     /* Allocate lock resource and initialize it */
 154:Drivers/STM32L4xx_HAL_Driver/Src/stm32l4xx_hal_tim_ex.c ****     htim->Lock = HAL_UNLOCKED;
 155:Drivers/STM32L4xx_HAL_Driver/Src/stm32l4xx_hal_tim_ex.c **** 
 156:Drivers/STM32L4xx_HAL_Driver/Src/stm32l4xx_hal_tim_ex.c **** #if (USE_HAL_TIM_REGISTER_CALLBACKS == 1)
 157:Drivers/STM32L4xx_HAL_Driver/Src/stm32l4xx_hal_tim_ex.c ****     /* Reset interrupt callbacks to legacy week callbacks */
 158:Drivers/STM32L4xx_HAL_Driver/Src/stm32l4xx_hal_tim_ex.c ****     TIM_ResetCallback(htim);
 159:Drivers/STM32L4xx_HAL_Driver/Src/stm32l4xx_hal_tim_ex.c **** 
 160:Drivers/STM32L4xx_HAL_Driver/Src/stm32l4xx_hal_tim_ex.c ****     if (htim->HallSensor_MspInitCallback == NULL)
 161:Drivers/STM32L4xx_HAL_Driver/Src/stm32l4xx_hal_tim_ex.c ****     {
 162:Drivers/STM32L4xx_HAL_Driver/Src/stm32l4xx_hal_tim_ex.c ****       htim->HallSensor_MspInitCallback = HAL_TIMEx_HallSensor_MspInit;
 163:Drivers/STM32L4xx_HAL_Driver/Src/stm32l4xx_hal_tim_ex.c ****     }
 164:Drivers/STM32L4xx_HAL_Driver/Src/stm32l4xx_hal_tim_ex.c ****     /* Init the low level hardware : GPIO, CLOCK, NVIC */
 165:Drivers/STM32L4xx_HAL_Driver/Src/stm32l4xx_hal_tim_ex.c ****     htim->HallSensor_MspInitCallback(htim);
 166:Drivers/STM32L4xx_HAL_Driver/Src/stm32l4xx_hal_tim_ex.c **** #else
 167:Drivers/STM32L4xx_HAL_Driver/Src/stm32l4xx_hal_tim_ex.c ****     /* Init the low level hardware : GPIO, CLOCK, NVIC and DMA */
 168:Drivers/STM32L4xx_HAL_Driver/Src/stm32l4xx_hal_tim_ex.c ****     HAL_TIMEx_HallSensor_MspInit(htim);
 169:Drivers/STM32L4xx_HAL_Driver/Src/stm32l4xx_hal_tim_ex.c **** #endif /* USE_HAL_TIM_REGISTER_CALLBACKS */
 170:Drivers/STM32L4xx_HAL_Driver/Src/stm32l4xx_hal_tim_ex.c ****   }
 171:Drivers/STM32L4xx_HAL_Driver/Src/stm32l4xx_hal_tim_ex.c **** 
 172:Drivers/STM32L4xx_HAL_Driver/Src/stm32l4xx_hal_tim_ex.c ****   /* Set the TIM state */
 173:Drivers/STM32L4xx_HAL_Driver/Src/stm32l4xx_hal_tim_ex.c ****   htim->State = HAL_TIM_STATE_BUSY;
  78              		.loc 1 173 0
  79 0018 0223     		movs	r3, #2
  80 001a 84F83D30 		strb	r3, [r4, #61]
 174:Drivers/STM32L4xx_HAL_Driver/Src/stm32l4xx_hal_tim_ex.c **** 
 175:Drivers/STM32L4xx_HAL_Driver/Src/stm32l4xx_hal_tim_ex.c ****   /* Configure the Time base in the Encoder Mode */
 176:Drivers/STM32L4xx_HAL_Driver/Src/stm32l4xx_hal_tim_ex.c ****   TIM_Base_SetConfig(htim->Instance, &htim->Init);
  81              		.loc 1 176 0
  82 001e 211D     		adds	r1, r4, #4
  83 0020 2068     		ldr	r0, [r4]
  84 0022 FFF7FEFF 		bl	TIM_Base_SetConfig
  85              	.LVL2:
 177:Drivers/STM32L4xx_HAL_Driver/Src/stm32l4xx_hal_tim_ex.c **** 
 178:Drivers/STM32L4xx_HAL_Driver/Src/stm32l4xx_hal_tim_ex.c ****   /* Configure the Channel 1 as Input Channel to interface with the three Outputs of the  Hall sens
 179:Drivers/STM32L4xx_HAL_Driver/Src/stm32l4xx_hal_tim_ex.c ****   TIM_TI1_SetConfig(htim->Instance, sConfig->IC1Polarity, TIM_ICSELECTION_TRC, sConfig->IC1Filter);
  86              		.loc 1 179 0
  87 0026 AB68     		ldr	r3, [r5, #8]
  88 0028 2968     		ldr	r1, [r5]
  89 002a 2068     		ldr	r0, [r4]
  90 002c 0322     		movs	r2, #3
  91 002e FFF7FEFF 		bl	TIM_TI1_SetConfig
  92              	.LVL3:
 180:Drivers/STM32L4xx_HAL_Driver/Src/stm32l4xx_hal_tim_ex.c **** 
 181:Drivers/STM32L4xx_HAL_Driver/Src/stm32l4xx_hal_tim_ex.c ****   /* Reset the IC1PSC Bits */
 182:Drivers/STM32L4xx_HAL_Driver/Src/stm32l4xx_hal_tim_ex.c ****   htim->Instance->CCMR1 &= ~TIM_CCMR1_IC1PSC;
  93              		.loc 1 182 0
  94 0032 2068     		ldr	r0, [r4]
 183:Drivers/STM32L4xx_HAL_Driver/Src/stm32l4xx_hal_tim_ex.c ****   /* Set the IC1PSC value */
 184:Drivers/STM32L4xx_HAL_Driver/Src/stm32l4xx_hal_tim_ex.c ****   htim->Instance->CCMR1 |= sConfig->IC1Prescaler;
  95              		.loc 1 184 0
  96 0034 6E68     		ldr	r6, [r5, #4]
 182:Drivers/STM32L4xx_HAL_Driver/Src/stm32l4xx_hal_tim_ex.c ****   /* Set the IC1PSC value */
  97              		.loc 1 182 0
  98 0036 8269     		ldr	r2, [r0, #24]
 185:Drivers/STM32L4xx_HAL_Driver/Src/stm32l4xx_hal_tim_ex.c **** 
 186:Drivers/STM32L4xx_HAL_Driver/Src/stm32l4xx_hal_tim_ex.c ****   /* Enable the Hall sensor interface (XOR function of the three inputs) */
 187:Drivers/STM32L4xx_HAL_Driver/Src/stm32l4xx_hal_tim_ex.c ****   htim->Instance->CR2 |= TIM_CR2_TI1S;
ARM GAS  /tmp/ccByjmRO.s 			page 6


 188:Drivers/STM32L4xx_HAL_Driver/Src/stm32l4xx_hal_tim_ex.c **** 
 189:Drivers/STM32L4xx_HAL_Driver/Src/stm32l4xx_hal_tim_ex.c ****   /* Select the TIM_TS_TI1F_ED signal as Input trigger for the TIM */
 190:Drivers/STM32L4xx_HAL_Driver/Src/stm32l4xx_hal_tim_ex.c ****   htim->Instance->SMCR &= ~TIM_SMCR_TS;
 191:Drivers/STM32L4xx_HAL_Driver/Src/stm32l4xx_hal_tim_ex.c ****   htim->Instance->SMCR |= TIM_TS_TI1F_ED;
 192:Drivers/STM32L4xx_HAL_Driver/Src/stm32l4xx_hal_tim_ex.c **** 
 193:Drivers/STM32L4xx_HAL_Driver/Src/stm32l4xx_hal_tim_ex.c ****   /* Use the TIM_TS_TI1F_ED signal to reset the TIM counter each edge detection */
 194:Drivers/STM32L4xx_HAL_Driver/Src/stm32l4xx_hal_tim_ex.c ****   htim->Instance->SMCR &= ~TIM_SMCR_SMS;
 195:Drivers/STM32L4xx_HAL_Driver/Src/stm32l4xx_hal_tim_ex.c ****   htim->Instance->SMCR |= TIM_SLAVEMODE_RESET;
 196:Drivers/STM32L4xx_HAL_Driver/Src/stm32l4xx_hal_tim_ex.c **** 
 197:Drivers/STM32L4xx_HAL_Driver/Src/stm32l4xx_hal_tim_ex.c ****   /* Program channel 2 in PWM 2 mode with the desired Commutation_Delay*/
 198:Drivers/STM32L4xx_HAL_Driver/Src/stm32l4xx_hal_tim_ex.c ****   OC_Config.OCFastMode = TIM_OCFAST_DISABLE;
 199:Drivers/STM32L4xx_HAL_Driver/Src/stm32l4xx_hal_tim_ex.c ****   OC_Config.OCIdleState = TIM_OCIDLESTATE_RESET;
 200:Drivers/STM32L4xx_HAL_Driver/Src/stm32l4xx_hal_tim_ex.c ****   OC_Config.OCMode = TIM_OCMODE_PWM2;
 201:Drivers/STM32L4xx_HAL_Driver/Src/stm32l4xx_hal_tim_ex.c ****   OC_Config.OCNIdleState = TIM_OCNIDLESTATE_RESET;
 202:Drivers/STM32L4xx_HAL_Driver/Src/stm32l4xx_hal_tim_ex.c ****   OC_Config.OCNPolarity = TIM_OCNPOLARITY_HIGH;
 203:Drivers/STM32L4xx_HAL_Driver/Src/stm32l4xx_hal_tim_ex.c ****   OC_Config.OCPolarity = TIM_OCPOLARITY_HIGH;
 204:Drivers/STM32L4xx_HAL_Driver/Src/stm32l4xx_hal_tim_ex.c ****   OC_Config.Pulse = sConfig->Commutation_Delay;
  99              		.loc 1 204 0
 100 0038 E968     		ldr	r1, [r5, #12]
 182:Drivers/STM32L4xx_HAL_Driver/Src/stm32l4xx_hal_tim_ex.c ****   /* Set the IC1PSC value */
 101              		.loc 1 182 0
 102 003a 22F00C02 		bic	r2, r2, #12
 103 003e 8261     		str	r2, [r0, #24]
 184:Drivers/STM32L4xx_HAL_Driver/Src/stm32l4xx_hal_tim_ex.c **** 
 104              		.loc 1 184 0
 105 0040 8369     		ldr	r3, [r0, #24]
 106 0042 3343     		orrs	r3, r3, r6
 107 0044 8361     		str	r3, [r0, #24]
 187:Drivers/STM32L4xx_HAL_Driver/Src/stm32l4xx_hal_tim_ex.c **** 
 108              		.loc 1 187 0
 109 0046 4368     		ldr	r3, [r0, #4]
 110 0048 43F08003 		orr	r3, r3, #128
 111 004c 4360     		str	r3, [r0, #4]
 190:Drivers/STM32L4xx_HAL_Driver/Src/stm32l4xx_hal_tim_ex.c ****   htim->Instance->SMCR |= TIM_TS_TI1F_ED;
 112              		.loc 1 190 0
 113 004e 8368     		ldr	r3, [r0, #8]
 114              		.loc 1 204 0
 115 0050 0291     		str	r1, [sp, #8]
 190:Drivers/STM32L4xx_HAL_Driver/Src/stm32l4xx_hal_tim_ex.c ****   htim->Instance->SMCR |= TIM_TS_TI1F_ED;
 116              		.loc 1 190 0
 117 0052 23F07003 		bic	r3, r3, #112
 118 0056 8360     		str	r3, [r0, #8]
 191:Drivers/STM32L4xx_HAL_Driver/Src/stm32l4xx_hal_tim_ex.c **** 
 119              		.loc 1 191 0
 120 0058 8368     		ldr	r3, [r0, #8]
 121 005a 43F04003 		orr	r3, r3, #64
 122 005e 8360     		str	r3, [r0, #8]
 194:Drivers/STM32L4xx_HAL_Driver/Src/stm32l4xx_hal_tim_ex.c ****   htim->Instance->SMCR |= TIM_SLAVEMODE_RESET;
 123              		.loc 1 194 0
 124 0060 8368     		ldr	r3, [r0, #8]
 125 0062 23F48033 		bic	r3, r3, #65536
 126 0066 23F00703 		bic	r3, r3, #7
 127 006a 8360     		str	r3, [r0, #8]
 195:Drivers/STM32L4xx_HAL_Driver/Src/stm32l4xx_hal_tim_ex.c **** 
 128              		.loc 1 195 0
 129 006c 8368     		ldr	r3, [r0, #8]
 130 006e 43F00403 		orr	r3, r3, #4
ARM GAS  /tmp/ccByjmRO.s 			page 7


 131 0072 8360     		str	r3, [r0, #8]
 198:Drivers/STM32L4xx_HAL_Driver/Src/stm32l4xx_hal_tim_ex.c ****   OC_Config.OCIdleState = TIM_OCIDLESTATE_RESET;
 132              		.loc 1 198 0
 133 0074 0025     		movs	r5, #0
 134              	.LVL4:
 200:Drivers/STM32L4xx_HAL_Driver/Src/stm32l4xx_hal_tim_ex.c ****   OC_Config.OCNIdleState = TIM_OCNIDLESTATE_RESET;
 135              		.loc 1 200 0
 136 0076 7023     		movs	r3, #112
 205:Drivers/STM32L4xx_HAL_Driver/Src/stm32l4xx_hal_tim_ex.c **** 
 206:Drivers/STM32L4xx_HAL_Driver/Src/stm32l4xx_hal_tim_ex.c ****   TIM_OC2_SetConfig(htim->Instance, &OC_Config);
 137              		.loc 1 206 0
 138 0078 01A9     		add	r1, sp, #4
 200:Drivers/STM32L4xx_HAL_Driver/Src/stm32l4xx_hal_tim_ex.c ****   OC_Config.OCNIdleState = TIM_OCNIDLESTATE_RESET;
 139              		.loc 1 200 0
 140 007a 0193     		str	r3, [sp, #4]
 198:Drivers/STM32L4xx_HAL_Driver/Src/stm32l4xx_hal_tim_ex.c ****   OC_Config.OCIdleState = TIM_OCIDLESTATE_RESET;
 141              		.loc 1 198 0
 142 007c 0595     		str	r5, [sp, #20]
 199:Drivers/STM32L4xx_HAL_Driver/Src/stm32l4xx_hal_tim_ex.c ****   OC_Config.OCMode = TIM_OCMODE_PWM2;
 143              		.loc 1 199 0
 144 007e 0695     		str	r5, [sp, #24]
 201:Drivers/STM32L4xx_HAL_Driver/Src/stm32l4xx_hal_tim_ex.c ****   OC_Config.OCNPolarity = TIM_OCNPOLARITY_HIGH;
 145              		.loc 1 201 0
 146 0080 0795     		str	r5, [sp, #28]
 202:Drivers/STM32L4xx_HAL_Driver/Src/stm32l4xx_hal_tim_ex.c ****   OC_Config.OCPolarity = TIM_OCPOLARITY_HIGH;
 147              		.loc 1 202 0
 148 0082 0495     		str	r5, [sp, #16]
 203:Drivers/STM32L4xx_HAL_Driver/Src/stm32l4xx_hal_tim_ex.c ****   OC_Config.Pulse = sConfig->Commutation_Delay;
 149              		.loc 1 203 0
 150 0084 0395     		str	r5, [sp, #12]
 151              		.loc 1 206 0
 152 0086 FFF7FEFF 		bl	TIM_OC2_SetConfig
 153              	.LVL5:
 207:Drivers/STM32L4xx_HAL_Driver/Src/stm32l4xx_hal_tim_ex.c **** 
 208:Drivers/STM32L4xx_HAL_Driver/Src/stm32l4xx_hal_tim_ex.c ****   /* Select OC2REF as trigger output on TRGO: write the MMS bits in the TIMx_CR2
 209:Drivers/STM32L4xx_HAL_Driver/Src/stm32l4xx_hal_tim_ex.c ****     register to 101 */
 210:Drivers/STM32L4xx_HAL_Driver/Src/stm32l4xx_hal_tim_ex.c ****   htim->Instance->CR2 &= ~TIM_CR2_MMS;
 154              		.loc 1 210 0
 155 008a 2368     		ldr	r3, [r4]
 156 008c 5A68     		ldr	r2, [r3, #4]
 157 008e 22F07002 		bic	r2, r2, #112
 158 0092 5A60     		str	r2, [r3, #4]
 211:Drivers/STM32L4xx_HAL_Driver/Src/stm32l4xx_hal_tim_ex.c ****   htim->Instance->CR2 |= TIM_TRGO_OC2REF;
 159              		.loc 1 211 0
 160 0094 5A68     		ldr	r2, [r3, #4]
 212:Drivers/STM32L4xx_HAL_Driver/Src/stm32l4xx_hal_tim_ex.c **** 
 213:Drivers/STM32L4xx_HAL_Driver/Src/stm32l4xx_hal_tim_ex.c ****   /* Initialize the TIM state*/
 214:Drivers/STM32L4xx_HAL_Driver/Src/stm32l4xx_hal_tim_ex.c ****   htim->State = HAL_TIM_STATE_READY;
 161              		.loc 1 214 0
 162 0096 0121     		movs	r1, #1
 211:Drivers/STM32L4xx_HAL_Driver/Src/stm32l4xx_hal_tim_ex.c ****   htim->Instance->CR2 |= TIM_TRGO_OC2REF;
 163              		.loc 1 211 0
 164 0098 42F05002 		orr	r2, r2, #80
 215:Drivers/STM32L4xx_HAL_Driver/Src/stm32l4xx_hal_tim_ex.c **** 
 216:Drivers/STM32L4xx_HAL_Driver/Src/stm32l4xx_hal_tim_ex.c ****   return HAL_OK;
 165              		.loc 1 216 0
 166 009c 2846     		mov	r0, r5
ARM GAS  /tmp/ccByjmRO.s 			page 8


 211:Drivers/STM32L4xx_HAL_Driver/Src/stm32l4xx_hal_tim_ex.c **** 
 167              		.loc 1 211 0
 168 009e 5A60     		str	r2, [r3, #4]
 214:Drivers/STM32L4xx_HAL_Driver/Src/stm32l4xx_hal_tim_ex.c **** 
 169              		.loc 1 214 0
 170 00a0 84F83D10 		strb	r1, [r4, #61]
 217:Drivers/STM32L4xx_HAL_Driver/Src/stm32l4xx_hal_tim_ex.c **** }
 171              		.loc 1 217 0
 172 00a4 08B0     		add	sp, sp, #32
 173              	.LCFI2:
 174              		.cfi_remember_state
 175              		.cfi_def_cfa_offset 16
 176              		@ sp needed
 177 00a6 70BD     		pop	{r4, r5, r6, pc}
 178              	.LVL6:
 179              	.L11:
 180              	.LCFI3:
 181              		.cfi_restore_state
 154:Drivers/STM32L4xx_HAL_Driver/Src/stm32l4xx_hal_tim_ex.c **** 
 182              		.loc 1 154 0
 183 00a8 80F83C20 		strb	r2, [r0, #60]
 168:Drivers/STM32L4xx_HAL_Driver/Src/stm32l4xx_hal_tim_ex.c **** #endif /* USE_HAL_TIM_REGISTER_CALLBACKS */
 184              		.loc 1 168 0
 185 00ac FFF7FEFF 		bl	HAL_TIMEx_HallSensor_MspInit
 186              	.LVL7:
 187 00b0 B2E7     		b	.L4
 188              	.LVL8:
 189              	.L5:
 190              	.LCFI4:
 191              		.cfi_def_cfa_offset 0
 192              		.cfi_restore 4
 193              		.cfi_restore 5
 194              		.cfi_restore 6
 195              		.cfi_restore 14
 139:Drivers/STM32L4xx_HAL_Driver/Src/stm32l4xx_hal_tim_ex.c ****   }
 196              		.loc 1 139 0
 197 00b2 0120     		movs	r0, #1
 198              	.LVL9:
 199 00b4 7047     		bx	lr
 200              		.cfi_endproc
 201              	.LFE130:
 203 00b6 00BF     		.section	.text.HAL_TIMEx_HallSensor_MspDeInit,"ax",%progbits
 204              		.align	1
 205              		.p2align 2,,3
 206              		.weak	HAL_TIMEx_HallSensor_MspDeInit
 207              		.syntax unified
 208              		.thumb
 209              		.thumb_func
 210              		.fpu fpv4-sp-d16
 212              	HAL_TIMEx_HallSensor_MspDeInit:
 213              	.LFB185:
 214              		.cfi_startproc
 215              		@ args = 0, pretend = 0, frame = 0
 216              		@ frame_needed = 0, uses_anonymous_args = 0
 217              		@ link register save eliminated.
 218 0000 7047     		bx	lr
 219              		.cfi_endproc
ARM GAS  /tmp/ccByjmRO.s 			page 9


 220              	.LFE185:
 222 0002 00BF     		.section	.text.HAL_TIMEx_HallSensor_DeInit,"ax",%progbits
 223              		.align	1
 224              		.p2align 2,,3
 225              		.global	HAL_TIMEx_HallSensor_DeInit
 226              		.syntax unified
 227              		.thumb
 228              		.thumb_func
 229              		.fpu fpv4-sp-d16
 231              	HAL_TIMEx_HallSensor_DeInit:
 232              	.LFB131:
 218:Drivers/STM32L4xx_HAL_Driver/Src/stm32l4xx_hal_tim_ex.c **** 
 219:Drivers/STM32L4xx_HAL_Driver/Src/stm32l4xx_hal_tim_ex.c **** /**
 220:Drivers/STM32L4xx_HAL_Driver/Src/stm32l4xx_hal_tim_ex.c ****   * @brief  DeInitializes the TIM Hall Sensor interface
 221:Drivers/STM32L4xx_HAL_Driver/Src/stm32l4xx_hal_tim_ex.c ****   * @param  htim TIM Hall Sensor Interface handle
 222:Drivers/STM32L4xx_HAL_Driver/Src/stm32l4xx_hal_tim_ex.c ****   * @retval HAL status
 223:Drivers/STM32L4xx_HAL_Driver/Src/stm32l4xx_hal_tim_ex.c ****   */
 224:Drivers/STM32L4xx_HAL_Driver/Src/stm32l4xx_hal_tim_ex.c **** HAL_StatusTypeDef HAL_TIMEx_HallSensor_DeInit(TIM_HandleTypeDef *htim)
 225:Drivers/STM32L4xx_HAL_Driver/Src/stm32l4xx_hal_tim_ex.c **** {
 233              		.loc 1 225 0
 234              		.cfi_startproc
 235              		@ args = 0, pretend = 0, frame = 0
 236              		@ frame_needed = 0, uses_anonymous_args = 0
 237              	.LVL10:
 226:Drivers/STM32L4xx_HAL_Driver/Src/stm32l4xx_hal_tim_ex.c ****   /* Check the parameters */
 227:Drivers/STM32L4xx_HAL_Driver/Src/stm32l4xx_hal_tim_ex.c ****   assert_param(IS_TIM_INSTANCE(htim->Instance));
 228:Drivers/STM32L4xx_HAL_Driver/Src/stm32l4xx_hal_tim_ex.c **** 
 229:Drivers/STM32L4xx_HAL_Driver/Src/stm32l4xx_hal_tim_ex.c ****   htim->State = HAL_TIM_STATE_BUSY;
 238              		.loc 1 229 0
 239 0000 0222     		movs	r2, #2
 230:Drivers/STM32L4xx_HAL_Driver/Src/stm32l4xx_hal_tim_ex.c **** 
 231:Drivers/STM32L4xx_HAL_Driver/Src/stm32l4xx_hal_tim_ex.c ****   /* Disable the TIM Peripheral Clock */
 232:Drivers/STM32L4xx_HAL_Driver/Src/stm32l4xx_hal_tim_ex.c ****   __HAL_TIM_DISABLE(htim);
 240              		.loc 1 232 0
 241 0002 0368     		ldr	r3, [r0]
 225:Drivers/STM32L4xx_HAL_Driver/Src/stm32l4xx_hal_tim_ex.c ****   /* Check the parameters */
 242              		.loc 1 225 0
 243 0004 10B5     		push	{r4, lr}
 244              	.LCFI5:
 245              		.cfi_def_cfa_offset 8
 246              		.cfi_offset 4, -8
 247              		.cfi_offset 14, -4
 229:Drivers/STM32L4xx_HAL_Driver/Src/stm32l4xx_hal_tim_ex.c **** 
 248              		.loc 1 229 0
 249 0006 80F83D20 		strb	r2, [r0, #61]
 250              		.loc 1 232 0
 251 000a 196A     		ldr	r1, [r3, #32]
 252 000c 41F21112 		movw	r2, #4369
 253 0010 1142     		tst	r1, r2
 225:Drivers/STM32L4xx_HAL_Driver/Src/stm32l4xx_hal_tim_ex.c ****   /* Check the parameters */
 254              		.loc 1 225 0
 255 0012 0446     		mov	r4, r0
 256              		.loc 1 232 0
 257 0014 08D1     		bne	.L14
 258              		.loc 1 232 0 is_stmt 0 discriminator 1
 259 0016 196A     		ldr	r1, [r3, #32]
 260 0018 40F24442 		movw	r2, #1092
ARM GAS  /tmp/ccByjmRO.s 			page 10


 261 001c 1142     		tst	r1, r2
 262 001e 03D1     		bne	.L14
 263              		.loc 1 232 0 discriminator 2
 264 0020 1A68     		ldr	r2, [r3]
 265 0022 22F00102 		bic	r2, r2, #1
 266 0026 1A60     		str	r2, [r3]
 267              	.L14:
 233:Drivers/STM32L4xx_HAL_Driver/Src/stm32l4xx_hal_tim_ex.c **** 
 234:Drivers/STM32L4xx_HAL_Driver/Src/stm32l4xx_hal_tim_ex.c **** #if (USE_HAL_TIM_REGISTER_CALLBACKS == 1)
 235:Drivers/STM32L4xx_HAL_Driver/Src/stm32l4xx_hal_tim_ex.c ****   if (htim->HallSensor_MspDeInitCallback == NULL)
 236:Drivers/STM32L4xx_HAL_Driver/Src/stm32l4xx_hal_tim_ex.c ****   {
 237:Drivers/STM32L4xx_HAL_Driver/Src/stm32l4xx_hal_tim_ex.c ****     htim->HallSensor_MspDeInitCallback = HAL_TIMEx_HallSensor_MspDeInit;
 238:Drivers/STM32L4xx_HAL_Driver/Src/stm32l4xx_hal_tim_ex.c ****   }
 239:Drivers/STM32L4xx_HAL_Driver/Src/stm32l4xx_hal_tim_ex.c ****   /* DeInit the low level hardware */
 240:Drivers/STM32L4xx_HAL_Driver/Src/stm32l4xx_hal_tim_ex.c ****   htim->HallSensor_MspDeInitCallback(htim);
 241:Drivers/STM32L4xx_HAL_Driver/Src/stm32l4xx_hal_tim_ex.c **** #else
 242:Drivers/STM32L4xx_HAL_Driver/Src/stm32l4xx_hal_tim_ex.c ****   /* DeInit the low level hardware: GPIO, CLOCK, NVIC */
 243:Drivers/STM32L4xx_HAL_Driver/Src/stm32l4xx_hal_tim_ex.c ****   HAL_TIMEx_HallSensor_MspDeInit(htim);
 268              		.loc 1 243 0 is_stmt 1
 269 0028 2046     		mov	r0, r4
 270              	.LVL11:
 271 002a FFF7FEFF 		bl	HAL_TIMEx_HallSensor_MspDeInit
 272              	.LVL12:
 244:Drivers/STM32L4xx_HAL_Driver/Src/stm32l4xx_hal_tim_ex.c **** #endif /* USE_HAL_TIM_REGISTER_CALLBACKS */
 245:Drivers/STM32L4xx_HAL_Driver/Src/stm32l4xx_hal_tim_ex.c **** 
 246:Drivers/STM32L4xx_HAL_Driver/Src/stm32l4xx_hal_tim_ex.c ****   /* Change TIM state */
 247:Drivers/STM32L4xx_HAL_Driver/Src/stm32l4xx_hal_tim_ex.c ****   htim->State = HAL_TIM_STATE_RESET;
 273              		.loc 1 247 0
 274 002e 0020     		movs	r0, #0
 275 0030 84F83D00 		strb	r0, [r4, #61]
 248:Drivers/STM32L4xx_HAL_Driver/Src/stm32l4xx_hal_tim_ex.c **** 
 249:Drivers/STM32L4xx_HAL_Driver/Src/stm32l4xx_hal_tim_ex.c ****   /* Release Lock */
 250:Drivers/STM32L4xx_HAL_Driver/Src/stm32l4xx_hal_tim_ex.c ****   __HAL_UNLOCK(htim);
 276              		.loc 1 250 0
 277 0034 84F83C00 		strb	r0, [r4, #60]
 251:Drivers/STM32L4xx_HAL_Driver/Src/stm32l4xx_hal_tim_ex.c **** 
 252:Drivers/STM32L4xx_HAL_Driver/Src/stm32l4xx_hal_tim_ex.c ****   return HAL_OK;
 253:Drivers/STM32L4xx_HAL_Driver/Src/stm32l4xx_hal_tim_ex.c **** }
 278              		.loc 1 253 0
 279 0038 10BD     		pop	{r4, pc}
 280              		.cfi_endproc
 281              	.LFE131:
 283 003a 00BF     		.section	.text.HAL_TIMEx_HallSensor_Start,"ax",%progbits
 284              		.align	1
 285              		.p2align 2,,3
 286              		.global	HAL_TIMEx_HallSensor_Start
 287              		.syntax unified
 288              		.thumb
 289              		.thumb_func
 290              		.fpu fpv4-sp-d16
 292              	HAL_TIMEx_HallSensor_Start:
 293              	.LFB134:
 254:Drivers/STM32L4xx_HAL_Driver/Src/stm32l4xx_hal_tim_ex.c **** 
 255:Drivers/STM32L4xx_HAL_Driver/Src/stm32l4xx_hal_tim_ex.c **** /**
 256:Drivers/STM32L4xx_HAL_Driver/Src/stm32l4xx_hal_tim_ex.c ****   * @brief  Initializes the TIM Hall Sensor MSP.
 257:Drivers/STM32L4xx_HAL_Driver/Src/stm32l4xx_hal_tim_ex.c ****   * @param  htim TIM Hall Sensor Interface handle
 258:Drivers/STM32L4xx_HAL_Driver/Src/stm32l4xx_hal_tim_ex.c ****   * @retval None
ARM GAS  /tmp/ccByjmRO.s 			page 11


 259:Drivers/STM32L4xx_HAL_Driver/Src/stm32l4xx_hal_tim_ex.c ****   */
 260:Drivers/STM32L4xx_HAL_Driver/Src/stm32l4xx_hal_tim_ex.c **** __weak void HAL_TIMEx_HallSensor_MspInit(TIM_HandleTypeDef *htim)
 261:Drivers/STM32L4xx_HAL_Driver/Src/stm32l4xx_hal_tim_ex.c **** {
 262:Drivers/STM32L4xx_HAL_Driver/Src/stm32l4xx_hal_tim_ex.c ****   /* Prevent unused argument(s) compilation warning */
 263:Drivers/STM32L4xx_HAL_Driver/Src/stm32l4xx_hal_tim_ex.c ****   UNUSED(htim);
 264:Drivers/STM32L4xx_HAL_Driver/Src/stm32l4xx_hal_tim_ex.c **** 
 265:Drivers/STM32L4xx_HAL_Driver/Src/stm32l4xx_hal_tim_ex.c ****   /* NOTE : This function should not be modified, when the callback is needed,
 266:Drivers/STM32L4xx_HAL_Driver/Src/stm32l4xx_hal_tim_ex.c ****             the HAL_TIMEx_HallSensor_MspInit could be implemented in the user file
 267:Drivers/STM32L4xx_HAL_Driver/Src/stm32l4xx_hal_tim_ex.c ****    */
 268:Drivers/STM32L4xx_HAL_Driver/Src/stm32l4xx_hal_tim_ex.c **** }
 269:Drivers/STM32L4xx_HAL_Driver/Src/stm32l4xx_hal_tim_ex.c **** 
 270:Drivers/STM32L4xx_HAL_Driver/Src/stm32l4xx_hal_tim_ex.c **** /**
 271:Drivers/STM32L4xx_HAL_Driver/Src/stm32l4xx_hal_tim_ex.c ****   * @brief  DeInitializes TIM Hall Sensor MSP.
 272:Drivers/STM32L4xx_HAL_Driver/Src/stm32l4xx_hal_tim_ex.c ****   * @param  htim TIM Hall Sensor Interface handle
 273:Drivers/STM32L4xx_HAL_Driver/Src/stm32l4xx_hal_tim_ex.c ****   * @retval None
 274:Drivers/STM32L4xx_HAL_Driver/Src/stm32l4xx_hal_tim_ex.c ****   */
 275:Drivers/STM32L4xx_HAL_Driver/Src/stm32l4xx_hal_tim_ex.c **** __weak void HAL_TIMEx_HallSensor_MspDeInit(TIM_HandleTypeDef *htim)
 276:Drivers/STM32L4xx_HAL_Driver/Src/stm32l4xx_hal_tim_ex.c **** {
 277:Drivers/STM32L4xx_HAL_Driver/Src/stm32l4xx_hal_tim_ex.c ****   /* Prevent unused argument(s) compilation warning */
 278:Drivers/STM32L4xx_HAL_Driver/Src/stm32l4xx_hal_tim_ex.c ****   UNUSED(htim);
 279:Drivers/STM32L4xx_HAL_Driver/Src/stm32l4xx_hal_tim_ex.c **** 
 280:Drivers/STM32L4xx_HAL_Driver/Src/stm32l4xx_hal_tim_ex.c ****   /* NOTE : This function should not be modified, when the callback is needed,
 281:Drivers/STM32L4xx_HAL_Driver/Src/stm32l4xx_hal_tim_ex.c ****             the HAL_TIMEx_HallSensor_MspDeInit could be implemented in the user file
 282:Drivers/STM32L4xx_HAL_Driver/Src/stm32l4xx_hal_tim_ex.c ****    */
 283:Drivers/STM32L4xx_HAL_Driver/Src/stm32l4xx_hal_tim_ex.c **** }
 284:Drivers/STM32L4xx_HAL_Driver/Src/stm32l4xx_hal_tim_ex.c **** 
 285:Drivers/STM32L4xx_HAL_Driver/Src/stm32l4xx_hal_tim_ex.c **** /**
 286:Drivers/STM32L4xx_HAL_Driver/Src/stm32l4xx_hal_tim_ex.c ****   * @brief  Starts the TIM Hall Sensor Interface.
 287:Drivers/STM32L4xx_HAL_Driver/Src/stm32l4xx_hal_tim_ex.c ****   * @param  htim TIM Hall Sensor Interface handle
 288:Drivers/STM32L4xx_HAL_Driver/Src/stm32l4xx_hal_tim_ex.c ****   * @retval HAL status
 289:Drivers/STM32L4xx_HAL_Driver/Src/stm32l4xx_hal_tim_ex.c ****   */
 290:Drivers/STM32L4xx_HAL_Driver/Src/stm32l4xx_hal_tim_ex.c **** HAL_StatusTypeDef HAL_TIMEx_HallSensor_Start(TIM_HandleTypeDef *htim)
 291:Drivers/STM32L4xx_HAL_Driver/Src/stm32l4xx_hal_tim_ex.c **** {
 294              		.loc 1 291 0
 295              		.cfi_startproc
 296              		@ args = 0, pretend = 0, frame = 0
 297              		@ frame_needed = 0, uses_anonymous_args = 0
 298              	.LVL13:
 299 0000 10B5     		push	{r4, lr}
 300              	.LCFI6:
 301              		.cfi_def_cfa_offset 8
 302              		.cfi_offset 4, -8
 303              		.cfi_offset 14, -4
 304              		.loc 1 291 0
 305 0002 0446     		mov	r4, r0
 292:Drivers/STM32L4xx_HAL_Driver/Src/stm32l4xx_hal_tim_ex.c ****   uint32_t tmpsmcr;
 293:Drivers/STM32L4xx_HAL_Driver/Src/stm32l4xx_hal_tim_ex.c **** 
 294:Drivers/STM32L4xx_HAL_Driver/Src/stm32l4xx_hal_tim_ex.c ****   /* Check the parameters */
 295:Drivers/STM32L4xx_HAL_Driver/Src/stm32l4xx_hal_tim_ex.c ****   assert_param(IS_TIM_HALL_SENSOR_INTERFACE_INSTANCE(htim->Instance));
 296:Drivers/STM32L4xx_HAL_Driver/Src/stm32l4xx_hal_tim_ex.c **** 
 297:Drivers/STM32L4xx_HAL_Driver/Src/stm32l4xx_hal_tim_ex.c ****   /* Enable the Input Capture channel 1
 298:Drivers/STM32L4xx_HAL_Driver/Src/stm32l4xx_hal_tim_ex.c ****     (in the Hall Sensor Interface the three possible channels that can be used are TIM_CHANNEL_1, T
 299:Drivers/STM32L4xx_HAL_Driver/Src/stm32l4xx_hal_tim_ex.c ****   TIM_CCxChannelCmd(htim->Instance, TIM_CHANNEL_1, TIM_CCx_ENABLE);
 306              		.loc 1 299 0
 307 0004 0122     		movs	r2, #1
 308 0006 0021     		movs	r1, #0
 309 0008 0068     		ldr	r0, [r0]
ARM GAS  /tmp/ccByjmRO.s 			page 12


 310              	.LVL14:
 311 000a FFF7FEFF 		bl	TIM_CCxChannelCmd
 312              	.LVL15:
 300:Drivers/STM32L4xx_HAL_Driver/Src/stm32l4xx_hal_tim_ex.c **** 
 301:Drivers/STM32L4xx_HAL_Driver/Src/stm32l4xx_hal_tim_ex.c ****   /* Enable the Peripheral, except in trigger mode where enable is automatically done with trigger 
 302:Drivers/STM32L4xx_HAL_Driver/Src/stm32l4xx_hal_tim_ex.c ****   tmpsmcr = htim->Instance->SMCR & TIM_SMCR_SMS;
 313              		.loc 1 302 0
 314 000e 2268     		ldr	r2, [r4]
 315 0010 064B     		ldr	r3, .L25
 316 0012 9168     		ldr	r1, [r2, #8]
 317 0014 0B40     		ands	r3, r3, r1
 318              	.LVL16:
 303:Drivers/STM32L4xx_HAL_Driver/Src/stm32l4xx_hal_tim_ex.c ****   if (!IS_TIM_SLAVEMODE_TRIGGER_ENABLED(tmpsmcr))
 319              		.loc 1 303 0
 320 0016 062B     		cmp	r3, #6
 321 0018 06D0     		beq	.L17
 322              		.loc 1 303 0 is_stmt 0 discriminator 1
 323 001a B3F5803F 		cmp	r3, #65536
 324 001e 03D0     		beq	.L17
 304:Drivers/STM32L4xx_HAL_Driver/Src/stm32l4xx_hal_tim_ex.c ****   {
 305:Drivers/STM32L4xx_HAL_Driver/Src/stm32l4xx_hal_tim_ex.c ****     __HAL_TIM_ENABLE(htim);
 325              		.loc 1 305 0 is_stmt 1
 326 0020 1368     		ldr	r3, [r2]
 327              	.LVL17:
 328 0022 43F00103 		orr	r3, r3, #1
 329 0026 1360     		str	r3, [r2]
 330              	.L17:
 306:Drivers/STM32L4xx_HAL_Driver/Src/stm32l4xx_hal_tim_ex.c ****   }
 307:Drivers/STM32L4xx_HAL_Driver/Src/stm32l4xx_hal_tim_ex.c **** 
 308:Drivers/STM32L4xx_HAL_Driver/Src/stm32l4xx_hal_tim_ex.c ****   /* Return function status */
 309:Drivers/STM32L4xx_HAL_Driver/Src/stm32l4xx_hal_tim_ex.c ****   return HAL_OK;
 310:Drivers/STM32L4xx_HAL_Driver/Src/stm32l4xx_hal_tim_ex.c **** }
 331              		.loc 1 310 0
 332 0028 0020     		movs	r0, #0
 333 002a 10BD     		pop	{r4, pc}
 334              	.LVL18:
 335              	.L26:
 336              		.align	2
 337              	.L25:
 338 002c 07000100 		.word	65543
 339              		.cfi_endproc
 340              	.LFE134:
 342              		.section	.text.HAL_TIMEx_HallSensor_Stop,"ax",%progbits
 343              		.align	1
 344              		.p2align 2,,3
 345              		.global	HAL_TIMEx_HallSensor_Stop
 346              		.syntax unified
 347              		.thumb
 348              		.thumb_func
 349              		.fpu fpv4-sp-d16
 351              	HAL_TIMEx_HallSensor_Stop:
 352              	.LFB135:
 311:Drivers/STM32L4xx_HAL_Driver/Src/stm32l4xx_hal_tim_ex.c **** 
 312:Drivers/STM32L4xx_HAL_Driver/Src/stm32l4xx_hal_tim_ex.c **** /**
 313:Drivers/STM32L4xx_HAL_Driver/Src/stm32l4xx_hal_tim_ex.c ****   * @brief  Stops the TIM Hall sensor Interface.
 314:Drivers/STM32L4xx_HAL_Driver/Src/stm32l4xx_hal_tim_ex.c ****   * @param  htim TIM Hall Sensor Interface handle
 315:Drivers/STM32L4xx_HAL_Driver/Src/stm32l4xx_hal_tim_ex.c ****   * @retval HAL status
ARM GAS  /tmp/ccByjmRO.s 			page 13


 316:Drivers/STM32L4xx_HAL_Driver/Src/stm32l4xx_hal_tim_ex.c ****   */
 317:Drivers/STM32L4xx_HAL_Driver/Src/stm32l4xx_hal_tim_ex.c **** HAL_StatusTypeDef HAL_TIMEx_HallSensor_Stop(TIM_HandleTypeDef *htim)
 318:Drivers/STM32L4xx_HAL_Driver/Src/stm32l4xx_hal_tim_ex.c **** {
 353              		.loc 1 318 0
 354              		.cfi_startproc
 355              		@ args = 0, pretend = 0, frame = 0
 356              		@ frame_needed = 0, uses_anonymous_args = 0
 357              	.LVL19:
 319:Drivers/STM32L4xx_HAL_Driver/Src/stm32l4xx_hal_tim_ex.c ****   /* Check the parameters */
 320:Drivers/STM32L4xx_HAL_Driver/Src/stm32l4xx_hal_tim_ex.c ****   assert_param(IS_TIM_HALL_SENSOR_INTERFACE_INSTANCE(htim->Instance));
 321:Drivers/STM32L4xx_HAL_Driver/Src/stm32l4xx_hal_tim_ex.c **** 
 322:Drivers/STM32L4xx_HAL_Driver/Src/stm32l4xx_hal_tim_ex.c ****   /* Disable the Input Capture channels 1, 2 and 3
 323:Drivers/STM32L4xx_HAL_Driver/Src/stm32l4xx_hal_tim_ex.c ****     (in the Hall Sensor Interface the three possible channels that can be used are TIM_CHANNEL_1, T
 324:Drivers/STM32L4xx_HAL_Driver/Src/stm32l4xx_hal_tim_ex.c ****   TIM_CCxChannelCmd(htim->Instance, TIM_CHANNEL_1, TIM_CCx_DISABLE);
 358              		.loc 1 324 0
 359 0000 0022     		movs	r2, #0
 318:Drivers/STM32L4xx_HAL_Driver/Src/stm32l4xx_hal_tim_ex.c ****   /* Check the parameters */
 360              		.loc 1 318 0
 361 0002 10B5     		push	{r4, lr}
 362              	.LCFI7:
 363              		.cfi_def_cfa_offset 8
 364              		.cfi_offset 4, -8
 365              		.cfi_offset 14, -4
 318:Drivers/STM32L4xx_HAL_Driver/Src/stm32l4xx_hal_tim_ex.c ****   /* Check the parameters */
 366              		.loc 1 318 0
 367 0004 0446     		mov	r4, r0
 368              		.loc 1 324 0
 369 0006 1146     		mov	r1, r2
 370 0008 0068     		ldr	r0, [r0]
 371              	.LVL20:
 372 000a FFF7FEFF 		bl	TIM_CCxChannelCmd
 373              	.LVL21:
 325:Drivers/STM32L4xx_HAL_Driver/Src/stm32l4xx_hal_tim_ex.c **** 
 326:Drivers/STM32L4xx_HAL_Driver/Src/stm32l4xx_hal_tim_ex.c ****   /* Disable the Peripheral */
 327:Drivers/STM32L4xx_HAL_Driver/Src/stm32l4xx_hal_tim_ex.c ****   __HAL_TIM_DISABLE(htim);
 374              		.loc 1 327 0
 375 000e 2368     		ldr	r3, [r4]
 376 0010 196A     		ldr	r1, [r3, #32]
 377 0012 41F21112 		movw	r2, #4369
 378 0016 1142     		tst	r1, r2
 379 0018 08D1     		bne	.L28
 380              		.loc 1 327 0 is_stmt 0 discriminator 1
 381 001a 196A     		ldr	r1, [r3, #32]
 382 001c 40F24442 		movw	r2, #1092
 383 0020 1142     		tst	r1, r2
 384 0022 03D1     		bne	.L28
 385              		.loc 1 327 0 discriminator 2
 386 0024 1A68     		ldr	r2, [r3]
 387 0026 22F00102 		bic	r2, r2, #1
 388 002a 1A60     		str	r2, [r3]
 389              	.L28:
 328:Drivers/STM32L4xx_HAL_Driver/Src/stm32l4xx_hal_tim_ex.c **** 
 329:Drivers/STM32L4xx_HAL_Driver/Src/stm32l4xx_hal_tim_ex.c ****   /* Return function status */
 330:Drivers/STM32L4xx_HAL_Driver/Src/stm32l4xx_hal_tim_ex.c ****   return HAL_OK;
 331:Drivers/STM32L4xx_HAL_Driver/Src/stm32l4xx_hal_tim_ex.c **** }
 390              		.loc 1 331 0 is_stmt 1
 391 002c 0020     		movs	r0, #0
ARM GAS  /tmp/ccByjmRO.s 			page 14


 392 002e 10BD     		pop	{r4, pc}
 393              		.cfi_endproc
 394              	.LFE135:
 396              		.section	.text.HAL_TIMEx_HallSensor_Start_IT,"ax",%progbits
 397              		.align	1
 398              		.p2align 2,,3
 399              		.global	HAL_TIMEx_HallSensor_Start_IT
 400              		.syntax unified
 401              		.thumb
 402              		.thumb_func
 403              		.fpu fpv4-sp-d16
 405              	HAL_TIMEx_HallSensor_Start_IT:
 406              	.LFB136:
 332:Drivers/STM32L4xx_HAL_Driver/Src/stm32l4xx_hal_tim_ex.c **** 
 333:Drivers/STM32L4xx_HAL_Driver/Src/stm32l4xx_hal_tim_ex.c **** /**
 334:Drivers/STM32L4xx_HAL_Driver/Src/stm32l4xx_hal_tim_ex.c ****   * @brief  Starts the TIM Hall Sensor Interface in interrupt mode.
 335:Drivers/STM32L4xx_HAL_Driver/Src/stm32l4xx_hal_tim_ex.c ****   * @param  htim TIM Hall Sensor Interface handle
 336:Drivers/STM32L4xx_HAL_Driver/Src/stm32l4xx_hal_tim_ex.c ****   * @retval HAL status
 337:Drivers/STM32L4xx_HAL_Driver/Src/stm32l4xx_hal_tim_ex.c ****   */
 338:Drivers/STM32L4xx_HAL_Driver/Src/stm32l4xx_hal_tim_ex.c **** HAL_StatusTypeDef HAL_TIMEx_HallSensor_Start_IT(TIM_HandleTypeDef *htim)
 339:Drivers/STM32L4xx_HAL_Driver/Src/stm32l4xx_hal_tim_ex.c **** {
 407              		.loc 1 339 0
 408              		.cfi_startproc
 409              		@ args = 0, pretend = 0, frame = 0
 410              		@ frame_needed = 0, uses_anonymous_args = 0
 411              	.LVL22:
 412 0000 10B5     		push	{r4, lr}
 413              	.LCFI8:
 414              		.cfi_def_cfa_offset 8
 415              		.cfi_offset 4, -8
 416              		.cfi_offset 14, -4
 417              		.loc 1 339 0
 418 0002 0446     		mov	r4, r0
 340:Drivers/STM32L4xx_HAL_Driver/Src/stm32l4xx_hal_tim_ex.c ****   uint32_t tmpsmcr;
 341:Drivers/STM32L4xx_HAL_Driver/Src/stm32l4xx_hal_tim_ex.c **** 
 342:Drivers/STM32L4xx_HAL_Driver/Src/stm32l4xx_hal_tim_ex.c ****   /* Check the parameters */
 343:Drivers/STM32L4xx_HAL_Driver/Src/stm32l4xx_hal_tim_ex.c ****   assert_param(IS_TIM_HALL_SENSOR_INTERFACE_INSTANCE(htim->Instance));
 344:Drivers/STM32L4xx_HAL_Driver/Src/stm32l4xx_hal_tim_ex.c **** 
 345:Drivers/STM32L4xx_HAL_Driver/Src/stm32l4xx_hal_tim_ex.c ****   /* Enable the capture compare Interrupts 1 event */
 346:Drivers/STM32L4xx_HAL_Driver/Src/stm32l4xx_hal_tim_ex.c ****   __HAL_TIM_ENABLE_IT(htim, TIM_IT_CC1);
 419              		.loc 1 346 0
 420 0004 0068     		ldr	r0, [r0]
 421              	.LVL23:
 422 0006 C368     		ldr	r3, [r0, #12]
 423 0008 43F00203 		orr	r3, r3, #2
 347:Drivers/STM32L4xx_HAL_Driver/Src/stm32l4xx_hal_tim_ex.c **** 
 348:Drivers/STM32L4xx_HAL_Driver/Src/stm32l4xx_hal_tim_ex.c ****   /* Enable the Input Capture channel 1
 349:Drivers/STM32L4xx_HAL_Driver/Src/stm32l4xx_hal_tim_ex.c ****     (in the Hall Sensor Interface the three possible channels that can be used are TIM_CHANNEL_1, T
 350:Drivers/STM32L4xx_HAL_Driver/Src/stm32l4xx_hal_tim_ex.c ****   TIM_CCxChannelCmd(htim->Instance, TIM_CHANNEL_1, TIM_CCx_ENABLE);
 424              		.loc 1 350 0
 425 000c 0122     		movs	r2, #1
 346:Drivers/STM32L4xx_HAL_Driver/Src/stm32l4xx_hal_tim_ex.c **** 
 426              		.loc 1 346 0
 427 000e C360     		str	r3, [r0, #12]
 428              		.loc 1 350 0
 429 0010 0021     		movs	r1, #0
 430 0012 FFF7FEFF 		bl	TIM_CCxChannelCmd
ARM GAS  /tmp/ccByjmRO.s 			page 15


 431              	.LVL24:
 351:Drivers/STM32L4xx_HAL_Driver/Src/stm32l4xx_hal_tim_ex.c **** 
 352:Drivers/STM32L4xx_HAL_Driver/Src/stm32l4xx_hal_tim_ex.c ****   /* Enable the Peripheral, except in trigger mode where enable is automatically done with trigger 
 353:Drivers/STM32L4xx_HAL_Driver/Src/stm32l4xx_hal_tim_ex.c ****   tmpsmcr = htim->Instance->SMCR & TIM_SMCR_SMS;
 432              		.loc 1 353 0
 433 0016 2268     		ldr	r2, [r4]
 434 0018 064B     		ldr	r3, .L39
 435 001a 9168     		ldr	r1, [r2, #8]
 436 001c 0B40     		ands	r3, r3, r1
 437              	.LVL25:
 354:Drivers/STM32L4xx_HAL_Driver/Src/stm32l4xx_hal_tim_ex.c ****   if (!IS_TIM_SLAVEMODE_TRIGGER_ENABLED(tmpsmcr))
 438              		.loc 1 354 0
 439 001e 062B     		cmp	r3, #6
 440 0020 06D0     		beq	.L31
 441              		.loc 1 354 0 is_stmt 0 discriminator 1
 442 0022 B3F5803F 		cmp	r3, #65536
 443 0026 03D0     		beq	.L31
 355:Drivers/STM32L4xx_HAL_Driver/Src/stm32l4xx_hal_tim_ex.c ****   {
 356:Drivers/STM32L4xx_HAL_Driver/Src/stm32l4xx_hal_tim_ex.c ****     __HAL_TIM_ENABLE(htim);
 444              		.loc 1 356 0 is_stmt 1
 445 0028 1368     		ldr	r3, [r2]
 446              	.LVL26:
 447 002a 43F00103 		orr	r3, r3, #1
 448 002e 1360     		str	r3, [r2]
 449              	.L31:
 357:Drivers/STM32L4xx_HAL_Driver/Src/stm32l4xx_hal_tim_ex.c ****   }
 358:Drivers/STM32L4xx_HAL_Driver/Src/stm32l4xx_hal_tim_ex.c **** 
 359:Drivers/STM32L4xx_HAL_Driver/Src/stm32l4xx_hal_tim_ex.c ****   /* Return function status */
 360:Drivers/STM32L4xx_HAL_Driver/Src/stm32l4xx_hal_tim_ex.c ****   return HAL_OK;
 361:Drivers/STM32L4xx_HAL_Driver/Src/stm32l4xx_hal_tim_ex.c **** }
 450              		.loc 1 361 0
 451 0030 0020     		movs	r0, #0
 452 0032 10BD     		pop	{r4, pc}
 453              	.LVL27:
 454              	.L40:
 455              		.align	2
 456              	.L39:
 457 0034 07000100 		.word	65543
 458              		.cfi_endproc
 459              	.LFE136:
 461              		.section	.text.HAL_TIMEx_HallSensor_Stop_IT,"ax",%progbits
 462              		.align	1
 463              		.p2align 2,,3
 464              		.global	HAL_TIMEx_HallSensor_Stop_IT
 465              		.syntax unified
 466              		.thumb
 467              		.thumb_func
 468              		.fpu fpv4-sp-d16
 470              	HAL_TIMEx_HallSensor_Stop_IT:
 471              	.LFB137:
 362:Drivers/STM32L4xx_HAL_Driver/Src/stm32l4xx_hal_tim_ex.c **** 
 363:Drivers/STM32L4xx_HAL_Driver/Src/stm32l4xx_hal_tim_ex.c **** /**
 364:Drivers/STM32L4xx_HAL_Driver/Src/stm32l4xx_hal_tim_ex.c ****   * @brief  Stops the TIM Hall Sensor Interface in interrupt mode.
 365:Drivers/STM32L4xx_HAL_Driver/Src/stm32l4xx_hal_tim_ex.c ****   * @param  htim TIM Hall Sensor Interface handle
 366:Drivers/STM32L4xx_HAL_Driver/Src/stm32l4xx_hal_tim_ex.c ****   * @retval HAL status
 367:Drivers/STM32L4xx_HAL_Driver/Src/stm32l4xx_hal_tim_ex.c ****   */
 368:Drivers/STM32L4xx_HAL_Driver/Src/stm32l4xx_hal_tim_ex.c **** HAL_StatusTypeDef HAL_TIMEx_HallSensor_Stop_IT(TIM_HandleTypeDef *htim)
ARM GAS  /tmp/ccByjmRO.s 			page 16


 369:Drivers/STM32L4xx_HAL_Driver/Src/stm32l4xx_hal_tim_ex.c **** {
 472              		.loc 1 369 0
 473              		.cfi_startproc
 474              		@ args = 0, pretend = 0, frame = 0
 475              		@ frame_needed = 0, uses_anonymous_args = 0
 476              	.LVL28:
 370:Drivers/STM32L4xx_HAL_Driver/Src/stm32l4xx_hal_tim_ex.c ****   /* Check the parameters */
 371:Drivers/STM32L4xx_HAL_Driver/Src/stm32l4xx_hal_tim_ex.c ****   assert_param(IS_TIM_HALL_SENSOR_INTERFACE_INSTANCE(htim->Instance));
 372:Drivers/STM32L4xx_HAL_Driver/Src/stm32l4xx_hal_tim_ex.c **** 
 373:Drivers/STM32L4xx_HAL_Driver/Src/stm32l4xx_hal_tim_ex.c ****   /* Disable the Input Capture channel 1
 374:Drivers/STM32L4xx_HAL_Driver/Src/stm32l4xx_hal_tim_ex.c ****     (in the Hall Sensor Interface the three possible channels that can be used are TIM_CHANNEL_1, T
 375:Drivers/STM32L4xx_HAL_Driver/Src/stm32l4xx_hal_tim_ex.c ****   TIM_CCxChannelCmd(htim->Instance, TIM_CHANNEL_1, TIM_CCx_DISABLE);
 477              		.loc 1 375 0
 478 0000 0022     		movs	r2, #0
 369:Drivers/STM32L4xx_HAL_Driver/Src/stm32l4xx_hal_tim_ex.c ****   /* Check the parameters */
 479              		.loc 1 369 0
 480 0002 10B5     		push	{r4, lr}
 481              	.LCFI9:
 482              		.cfi_def_cfa_offset 8
 483              		.cfi_offset 4, -8
 484              		.cfi_offset 14, -4
 369:Drivers/STM32L4xx_HAL_Driver/Src/stm32l4xx_hal_tim_ex.c ****   /* Check the parameters */
 485              		.loc 1 369 0
 486 0004 0446     		mov	r4, r0
 487              		.loc 1 375 0
 488 0006 1146     		mov	r1, r2
 489 0008 0068     		ldr	r0, [r0]
 490              	.LVL29:
 491 000a FFF7FEFF 		bl	TIM_CCxChannelCmd
 492              	.LVL30:
 376:Drivers/STM32L4xx_HAL_Driver/Src/stm32l4xx_hal_tim_ex.c **** 
 377:Drivers/STM32L4xx_HAL_Driver/Src/stm32l4xx_hal_tim_ex.c ****   /* Disable the capture compare Interrupts event */
 378:Drivers/STM32L4xx_HAL_Driver/Src/stm32l4xx_hal_tim_ex.c ****   __HAL_TIM_DISABLE_IT(htim, TIM_IT_CC1);
 493              		.loc 1 378 0
 494 000e 2368     		ldr	r3, [r4]
 495 0010 DA68     		ldr	r2, [r3, #12]
 496 0012 22F00202 		bic	r2, r2, #2
 497 0016 DA60     		str	r2, [r3, #12]
 379:Drivers/STM32L4xx_HAL_Driver/Src/stm32l4xx_hal_tim_ex.c **** 
 380:Drivers/STM32L4xx_HAL_Driver/Src/stm32l4xx_hal_tim_ex.c ****   /* Disable the Peripheral */
 381:Drivers/STM32L4xx_HAL_Driver/Src/stm32l4xx_hal_tim_ex.c ****   __HAL_TIM_DISABLE(htim);
 498              		.loc 1 381 0
 499 0018 196A     		ldr	r1, [r3, #32]
 500 001a 41F21112 		movw	r2, #4369
 501 001e 1142     		tst	r1, r2
 502 0020 08D1     		bne	.L42
 503              		.loc 1 381 0 is_stmt 0 discriminator 1
 504 0022 196A     		ldr	r1, [r3, #32]
 505 0024 40F24442 		movw	r2, #1092
 506 0028 1142     		tst	r1, r2
 507 002a 03D1     		bne	.L42
 508              		.loc 1 381 0 discriminator 2
 509 002c 1A68     		ldr	r2, [r3]
 510 002e 22F00102 		bic	r2, r2, #1
 511 0032 1A60     		str	r2, [r3]
 512              	.L42:
 382:Drivers/STM32L4xx_HAL_Driver/Src/stm32l4xx_hal_tim_ex.c **** 
ARM GAS  /tmp/ccByjmRO.s 			page 17


 383:Drivers/STM32L4xx_HAL_Driver/Src/stm32l4xx_hal_tim_ex.c ****   /* Return function status */
 384:Drivers/STM32L4xx_HAL_Driver/Src/stm32l4xx_hal_tim_ex.c ****   return HAL_OK;
 385:Drivers/STM32L4xx_HAL_Driver/Src/stm32l4xx_hal_tim_ex.c **** }
 513              		.loc 1 385 0 is_stmt 1
 514 0034 0020     		movs	r0, #0
 515 0036 10BD     		pop	{r4, pc}
 516              		.cfi_endproc
 517              	.LFE137:
 519              		.section	.text.HAL_TIMEx_HallSensor_Start_DMA,"ax",%progbits
 520              		.align	1
 521              		.p2align 2,,3
 522              		.global	HAL_TIMEx_HallSensor_Start_DMA
 523              		.syntax unified
 524              		.thumb
 525              		.thumb_func
 526              		.fpu fpv4-sp-d16
 528              	HAL_TIMEx_HallSensor_Start_DMA:
 529              	.LFB138:
 386:Drivers/STM32L4xx_HAL_Driver/Src/stm32l4xx_hal_tim_ex.c **** 
 387:Drivers/STM32L4xx_HAL_Driver/Src/stm32l4xx_hal_tim_ex.c **** /**
 388:Drivers/STM32L4xx_HAL_Driver/Src/stm32l4xx_hal_tim_ex.c ****   * @brief  Starts the TIM Hall Sensor Interface in DMA mode.
 389:Drivers/STM32L4xx_HAL_Driver/Src/stm32l4xx_hal_tim_ex.c ****   * @param  htim TIM Hall Sensor Interface handle
 390:Drivers/STM32L4xx_HAL_Driver/Src/stm32l4xx_hal_tim_ex.c ****   * @param  pData The destination Buffer address.
 391:Drivers/STM32L4xx_HAL_Driver/Src/stm32l4xx_hal_tim_ex.c ****   * @param  Length The length of data to be transferred from TIM peripheral to memory.
 392:Drivers/STM32L4xx_HAL_Driver/Src/stm32l4xx_hal_tim_ex.c ****   * @retval HAL status
 393:Drivers/STM32L4xx_HAL_Driver/Src/stm32l4xx_hal_tim_ex.c ****   */
 394:Drivers/STM32L4xx_HAL_Driver/Src/stm32l4xx_hal_tim_ex.c **** HAL_StatusTypeDef HAL_TIMEx_HallSensor_Start_DMA(TIM_HandleTypeDef *htim, uint32_t *pData, uint16_t
 395:Drivers/STM32L4xx_HAL_Driver/Src/stm32l4xx_hal_tim_ex.c **** {
 530              		.loc 1 395 0
 531              		.cfi_startproc
 532              		@ args = 0, pretend = 0, frame = 0
 533              		@ frame_needed = 0, uses_anonymous_args = 0
 534              	.LVL31:
 535 0000 F8B5     		push	{r3, r4, r5, r6, r7, lr}
 536              	.LCFI10:
 537              		.cfi_def_cfa_offset 24
 538              		.cfi_offset 3, -24
 539              		.cfi_offset 4, -20
 540              		.cfi_offset 5, -16
 541              		.cfi_offset 6, -12
 542              		.cfi_offset 7, -8
 543              		.cfi_offset 14, -4
 396:Drivers/STM32L4xx_HAL_Driver/Src/stm32l4xx_hal_tim_ex.c ****   uint32_t tmpsmcr;
 397:Drivers/STM32L4xx_HAL_Driver/Src/stm32l4xx_hal_tim_ex.c **** 
 398:Drivers/STM32L4xx_HAL_Driver/Src/stm32l4xx_hal_tim_ex.c ****   /* Check the parameters */
 399:Drivers/STM32L4xx_HAL_Driver/Src/stm32l4xx_hal_tim_ex.c ****   assert_param(IS_TIM_HALL_SENSOR_INTERFACE_INSTANCE(htim->Instance));
 400:Drivers/STM32L4xx_HAL_Driver/Src/stm32l4xx_hal_tim_ex.c **** 
 401:Drivers/STM32L4xx_HAL_Driver/Src/stm32l4xx_hal_tim_ex.c ****   if ((htim->State == HAL_TIM_STATE_BUSY))
 544              		.loc 1 401 0
 545 0002 90F83D40 		ldrb	r4, [r0, #61]	@ zero_extendqisi2
 546 0006 E4B2     		uxtb	r4, r4
 547 0008 022C     		cmp	r4, #2
 548 000a 35D0     		beq	.L50
 402:Drivers/STM32L4xx_HAL_Driver/Src/stm32l4xx_hal_tim_ex.c ****   {
 403:Drivers/STM32L4xx_HAL_Driver/Src/stm32l4xx_hal_tim_ex.c ****     return HAL_BUSY;
 404:Drivers/STM32L4xx_HAL_Driver/Src/stm32l4xx_hal_tim_ex.c ****   }
 405:Drivers/STM32L4xx_HAL_Driver/Src/stm32l4xx_hal_tim_ex.c ****   else if ((htim->State == HAL_TIM_STATE_READY))
ARM GAS  /tmp/ccByjmRO.s 			page 18


 549              		.loc 1 405 0
 550 000c 90F83D30 		ldrb	r3, [r0, #61]	@ zero_extendqisi2
 551 0010 012B     		cmp	r3, #1
 552 0012 29D0     		beq	.L61
 553              	.L47:
 554 0014 0446     		mov	r4, r0
 555 0016 1646     		mov	r6, r2
 556 0018 0D46     		mov	r5, r1
 406:Drivers/STM32L4xx_HAL_Driver/Src/stm32l4xx_hal_tim_ex.c ****   {
 407:Drivers/STM32L4xx_HAL_Driver/Src/stm32l4xx_hal_tim_ex.c ****     if (((uint32_t)pData == 0U) && (Length > 0U))
 408:Drivers/STM32L4xx_HAL_Driver/Src/stm32l4xx_hal_tim_ex.c ****     {
 409:Drivers/STM32L4xx_HAL_Driver/Src/stm32l4xx_hal_tim_ex.c ****       return HAL_ERROR;
 410:Drivers/STM32L4xx_HAL_Driver/Src/stm32l4xx_hal_tim_ex.c ****     }
 411:Drivers/STM32L4xx_HAL_Driver/Src/stm32l4xx_hal_tim_ex.c ****     else
 412:Drivers/STM32L4xx_HAL_Driver/Src/stm32l4xx_hal_tim_ex.c ****     {
 413:Drivers/STM32L4xx_HAL_Driver/Src/stm32l4xx_hal_tim_ex.c ****       htim->State = HAL_TIM_STATE_BUSY;
 414:Drivers/STM32L4xx_HAL_Driver/Src/stm32l4xx_hal_tim_ex.c ****     }
 415:Drivers/STM32L4xx_HAL_Driver/Src/stm32l4xx_hal_tim_ex.c ****   }
 416:Drivers/STM32L4xx_HAL_Driver/Src/stm32l4xx_hal_tim_ex.c ****   else
 417:Drivers/STM32L4xx_HAL_Driver/Src/stm32l4xx_hal_tim_ex.c ****   {
 418:Drivers/STM32L4xx_HAL_Driver/Src/stm32l4xx_hal_tim_ex.c ****     /* nothing to do */
 419:Drivers/STM32L4xx_HAL_Driver/Src/stm32l4xx_hal_tim_ex.c ****   }
 420:Drivers/STM32L4xx_HAL_Driver/Src/stm32l4xx_hal_tim_ex.c ****   /* Enable the Input Capture channel 1
 421:Drivers/STM32L4xx_HAL_Driver/Src/stm32l4xx_hal_tim_ex.c ****     (in the Hall Sensor Interface the three possible channels that can be used are TIM_CHANNEL_1, T
 422:Drivers/STM32L4xx_HAL_Driver/Src/stm32l4xx_hal_tim_ex.c ****   TIM_CCxChannelCmd(htim->Instance, TIM_CHANNEL_1, TIM_CCx_ENABLE);
 557              		.loc 1 422 0
 558 001a 0122     		movs	r2, #1
 559              	.LVL32:
 560 001c 0021     		movs	r1, #0
 561              	.LVL33:
 562 001e 0068     		ldr	r0, [r0]
 563              	.LVL34:
 423:Drivers/STM32L4xx_HAL_Driver/Src/stm32l4xx_hal_tim_ex.c **** 
 424:Drivers/STM32L4xx_HAL_Driver/Src/stm32l4xx_hal_tim_ex.c ****   /* Set the DMA Input Capture 1 Callbacks */
 425:Drivers/STM32L4xx_HAL_Driver/Src/stm32l4xx_hal_tim_ex.c ****   htim->hdma[TIM_DMA_ID_CC1]->XferCpltCallback = TIM_DMACaptureCplt;
 426:Drivers/STM32L4xx_HAL_Driver/Src/stm32l4xx_hal_tim_ex.c ****   htim->hdma[TIM_DMA_ID_CC1]->XferHalfCpltCallback = TIM_DMACaptureHalfCplt;
 427:Drivers/STM32L4xx_HAL_Driver/Src/stm32l4xx_hal_tim_ex.c ****   /* Set the DMA error callback */
 428:Drivers/STM32L4xx_HAL_Driver/Src/stm32l4xx_hal_tim_ex.c ****   htim->hdma[TIM_DMA_ID_CC1]->XferErrorCallback = TIM_DMAError ;
 564              		.loc 1 428 0
 565 0020 164F     		ldr	r7, .L62
 422:Drivers/STM32L4xx_HAL_Driver/Src/stm32l4xx_hal_tim_ex.c **** 
 566              		.loc 1 422 0
 567 0022 FFF7FEFF 		bl	TIM_CCxChannelCmd
 568              	.LVL35:
 429:Drivers/STM32L4xx_HAL_Driver/Src/stm32l4xx_hal_tim_ex.c **** 
 430:Drivers/STM32L4xx_HAL_Driver/Src/stm32l4xx_hal_tim_ex.c ****   /* Enable the DMA channel for Capture 1*/
 431:Drivers/STM32L4xx_HAL_Driver/Src/stm32l4xx_hal_tim_ex.c ****   if (HAL_DMA_Start_IT(htim->hdma[TIM_DMA_ID_CC1], (uint32_t)&htim->Instance->CCR1, (uint32_t)pData
 569              		.loc 1 431 0
 570 0026 2168     		ldr	r1, [r4]
 425:Drivers/STM32L4xx_HAL_Driver/Src/stm32l4xx_hal_tim_ex.c ****   htim->hdma[TIM_DMA_ID_CC1]->XferHalfCpltCallback = TIM_DMACaptureHalfCplt;
 571              		.loc 1 425 0
 572 0028 606A     		ldr	r0, [r4, #36]
 573 002a 154B     		ldr	r3, .L62+4
 426:Drivers/STM32L4xx_HAL_Driver/Src/stm32l4xx_hal_tim_ex.c ****   /* Set the DMA error callback */
 574              		.loc 1 426 0
 575 002c DFF858E0 		ldr	lr, .L62+12
 425:Drivers/STM32L4xx_HAL_Driver/Src/stm32l4xx_hal_tim_ex.c ****   htim->hdma[TIM_DMA_ID_CC1]->XferHalfCpltCallback = TIM_DMACaptureHalfCplt;
ARM GAS  /tmp/ccByjmRO.s 			page 19


 576              		.loc 1 425 0
 577 0030 C362     		str	r3, [r0, #44]
 578              		.loc 1 431 0
 579 0032 2A46     		mov	r2, r5
 580 0034 3346     		mov	r3, r6
 426:Drivers/STM32L4xx_HAL_Driver/Src/stm32l4xx_hal_tim_ex.c ****   /* Set the DMA error callback */
 581              		.loc 1 426 0
 582 0036 C0F830E0 		str	lr, [r0, #48]
 428:Drivers/STM32L4xx_HAL_Driver/Src/stm32l4xx_hal_tim_ex.c **** 
 583              		.loc 1 428 0
 584 003a 4763     		str	r7, [r0, #52]
 585              		.loc 1 431 0
 586 003c 3431     		adds	r1, r1, #52
 587 003e FFF7FEFF 		bl	HAL_DMA_Start_IT
 588              	.LVL36:
 589 0042 B8B9     		cbnz	r0, .L49
 432:Drivers/STM32L4xx_HAL_Driver/Src/stm32l4xx_hal_tim_ex.c ****   {
 433:Drivers/STM32L4xx_HAL_Driver/Src/stm32l4xx_hal_tim_ex.c ****     return HAL_ERROR;
 434:Drivers/STM32L4xx_HAL_Driver/Src/stm32l4xx_hal_tim_ex.c ****   }
 435:Drivers/STM32L4xx_HAL_Driver/Src/stm32l4xx_hal_tim_ex.c ****   /* Enable the capture compare 1 Interrupt */
 436:Drivers/STM32L4xx_HAL_Driver/Src/stm32l4xx_hal_tim_ex.c ****   __HAL_TIM_ENABLE_DMA(htim, TIM_DMA_CC1);
 590              		.loc 1 436 0
 591 0044 2368     		ldr	r3, [r4]
 437:Drivers/STM32L4xx_HAL_Driver/Src/stm32l4xx_hal_tim_ex.c **** 
 438:Drivers/STM32L4xx_HAL_Driver/Src/stm32l4xx_hal_tim_ex.c ****   /* Enable the Peripheral, except in trigger mode where enable is automatically done with trigger 
 439:Drivers/STM32L4xx_HAL_Driver/Src/stm32l4xx_hal_tim_ex.c ****   tmpsmcr = htim->Instance->SMCR & TIM_SMCR_SMS;
 592              		.loc 1 439 0
 593 0046 0F4A     		ldr	r2, .L62+8
 436:Drivers/STM32L4xx_HAL_Driver/Src/stm32l4xx_hal_tim_ex.c **** 
 594              		.loc 1 436 0
 595 0048 D968     		ldr	r1, [r3, #12]
 596 004a 41F40071 		orr	r1, r1, #512
 597 004e D960     		str	r1, [r3, #12]
 598              		.loc 1 439 0
 599 0050 9968     		ldr	r1, [r3, #8]
 600 0052 0A40     		ands	r2, r2, r1
 601              	.LVL37:
 440:Drivers/STM32L4xx_HAL_Driver/Src/stm32l4xx_hal_tim_ex.c ****   if (!IS_TIM_SLAVEMODE_TRIGGER_ENABLED(tmpsmcr))
 602              		.loc 1 440 0
 603 0054 062A     		cmp	r2, #6
 604 0056 10D0     		beq	.L45
 605              		.loc 1 440 0 is_stmt 0 discriminator 1
 606 0058 B2F5803F 		cmp	r2, #65536
 607 005c 0DD0     		beq	.L45
 441:Drivers/STM32L4xx_HAL_Driver/Src/stm32l4xx_hal_tim_ex.c ****   {
 442:Drivers/STM32L4xx_HAL_Driver/Src/stm32l4xx_hal_tim_ex.c ****     __HAL_TIM_ENABLE(htim);
 608              		.loc 1 442 0 is_stmt 1
 609 005e 1A68     		ldr	r2, [r3]
 610              	.LVL38:
 611 0060 42F00102 		orr	r2, r2, #1
 612 0064 1A60     		str	r2, [r3]
 613 0066 F8BD     		pop	{r3, r4, r5, r6, r7, pc}
 614              	.LVL39:
 615              	.L61:
 407:Drivers/STM32L4xx_HAL_Driver/Src/stm32l4xx_hal_tim_ex.c ****     {
 616              		.loc 1 407 0
 617 0068 01B9     		cbnz	r1, .L48
ARM GAS  /tmp/ccByjmRO.s 			page 20


 407:Drivers/STM32L4xx_HAL_Driver/Src/stm32l4xx_hal_tim_ex.c ****     {
 618              		.loc 1 407 0 is_stmt 0 discriminator 1
 619 006a 1AB9     		cbnz	r2, .L49
 620              	.L48:
 413:Drivers/STM32L4xx_HAL_Driver/Src/stm32l4xx_hal_tim_ex.c ****     }
 621              		.loc 1 413 0 is_stmt 1
 622 006c 0223     		movs	r3, #2
 623 006e 80F83D30 		strb	r3, [r0, #61]
 624 0072 CFE7     		b	.L47
 625              	.LVL40:
 626              	.L49:
 409:Drivers/STM32L4xx_HAL_Driver/Src/stm32l4xx_hal_tim_ex.c ****     }
 627              		.loc 1 409 0
 628 0074 0120     		movs	r0, #1
 629 0076 F8BD     		pop	{r3, r4, r5, r6, r7, pc}
 630              	.LVL41:
 631              	.L50:
 403:Drivers/STM32L4xx_HAL_Driver/Src/stm32l4xx_hal_tim_ex.c ****   }
 632              		.loc 1 403 0
 633 0078 2046     		mov	r0, r4
 634              	.LVL42:
 635              	.L45:
 443:Drivers/STM32L4xx_HAL_Driver/Src/stm32l4xx_hal_tim_ex.c ****   }
 444:Drivers/STM32L4xx_HAL_Driver/Src/stm32l4xx_hal_tim_ex.c **** 
 445:Drivers/STM32L4xx_HAL_Driver/Src/stm32l4xx_hal_tim_ex.c ****   /* Return function status */
 446:Drivers/STM32L4xx_HAL_Driver/Src/stm32l4xx_hal_tim_ex.c ****   return HAL_OK;
 447:Drivers/STM32L4xx_HAL_Driver/Src/stm32l4xx_hal_tim_ex.c **** }
 636              		.loc 1 447 0
 637 007a F8BD     		pop	{r3, r4, r5, r6, r7, pc}
 638              	.L63:
 639              		.align	2
 640              	.L62:
 641 007c 00000000 		.word	TIM_DMAError
 642 0080 00000000 		.word	TIM_DMACaptureCplt
 643 0084 07000100 		.word	65543
 644 0088 00000000 		.word	TIM_DMACaptureHalfCplt
 645              		.cfi_endproc
 646              	.LFE138:
 648              		.section	.text.HAL_TIMEx_HallSensor_Stop_DMA,"ax",%progbits
 649              		.align	1
 650              		.p2align 2,,3
 651              		.global	HAL_TIMEx_HallSensor_Stop_DMA
 652              		.syntax unified
 653              		.thumb
 654              		.thumb_func
 655              		.fpu fpv4-sp-d16
 657              	HAL_TIMEx_HallSensor_Stop_DMA:
 658              	.LFB139:
 448:Drivers/STM32L4xx_HAL_Driver/Src/stm32l4xx_hal_tim_ex.c **** 
 449:Drivers/STM32L4xx_HAL_Driver/Src/stm32l4xx_hal_tim_ex.c **** /**
 450:Drivers/STM32L4xx_HAL_Driver/Src/stm32l4xx_hal_tim_ex.c ****   * @brief  Stops the TIM Hall Sensor Interface in DMA mode.
 451:Drivers/STM32L4xx_HAL_Driver/Src/stm32l4xx_hal_tim_ex.c ****   * @param  htim TIM Hall Sensor Interface handle
 452:Drivers/STM32L4xx_HAL_Driver/Src/stm32l4xx_hal_tim_ex.c ****   * @retval HAL status
 453:Drivers/STM32L4xx_HAL_Driver/Src/stm32l4xx_hal_tim_ex.c ****   */
 454:Drivers/STM32L4xx_HAL_Driver/Src/stm32l4xx_hal_tim_ex.c **** HAL_StatusTypeDef HAL_TIMEx_HallSensor_Stop_DMA(TIM_HandleTypeDef *htim)
 455:Drivers/STM32L4xx_HAL_Driver/Src/stm32l4xx_hal_tim_ex.c **** {
 659              		.loc 1 455 0
ARM GAS  /tmp/ccByjmRO.s 			page 21


 660              		.cfi_startproc
 661              		@ args = 0, pretend = 0, frame = 0
 662              		@ frame_needed = 0, uses_anonymous_args = 0
 663              	.LVL43:
 664 0000 10B5     		push	{r4, lr}
 665              	.LCFI11:
 666              		.cfi_def_cfa_offset 8
 667              		.cfi_offset 4, -8
 668              		.cfi_offset 14, -4
 456:Drivers/STM32L4xx_HAL_Driver/Src/stm32l4xx_hal_tim_ex.c ****   /* Check the parameters */
 457:Drivers/STM32L4xx_HAL_Driver/Src/stm32l4xx_hal_tim_ex.c ****   assert_param(IS_TIM_HALL_SENSOR_INTERFACE_INSTANCE(htim->Instance));
 458:Drivers/STM32L4xx_HAL_Driver/Src/stm32l4xx_hal_tim_ex.c **** 
 459:Drivers/STM32L4xx_HAL_Driver/Src/stm32l4xx_hal_tim_ex.c ****   /* Disable the Input Capture channel 1
 460:Drivers/STM32L4xx_HAL_Driver/Src/stm32l4xx_hal_tim_ex.c ****     (in the Hall Sensor Interface the three possible channels that can be used are TIM_CHANNEL_1, T
 461:Drivers/STM32L4xx_HAL_Driver/Src/stm32l4xx_hal_tim_ex.c ****   TIM_CCxChannelCmd(htim->Instance, TIM_CHANNEL_1, TIM_CCx_DISABLE);
 669              		.loc 1 461 0
 670 0002 0022     		movs	r2, #0
 455:Drivers/STM32L4xx_HAL_Driver/Src/stm32l4xx_hal_tim_ex.c ****   /* Check the parameters */
 671              		.loc 1 455 0
 672 0004 0446     		mov	r4, r0
 673              		.loc 1 461 0
 674 0006 1146     		mov	r1, r2
 675 0008 0068     		ldr	r0, [r0]
 676              	.LVL44:
 677 000a FFF7FEFF 		bl	TIM_CCxChannelCmd
 678              	.LVL45:
 462:Drivers/STM32L4xx_HAL_Driver/Src/stm32l4xx_hal_tim_ex.c **** 
 463:Drivers/STM32L4xx_HAL_Driver/Src/stm32l4xx_hal_tim_ex.c **** 
 464:Drivers/STM32L4xx_HAL_Driver/Src/stm32l4xx_hal_tim_ex.c ****   /* Disable the capture compare Interrupts 1 event */
 465:Drivers/STM32L4xx_HAL_Driver/Src/stm32l4xx_hal_tim_ex.c ****   __HAL_TIM_DISABLE_DMA(htim, TIM_DMA_CC1);
 679              		.loc 1 465 0
 680 000e 2268     		ldr	r2, [r4]
 466:Drivers/STM32L4xx_HAL_Driver/Src/stm32l4xx_hal_tim_ex.c **** 
 467:Drivers/STM32L4xx_HAL_Driver/Src/stm32l4xx_hal_tim_ex.c ****   (void)HAL_DMA_Abort_IT(htim->hdma[TIM_DMA_ID_CC1]);
 681              		.loc 1 467 0
 682 0010 606A     		ldr	r0, [r4, #36]
 465:Drivers/STM32L4xx_HAL_Driver/Src/stm32l4xx_hal_tim_ex.c **** 
 683              		.loc 1 465 0
 684 0012 D368     		ldr	r3, [r2, #12]
 685 0014 23F40073 		bic	r3, r3, #512
 686 0018 D360     		str	r3, [r2, #12]
 687              		.loc 1 467 0
 688 001a FFF7FEFF 		bl	HAL_DMA_Abort_IT
 689              	.LVL46:
 468:Drivers/STM32L4xx_HAL_Driver/Src/stm32l4xx_hal_tim_ex.c ****   /* Disable the Peripheral */
 469:Drivers/STM32L4xx_HAL_Driver/Src/stm32l4xx_hal_tim_ex.c ****   __HAL_TIM_DISABLE(htim);
 690              		.loc 1 469 0
 691 001e 2368     		ldr	r3, [r4]
 692 0020 196A     		ldr	r1, [r3, #32]
 693 0022 41F21112 		movw	r2, #4369
 694 0026 1142     		tst	r1, r2
 695 0028 08D1     		bne	.L65
 696              		.loc 1 469 0 is_stmt 0 discriminator 1
 697 002a 196A     		ldr	r1, [r3, #32]
 698 002c 40F24442 		movw	r2, #1092
 699 0030 1142     		tst	r1, r2
 700 0032 03D1     		bne	.L65
ARM GAS  /tmp/ccByjmRO.s 			page 22


 701              		.loc 1 469 0 discriminator 2
 702 0034 1A68     		ldr	r2, [r3]
 703 0036 22F00102 		bic	r2, r2, #1
 704 003a 1A60     		str	r2, [r3]
 705              	.L65:
 470:Drivers/STM32L4xx_HAL_Driver/Src/stm32l4xx_hal_tim_ex.c **** 
 471:Drivers/STM32L4xx_HAL_Driver/Src/stm32l4xx_hal_tim_ex.c ****   /* Return function status */
 472:Drivers/STM32L4xx_HAL_Driver/Src/stm32l4xx_hal_tim_ex.c ****   return HAL_OK;
 473:Drivers/STM32L4xx_HAL_Driver/Src/stm32l4xx_hal_tim_ex.c **** }
 706              		.loc 1 473 0 is_stmt 1
 707 003c 0020     		movs	r0, #0
 708 003e 10BD     		pop	{r4, pc}
 709              		.cfi_endproc
 710              	.LFE139:
 712              		.section	.text.HAL_TIMEx_OCN_Start,"ax",%progbits
 713              		.align	1
 714              		.p2align 2,,3
 715              		.global	HAL_TIMEx_OCN_Start
 716              		.syntax unified
 717              		.thumb
 718              		.thumb_func
 719              		.fpu fpv4-sp-d16
 721              	HAL_TIMEx_OCN_Start:
 722              	.LFB191:
 723              		.cfi_startproc
 724              		@ args = 0, pretend = 0, frame = 0
 725              		@ frame_needed = 0, uses_anonymous_args = 0
 726              		@ link register save eliminated.
 727 0000 0368     		ldr	r3, [r0]
 728 0002 1048     		ldr	r0, .L76
 729 0004 10B4     		push	{r4}
 730              	.LCFI12:
 731              		.cfi_def_cfa_offset 4
 732              		.cfi_offset 4, -4
 733 0006 0422     		movs	r2, #4
 734 0008 1C6A     		ldr	r4, [r3, #32]
 735 000a 01F01F01 		and	r1, r1, #31
 736 000e 02FA01F1 		lsl	r1, r2, r1
 737 0012 24EA0104 		bic	r4, r4, r1
 738 0016 1C62     		str	r4, [r3, #32]
 739 0018 1A6A     		ldr	r2, [r3, #32]
 740 001a 1143     		orrs	r1, r1, r2
 741 001c 1962     		str	r1, [r3, #32]
 742 001e 5A6C     		ldr	r2, [r3, #68]
 743 0020 42F40042 		orr	r2, r2, #32768
 744 0024 5A64     		str	r2, [r3, #68]
 745 0026 9A68     		ldr	r2, [r3, #8]
 746 0028 1040     		ands	r0, r0, r2
 747 002a 0628     		cmp	r0, #6
 748 002c 06D0     		beq	.L68
 749 002e B0F5803F 		cmp	r0, #65536
 750 0032 03D0     		beq	.L68
 751 0034 1A68     		ldr	r2, [r3]
 752 0036 42F00102 		orr	r2, r2, #1
 753 003a 1A60     		str	r2, [r3]
 754              	.L68:
 755 003c 0020     		movs	r0, #0
ARM GAS  /tmp/ccByjmRO.s 			page 23


 756 003e 5DF8044B 		ldr	r4, [sp], #4
 757              	.LCFI13:
 758              		.cfi_restore 4
 759              		.cfi_def_cfa_offset 0
 760 0042 7047     		bx	lr
 761              	.L77:
 762              		.align	2
 763              	.L76:
 764 0044 07000100 		.word	65543
 765              		.cfi_endproc
 766              	.LFE191:
 768              		.section	.text.HAL_TIMEx_OCN_Stop,"ax",%progbits
 769              		.align	1
 770              		.p2align 2,,3
 771              		.global	HAL_TIMEx_OCN_Stop
 772              		.syntax unified
 773              		.thumb
 774              		.thumb_func
 775              		.fpu fpv4-sp-d16
 777              	HAL_TIMEx_OCN_Stop:
 778              	.LFB177:
 779              		.cfi_startproc
 780              		@ args = 0, pretend = 0, frame = 0
 781              		@ frame_needed = 0, uses_anonymous_args = 0
 782              		@ link register save eliminated.
 783 0000 0368     		ldr	r3, [r0]
 784 0002 01F01F00 		and	r0, r1, #31
 785 0006 1A6A     		ldr	r2, [r3, #32]
 786 0008 0421     		movs	r1, #4
 787 000a 8140     		lsls	r1, r1, r0
 788 000c 22EA0101 		bic	r1, r2, r1
 789 0010 1962     		str	r1, [r3, #32]
 790 0012 1A6A     		ldr	r2, [r3, #32]
 791 0014 1A62     		str	r2, [r3, #32]
 792 0016 196A     		ldr	r1, [r3, #32]
 793 0018 41F21112 		movw	r2, #4369
 794 001c 1142     		tst	r1, r2
 795 001e 04D1     		bne	.L79
 796 0020 196A     		ldr	r1, [r3, #32]
 797 0022 40F24442 		movw	r2, #1092
 798 0026 1142     		tst	r1, r2
 799 0028 0FD0     		beq	.L81
 800              	.L79:
 801 002a 196A     		ldr	r1, [r3, #32]
 802 002c 41F21112 		movw	r2, #4369
 803 0030 1142     		tst	r1, r2
 804 0032 08D1     		bne	.L80
 805 0034 196A     		ldr	r1, [r3, #32]
 806 0036 40F24442 		movw	r2, #1092
 807 003a 1142     		tst	r1, r2
 808 003c 03D1     		bne	.L80
 809 003e 1A68     		ldr	r2, [r3]
 810 0040 22F00102 		bic	r2, r2, #1
 811 0044 1A60     		str	r2, [r3]
 812              	.L80:
 813 0046 0020     		movs	r0, #0
 814 0048 7047     		bx	lr
ARM GAS  /tmp/ccByjmRO.s 			page 24


 815              	.L81:
 816 004a 5A6C     		ldr	r2, [r3, #68]
 817 004c 22F40042 		bic	r2, r2, #32768
 818 0050 5A64     		str	r2, [r3, #68]
 819 0052 EAE7     		b	.L79
 820              		.cfi_endproc
 821              	.LFE177:
 823              		.section	.text.HAL_TIMEx_OCN_Start_IT,"ax",%progbits
 824              		.align	1
 825              		.p2align 2,,3
 826              		.global	HAL_TIMEx_OCN_Start_IT
 827              		.syntax unified
 828              		.thumb
 829              		.thumb_func
 830              		.fpu fpv4-sp-d16
 832              	HAL_TIMEx_OCN_Start_IT:
 833              	.LFB173:
 834              		.cfi_startproc
 835              		@ args = 0, pretend = 0, frame = 0
 836              		@ frame_needed = 0, uses_anonymous_args = 0
 837              		@ link register save eliminated.
 838 0000 0429     		cmp	r1, #4
 839 0002 10B4     		push	{r4}
 840              	.LCFI14:
 841              		.cfi_def_cfa_offset 4
 842              		.cfi_offset 4, -4
 843 0004 0368     		ldr	r3, [r0]
 844 0006 2FD0     		beq	.L84
 845 0008 0829     		cmp	r1, #8
 846 000a 28D0     		beq	.L85
 847 000c 11B3     		cbz	r1, .L96
 848              	.L87:
 849 000e DA68     		ldr	r2, [r3, #12]
 850 0010 1848     		ldr	r0, .L97
 851 0012 42F08002 		orr	r2, r2, #128
 852 0016 DA60     		str	r2, [r3, #12]
 853 0018 1C6A     		ldr	r4, [r3, #32]
 854 001a 01F01F02 		and	r2, r1, #31
 855 001e 0421     		movs	r1, #4
 856 0020 9140     		lsls	r1, r1, r2
 857 0022 24EA0104 		bic	r4, r4, r1
 858 0026 1C62     		str	r4, [r3, #32]
 859 0028 1A6A     		ldr	r2, [r3, #32]
 860 002a 1143     		orrs	r1, r1, r2
 861 002c 1962     		str	r1, [r3, #32]
 862 002e 5A6C     		ldr	r2, [r3, #68]
 863 0030 42F40042 		orr	r2, r2, #32768
 864 0034 5A64     		str	r2, [r3, #68]
 865 0036 9A68     		ldr	r2, [r3, #8]
 866 0038 1040     		ands	r0, r0, r2
 867 003a 0628     		cmp	r0, #6
 868 003c 06D0     		beq	.L88
 869 003e B0F5803F 		cmp	r0, #65536
 870 0042 03D0     		beq	.L88
 871 0044 1A68     		ldr	r2, [r3]
 872 0046 42F00102 		orr	r2, r2, #1
 873 004a 1A60     		str	r2, [r3]
ARM GAS  /tmp/ccByjmRO.s 			page 25


 874              	.L88:
 875 004c 0020     		movs	r0, #0
 876 004e 5DF8044B 		ldr	r4, [sp], #4
 877              	.LCFI15:
 878              		.cfi_remember_state
 879              		.cfi_restore 4
 880              		.cfi_def_cfa_offset 0
 881 0052 7047     		bx	lr
 882              	.L96:
 883              	.LCFI16:
 884              		.cfi_restore_state
 885 0054 DA68     		ldr	r2, [r3, #12]
 886 0056 42F00202 		orr	r2, r2, #2
 887 005a DA60     		str	r2, [r3, #12]
 888 005c D7E7     		b	.L87
 889              	.L85:
 890 005e DA68     		ldr	r2, [r3, #12]
 891 0060 42F00802 		orr	r2, r2, #8
 892 0064 DA60     		str	r2, [r3, #12]
 893 0066 D2E7     		b	.L87
 894              	.L84:
 895 0068 DA68     		ldr	r2, [r3, #12]
 896 006a 42F00402 		orr	r2, r2, #4
 897 006e DA60     		str	r2, [r3, #12]
 898 0070 CDE7     		b	.L87
 899              	.L98:
 900 0072 00BF     		.align	2
 901              	.L97:
 902 0074 07000100 		.word	65543
 903              		.cfi_endproc
 904              	.LFE173:
 906              		.section	.text.HAL_TIMEx_OCN_Stop_IT,"ax",%progbits
 907              		.align	1
 908              		.p2align 2,,3
 909              		.global	HAL_TIMEx_OCN_Stop_IT
 910              		.syntax unified
 911              		.thumb
 912              		.thumb_func
 913              		.fpu fpv4-sp-d16
 915              	HAL_TIMEx_OCN_Stop_IT:
 916              	.LFB189:
 917              		.cfi_startproc
 918              		@ args = 0, pretend = 0, frame = 0
 919              		@ frame_needed = 0, uses_anonymous_args = 0
 920              		@ link register save eliminated.
 921 0000 0429     		cmp	r1, #4
 922 0002 0368     		ldr	r3, [r0]
 923 0004 40D0     		beq	.L101
 924 0006 0829     		cmp	r1, #8
 925 0008 39D0     		beq	.L102
 926 000a 0029     		cmp	r1, #0
 927 000c 32D0     		beq	.L108
 928              	.L104:
 929 000e 1A6A     		ldr	r2, [r3, #32]
 930 0010 01F01F01 		and	r1, r1, #31
 931 0014 0420     		movs	r0, #4
 932 0016 00FA01F1 		lsl	r1, r0, r1
ARM GAS  /tmp/ccByjmRO.s 			page 26


 933 001a 22EA0101 		bic	r1, r2, r1
 934 001e 1962     		str	r1, [r3, #32]
 935 0020 1A6A     		ldr	r2, [r3, #32]
 936 0022 1A62     		str	r2, [r3, #32]
 937 0024 196A     		ldr	r1, [r3, #32]
 938 0026 40F24442 		movw	r2, #1092
 939 002a 1142     		tst	r1, r2
 940 002c 03D1     		bne	.L105
 941 002e DA68     		ldr	r2, [r3, #12]
 942 0030 22F08002 		bic	r2, r2, #128
 943 0034 DA60     		str	r2, [r3, #12]
 944              	.L105:
 945 0036 196A     		ldr	r1, [r3, #32]
 946 0038 41F21112 		movw	r2, #4369
 947 003c 1142     		tst	r1, r2
 948 003e 04D1     		bne	.L106
 949 0040 196A     		ldr	r1, [r3, #32]
 950 0042 40F24442 		movw	r2, #1092
 951 0046 1142     		tst	r1, r2
 952 0048 0FD0     		beq	.L109
 953              	.L106:
 954 004a 196A     		ldr	r1, [r3, #32]
 955 004c 41F21112 		movw	r2, #4369
 956 0050 1142     		tst	r1, r2
 957 0052 08D1     		bne	.L107
 958 0054 196A     		ldr	r1, [r3, #32]
 959 0056 40F24442 		movw	r2, #1092
 960 005a 1142     		tst	r1, r2
 961 005c 03D1     		bne	.L107
 962 005e 1A68     		ldr	r2, [r3]
 963 0060 22F00102 		bic	r2, r2, #1
 964 0064 1A60     		str	r2, [r3]
 965              	.L107:
 966 0066 0020     		movs	r0, #0
 967 0068 7047     		bx	lr
 968              	.L109:
 969 006a 5A6C     		ldr	r2, [r3, #68]
 970 006c 22F40042 		bic	r2, r2, #32768
 971 0070 5A64     		str	r2, [r3, #68]
 972 0072 EAE7     		b	.L106
 973              	.L108:
 974 0074 DA68     		ldr	r2, [r3, #12]
 975 0076 22F00202 		bic	r2, r2, #2
 976 007a DA60     		str	r2, [r3, #12]
 977 007c C7E7     		b	.L104
 978              	.L102:
 979 007e DA68     		ldr	r2, [r3, #12]
 980 0080 22F00802 		bic	r2, r2, #8
 981 0084 DA60     		str	r2, [r3, #12]
 982 0086 C2E7     		b	.L104
 983              	.L101:
 984 0088 DA68     		ldr	r2, [r3, #12]
 985 008a 22F00402 		bic	r2, r2, #4
 986 008e DA60     		str	r2, [r3, #12]
 987 0090 BDE7     		b	.L104
 988              		.cfi_endproc
 989              	.LFE189:
ARM GAS  /tmp/ccByjmRO.s 			page 27


 991 0092 00BF     		.section	.text.HAL_TIMEx_OCN_Start_DMA,"ax",%progbits
 992              		.align	1
 993              		.p2align 2,,3
 994              		.global	HAL_TIMEx_OCN_Start_DMA
 995              		.syntax unified
 996              		.thumb
 997              		.thumb_func
 998              		.fpu fpv4-sp-d16
 1000              	HAL_TIMEx_OCN_Start_DMA:
 1001              	.LFB195:
 1002              		.cfi_startproc
 1003              		@ args = 0, pretend = 0, frame = 0
 1004              		@ frame_needed = 0, uses_anonymous_args = 0
 1005 0000 F8B5     		push	{r3, r4, r5, r6, r7, lr}
 1006              	.LCFI17:
 1007              		.cfi_def_cfa_offset 24
 1008              		.cfi_offset 3, -24
 1009              		.cfi_offset 4, -20
 1010              		.cfi_offset 5, -16
 1011              		.cfi_offset 6, -12
 1012              		.cfi_offset 7, -8
 1013              		.cfi_offset 14, -4
 1014 0002 90F83D40 		ldrb	r4, [r0, #61]	@ zero_extendqisi2
 1015 0006 E4B2     		uxtb	r4, r4
 1016 0008 022C     		cmp	r4, #2
 1017 000a 2AD0     		beq	.L120
 1018 000c 90F83D40 		ldrb	r4, [r0, #61]	@ zero_extendqisi2
 1019 0010 012C     		cmp	r4, #1
 1020 0012 28D0     		beq	.L127
 1021 0014 0429     		cmp	r1, #4
 1022 0016 0D46     		mov	r5, r1
 1023 0018 0446     		mov	r4, r0
 1024 001a 2ED0     		beq	.L115
 1025              	.L128:
 1026 001c 0829     		cmp	r1, #8
 1027 001e 58D0     		beq	.L116
 1028 0020 0029     		cmp	r1, #0
 1029 0022 3ED0     		beq	.L117
 1030 0024 0268     		ldr	r2, [r0]
 1031              	.L118:
 1032 0026 106A     		ldr	r0, [r2, #32]
 1033 0028 344B     		ldr	r3, .L129
 1034 002a 0421     		movs	r1, #4
 1035 002c 05F01F05 		and	r5, r5, #31
 1036 0030 01FA05F5 		lsl	r5, r1, r5
 1037 0034 20EA0500 		bic	r0, r0, r5
 1038 0038 1062     		str	r0, [r2, #32]
 1039 003a 116A     		ldr	r1, [r2, #32]
 1040 003c 0D43     		orrs	r5, r5, r1
 1041 003e 1562     		str	r5, [r2, #32]
 1042 0040 516C     		ldr	r1, [r2, #68]
 1043 0042 41F40041 		orr	r1, r1, #32768
 1044 0046 5164     		str	r1, [r2, #68]
 1045 0048 9168     		ldr	r1, [r2, #8]
 1046 004a 0B40     		ands	r3, r3, r1
 1047 004c 062B     		cmp	r3, #6
 1048 004e 3ED0     		beq	.L122
ARM GAS  /tmp/ccByjmRO.s 			page 28


 1049 0050 B3F5803F 		cmp	r3, #65536
 1050 0054 3BD0     		beq	.L122
 1051 0056 1368     		ldr	r3, [r2]
 1052 0058 43F00103 		orr	r3, r3, #1
 1053 005c 1360     		str	r3, [r2]
 1054 005e 0020     		movs	r0, #0
 1055 0060 F8BD     		pop	{r3, r4, r5, r6, r7, pc}
 1056              	.L120:
 1057 0062 2046     		mov	r0, r4
 1058 0064 F8BD     		pop	{r3, r4, r5, r6, r7, pc}
 1059              	.L127:
 1060 0066 0AB9     		cbnz	r2, .L113
 1061 0068 002B     		cmp	r3, #0
 1062 006a 2ED1     		bne	.L119
 1063              	.L113:
 1064 006c 0224     		movs	r4, #2
 1065 006e 0429     		cmp	r1, #4
 1066 0070 80F83D40 		strb	r4, [r0, #61]
 1067 0074 0D46     		mov	r5, r1
 1068 0076 0446     		mov	r4, r0
 1069 0078 D0D1     		bne	.L128
 1070              	.L115:
 1071 007a 806A     		ldr	r0, [r0, #40]
 1072 007c 2668     		ldr	r6, [r4]
 1073 007e 204F     		ldr	r7, .L129+4
 1074 0080 2049     		ldr	r1, .L129+8
 1075 0082 C762     		str	r7, [r0, #44]
 1076 0084 204F     		ldr	r7, .L129+12
 1077 0086 0163     		str	r1, [r0, #48]
 1078 0088 4763     		str	r7, [r0, #52]
 1079 008a 1146     		mov	r1, r2
 1080 008c 06F13802 		add	r2, r6, #56
 1081 0090 FFF7FEFF 		bl	HAL_DMA_Start_IT
 1082 0094 C8B9     		cbnz	r0, .L119
 1083 0096 2268     		ldr	r2, [r4]
 1084 0098 D368     		ldr	r3, [r2, #12]
 1085 009a 43F48063 		orr	r3, r3, #1024
 1086 009e D360     		str	r3, [r2, #12]
 1087 00a0 C1E7     		b	.L118
 1088              	.L117:
 1089 00a2 406A     		ldr	r0, [r0, #36]
 1090 00a4 2668     		ldr	r6, [r4]
 1091 00a6 164F     		ldr	r7, .L129+4
 1092 00a8 1649     		ldr	r1, .L129+8
 1093 00aa C762     		str	r7, [r0, #44]
 1094 00ac 164F     		ldr	r7, .L129+12
 1095 00ae 0163     		str	r1, [r0, #48]
 1096 00b0 4763     		str	r7, [r0, #52]
 1097 00b2 1146     		mov	r1, r2
 1098 00b4 06F13402 		add	r2, r6, #52
 1099 00b8 FFF7FEFF 		bl	HAL_DMA_Start_IT
 1100 00bc 28B9     		cbnz	r0, .L119
 1101 00be 2268     		ldr	r2, [r4]
 1102 00c0 D368     		ldr	r3, [r2, #12]
 1103 00c2 43F40073 		orr	r3, r3, #512
 1104 00c6 D360     		str	r3, [r2, #12]
 1105 00c8 ADE7     		b	.L118
ARM GAS  /tmp/ccByjmRO.s 			page 29


 1106              	.L119:
 1107 00ca 0120     		movs	r0, #1
 1108 00cc F8BD     		pop	{r3, r4, r5, r6, r7, pc}
 1109              	.L122:
 1110 00ce 0020     		movs	r0, #0
 1111 00d0 F8BD     		pop	{r3, r4, r5, r6, r7, pc}
 1112              	.L116:
 1113 00d2 C06A     		ldr	r0, [r0, #44]
 1114 00d4 2668     		ldr	r6, [r4]
 1115 00d6 0A4F     		ldr	r7, .L129+4
 1116 00d8 0A49     		ldr	r1, .L129+8
 1117 00da C762     		str	r7, [r0, #44]
 1118 00dc 0A4F     		ldr	r7, .L129+12
 1119 00de 0163     		str	r1, [r0, #48]
 1120 00e0 4763     		str	r7, [r0, #52]
 1121 00e2 1146     		mov	r1, r2
 1122 00e4 06F13C02 		add	r2, r6, #60
 1123 00e8 FFF7FEFF 		bl	HAL_DMA_Start_IT
 1124 00ec 0028     		cmp	r0, #0
 1125 00ee ECD1     		bne	.L119
 1126 00f0 2268     		ldr	r2, [r4]
 1127 00f2 D368     		ldr	r3, [r2, #12]
 1128 00f4 43F40063 		orr	r3, r3, #2048
 1129 00f8 D360     		str	r3, [r2, #12]
 1130 00fa 94E7     		b	.L118
 1131              	.L130:
 1132              		.align	2
 1133              	.L129:
 1134 00fc 07000100 		.word	65543
 1135 0100 00000000 		.word	TIM_DMADelayPulseCplt
 1136 0104 00000000 		.word	TIM_DMADelayPulseHalfCplt
 1137 0108 00000000 		.word	TIM_DMAError
 1138              		.cfi_endproc
 1139              	.LFE195:
 1141              		.section	.text.HAL_TIMEx_OCN_Stop_DMA,"ax",%progbits
 1142              		.align	1
 1143              		.p2align 2,,3
 1144              		.global	HAL_TIMEx_OCN_Stop_DMA
 1145              		.syntax unified
 1146              		.thumb
 1147              		.thumb_func
 1148              		.fpu fpv4-sp-d16
 1150              	HAL_TIMEx_OCN_Stop_DMA:
 1151              	.LFB193:
 1152              		.cfi_startproc
 1153              		@ args = 0, pretend = 0, frame = 0
 1154              		@ frame_needed = 0, uses_anonymous_args = 0
 1155 0000 0429     		cmp	r1, #4
 1156 0002 38B5     		push	{r3, r4, r5, lr}
 1157              	.LCFI18:
 1158              		.cfi_def_cfa_offset 16
 1159              		.cfi_offset 3, -16
 1160              		.cfi_offset 4, -12
 1161              		.cfi_offset 5, -8
 1162              		.cfi_offset 14, -4
 1163 0004 0C46     		mov	r4, r1
 1164 0006 0546     		mov	r5, r0
ARM GAS  /tmp/ccByjmRO.s 			page 30


 1165 0008 42D0     		beq	.L133
 1166 000a 0829     		cmp	r1, #8
 1167 000c 37D0     		beq	.L134
 1168 000e 69B3     		cbz	r1, .L139
 1169              	.L132:
 1170 0010 2B68     		ldr	r3, [r5]
 1171 0012 0421     		movs	r1, #4
 1172 0014 1A6A     		ldr	r2, [r3, #32]
 1173 0016 04F01F04 		and	r4, r4, #31
 1174 001a 01FA04F4 		lsl	r4, r1, r4
 1175 001e 22EA0404 		bic	r4, r2, r4
 1176 0022 1C62     		str	r4, [r3, #32]
 1177 0024 1A6A     		ldr	r2, [r3, #32]
 1178 0026 1A62     		str	r2, [r3, #32]
 1179 0028 196A     		ldr	r1, [r3, #32]
 1180 002a 41F21112 		movw	r2, #4369
 1181 002e 1142     		tst	r1, r2
 1182 0030 04D1     		bne	.L136
 1183 0032 196A     		ldr	r1, [r3, #32]
 1184 0034 40F24442 		movw	r2, #1092
 1185 0038 1142     		tst	r1, r2
 1186 003a 12D0     		beq	.L140
 1187              	.L136:
 1188 003c 196A     		ldr	r1, [r3, #32]
 1189 003e 41F21112 		movw	r2, #4369
 1190 0042 1142     		tst	r1, r2
 1191 0044 08D1     		bne	.L137
 1192 0046 196A     		ldr	r1, [r3, #32]
 1193 0048 40F24442 		movw	r2, #1092
 1194 004c 1142     		tst	r1, r2
 1195 004e 03D1     		bne	.L137
 1196 0050 1A68     		ldr	r2, [r3]
 1197 0052 22F00102 		bic	r2, r2, #1
 1198 0056 1A60     		str	r2, [r3]
 1199              	.L137:
 1200 0058 0123     		movs	r3, #1
 1201 005a 85F83D30 		strb	r3, [r5, #61]
 1202 005e 0020     		movs	r0, #0
 1203 0060 38BD     		pop	{r3, r4, r5, pc}
 1204              	.L140:
 1205 0062 5A6C     		ldr	r2, [r3, #68]
 1206 0064 22F40042 		bic	r2, r2, #32768
 1207 0068 5A64     		str	r2, [r3, #68]
 1208 006a E7E7     		b	.L136
 1209              	.L139:
 1210 006c 0268     		ldr	r2, [r0]
 1211 006e 406A     		ldr	r0, [r0, #36]
 1212 0070 D368     		ldr	r3, [r2, #12]
 1213 0072 23F40073 		bic	r3, r3, #512
 1214 0076 D360     		str	r3, [r2, #12]
 1215 0078 FFF7FEFF 		bl	HAL_DMA_Abort_IT
 1216 007c C8E7     		b	.L132
 1217              	.L134:
 1218 007e 0268     		ldr	r2, [r0]
 1219 0080 C06A     		ldr	r0, [r0, #44]
 1220 0082 D368     		ldr	r3, [r2, #12]
 1221 0084 23F40063 		bic	r3, r3, #2048
ARM GAS  /tmp/ccByjmRO.s 			page 31


 1222 0088 D360     		str	r3, [r2, #12]
 1223 008a FFF7FEFF 		bl	HAL_DMA_Abort_IT
 1224 008e BFE7     		b	.L132
 1225              	.L133:
 1226 0090 0268     		ldr	r2, [r0]
 1227 0092 806A     		ldr	r0, [r0, #40]
 1228 0094 D368     		ldr	r3, [r2, #12]
 1229 0096 23F48063 		bic	r3, r3, #1024
 1230 009a D360     		str	r3, [r2, #12]
 1231 009c FFF7FEFF 		bl	HAL_DMA_Abort_IT
 1232 00a0 B6E7     		b	.L132
 1233              		.cfi_endproc
 1234              	.LFE193:
 1236 00a2 00BF     		.section	.text.HAL_TIMEx_PWMN_Start,"ax",%progbits
 1237              		.align	1
 1238              		.p2align 2,,3
 1239              		.global	HAL_TIMEx_PWMN_Start
 1240              		.syntax unified
 1241              		.thumb
 1242              		.thumb_func
 1243              		.fpu fpv4-sp-d16
 1245              	HAL_TIMEx_PWMN_Start:
 1246              	.LFB146:
 474:Drivers/STM32L4xx_HAL_Driver/Src/stm32l4xx_hal_tim_ex.c **** 
 475:Drivers/STM32L4xx_HAL_Driver/Src/stm32l4xx_hal_tim_ex.c **** /**
 476:Drivers/STM32L4xx_HAL_Driver/Src/stm32l4xx_hal_tim_ex.c ****   * @}
 477:Drivers/STM32L4xx_HAL_Driver/Src/stm32l4xx_hal_tim_ex.c ****   */
 478:Drivers/STM32L4xx_HAL_Driver/Src/stm32l4xx_hal_tim_ex.c **** 
 479:Drivers/STM32L4xx_HAL_Driver/Src/stm32l4xx_hal_tim_ex.c **** /** @defgroup TIMEx_Exported_Functions_Group2 Extended Timer Complementary Output Compare functions
 480:Drivers/STM32L4xx_HAL_Driver/Src/stm32l4xx_hal_tim_ex.c ****   *  @brief   Timer Complementary Output Compare functions
 481:Drivers/STM32L4xx_HAL_Driver/Src/stm32l4xx_hal_tim_ex.c ****   *
 482:Drivers/STM32L4xx_HAL_Driver/Src/stm32l4xx_hal_tim_ex.c **** @verbatim
 483:Drivers/STM32L4xx_HAL_Driver/Src/stm32l4xx_hal_tim_ex.c ****   ==============================================================================
 484:Drivers/STM32L4xx_HAL_Driver/Src/stm32l4xx_hal_tim_ex.c ****               ##### Timer Complementary Output Compare functions #####
 485:Drivers/STM32L4xx_HAL_Driver/Src/stm32l4xx_hal_tim_ex.c ****   ==============================================================================
 486:Drivers/STM32L4xx_HAL_Driver/Src/stm32l4xx_hal_tim_ex.c ****   [..]
 487:Drivers/STM32L4xx_HAL_Driver/Src/stm32l4xx_hal_tim_ex.c ****     This section provides functions allowing to:
 488:Drivers/STM32L4xx_HAL_Driver/Src/stm32l4xx_hal_tim_ex.c ****     (+) Start the Complementary Output Compare/PWM.
 489:Drivers/STM32L4xx_HAL_Driver/Src/stm32l4xx_hal_tim_ex.c ****     (+) Stop the Complementary Output Compare/PWM.
 490:Drivers/STM32L4xx_HAL_Driver/Src/stm32l4xx_hal_tim_ex.c ****     (+) Start the Complementary Output Compare/PWM and enable interrupts.
 491:Drivers/STM32L4xx_HAL_Driver/Src/stm32l4xx_hal_tim_ex.c ****     (+) Stop the Complementary Output Compare/PWM and disable interrupts.
 492:Drivers/STM32L4xx_HAL_Driver/Src/stm32l4xx_hal_tim_ex.c ****     (+) Start the Complementary Output Compare/PWM and enable DMA transfers.
 493:Drivers/STM32L4xx_HAL_Driver/Src/stm32l4xx_hal_tim_ex.c ****     (+) Stop the Complementary Output Compare/PWM and disable DMA transfers.
 494:Drivers/STM32L4xx_HAL_Driver/Src/stm32l4xx_hal_tim_ex.c **** 
 495:Drivers/STM32L4xx_HAL_Driver/Src/stm32l4xx_hal_tim_ex.c **** @endverbatim
 496:Drivers/STM32L4xx_HAL_Driver/Src/stm32l4xx_hal_tim_ex.c ****   * @{
 497:Drivers/STM32L4xx_HAL_Driver/Src/stm32l4xx_hal_tim_ex.c ****   */
 498:Drivers/STM32L4xx_HAL_Driver/Src/stm32l4xx_hal_tim_ex.c **** 
 499:Drivers/STM32L4xx_HAL_Driver/Src/stm32l4xx_hal_tim_ex.c **** /**
 500:Drivers/STM32L4xx_HAL_Driver/Src/stm32l4xx_hal_tim_ex.c ****   * @brief  Starts the TIM Output Compare signal generation on the complementary
 501:Drivers/STM32L4xx_HAL_Driver/Src/stm32l4xx_hal_tim_ex.c ****   *         output.
 502:Drivers/STM32L4xx_HAL_Driver/Src/stm32l4xx_hal_tim_ex.c ****   * @param  htim TIM Output Compare handle
 503:Drivers/STM32L4xx_HAL_Driver/Src/stm32l4xx_hal_tim_ex.c ****   * @param  Channel TIM Channel to be enabled
 504:Drivers/STM32L4xx_HAL_Driver/Src/stm32l4xx_hal_tim_ex.c ****   *          This parameter can be one of the following values:
 505:Drivers/STM32L4xx_HAL_Driver/Src/stm32l4xx_hal_tim_ex.c ****   *            @arg TIM_CHANNEL_1: TIM Channel 1 selected
 506:Drivers/STM32L4xx_HAL_Driver/Src/stm32l4xx_hal_tim_ex.c ****   *            @arg TIM_CHANNEL_2: TIM Channel 2 selected
 507:Drivers/STM32L4xx_HAL_Driver/Src/stm32l4xx_hal_tim_ex.c ****   *            @arg TIM_CHANNEL_3: TIM Channel 3 selected
ARM GAS  /tmp/ccByjmRO.s 			page 32


 508:Drivers/STM32L4xx_HAL_Driver/Src/stm32l4xx_hal_tim_ex.c ****   * @retval HAL status
 509:Drivers/STM32L4xx_HAL_Driver/Src/stm32l4xx_hal_tim_ex.c ****   */
 510:Drivers/STM32L4xx_HAL_Driver/Src/stm32l4xx_hal_tim_ex.c **** HAL_StatusTypeDef HAL_TIMEx_OCN_Start(TIM_HandleTypeDef *htim, uint32_t Channel)
 511:Drivers/STM32L4xx_HAL_Driver/Src/stm32l4xx_hal_tim_ex.c **** {
 512:Drivers/STM32L4xx_HAL_Driver/Src/stm32l4xx_hal_tim_ex.c ****   uint32_t tmpsmcr;
 513:Drivers/STM32L4xx_HAL_Driver/Src/stm32l4xx_hal_tim_ex.c **** 
 514:Drivers/STM32L4xx_HAL_Driver/Src/stm32l4xx_hal_tim_ex.c ****   /* Check the parameters */
 515:Drivers/STM32L4xx_HAL_Driver/Src/stm32l4xx_hal_tim_ex.c ****   assert_param(IS_TIM_CCXN_INSTANCE(htim->Instance, Channel));
 516:Drivers/STM32L4xx_HAL_Driver/Src/stm32l4xx_hal_tim_ex.c **** 
 517:Drivers/STM32L4xx_HAL_Driver/Src/stm32l4xx_hal_tim_ex.c ****   /* Enable the Capture compare channel N */
 518:Drivers/STM32L4xx_HAL_Driver/Src/stm32l4xx_hal_tim_ex.c ****   TIM_CCxNChannelCmd(htim->Instance, Channel, TIM_CCxN_ENABLE);
 519:Drivers/STM32L4xx_HAL_Driver/Src/stm32l4xx_hal_tim_ex.c **** 
 520:Drivers/STM32L4xx_HAL_Driver/Src/stm32l4xx_hal_tim_ex.c ****   /* Enable the Main Output */
 521:Drivers/STM32L4xx_HAL_Driver/Src/stm32l4xx_hal_tim_ex.c ****   __HAL_TIM_MOE_ENABLE(htim);
 522:Drivers/STM32L4xx_HAL_Driver/Src/stm32l4xx_hal_tim_ex.c **** 
 523:Drivers/STM32L4xx_HAL_Driver/Src/stm32l4xx_hal_tim_ex.c ****   /* Enable the Peripheral, except in trigger mode where enable is automatically done with trigger 
 524:Drivers/STM32L4xx_HAL_Driver/Src/stm32l4xx_hal_tim_ex.c ****   tmpsmcr = htim->Instance->SMCR & TIM_SMCR_SMS;
 525:Drivers/STM32L4xx_HAL_Driver/Src/stm32l4xx_hal_tim_ex.c ****   if (!IS_TIM_SLAVEMODE_TRIGGER_ENABLED(tmpsmcr))
 526:Drivers/STM32L4xx_HAL_Driver/Src/stm32l4xx_hal_tim_ex.c ****   {
 527:Drivers/STM32L4xx_HAL_Driver/Src/stm32l4xx_hal_tim_ex.c ****     __HAL_TIM_ENABLE(htim);
 528:Drivers/STM32L4xx_HAL_Driver/Src/stm32l4xx_hal_tim_ex.c ****   }
 529:Drivers/STM32L4xx_HAL_Driver/Src/stm32l4xx_hal_tim_ex.c **** 
 530:Drivers/STM32L4xx_HAL_Driver/Src/stm32l4xx_hal_tim_ex.c ****   /* Return function status */
 531:Drivers/STM32L4xx_HAL_Driver/Src/stm32l4xx_hal_tim_ex.c ****   return HAL_OK;
 532:Drivers/STM32L4xx_HAL_Driver/Src/stm32l4xx_hal_tim_ex.c **** }
 533:Drivers/STM32L4xx_HAL_Driver/Src/stm32l4xx_hal_tim_ex.c **** 
 534:Drivers/STM32L4xx_HAL_Driver/Src/stm32l4xx_hal_tim_ex.c **** /**
 535:Drivers/STM32L4xx_HAL_Driver/Src/stm32l4xx_hal_tim_ex.c ****   * @brief  Stops the TIM Output Compare signal generation on the complementary
 536:Drivers/STM32L4xx_HAL_Driver/Src/stm32l4xx_hal_tim_ex.c ****   *         output.
 537:Drivers/STM32L4xx_HAL_Driver/Src/stm32l4xx_hal_tim_ex.c ****   * @param  htim TIM handle
 538:Drivers/STM32L4xx_HAL_Driver/Src/stm32l4xx_hal_tim_ex.c ****   * @param  Channel TIM Channel to be disabled
 539:Drivers/STM32L4xx_HAL_Driver/Src/stm32l4xx_hal_tim_ex.c ****   *          This parameter can be one of the following values:
 540:Drivers/STM32L4xx_HAL_Driver/Src/stm32l4xx_hal_tim_ex.c ****   *            @arg TIM_CHANNEL_1: TIM Channel 1 selected
 541:Drivers/STM32L4xx_HAL_Driver/Src/stm32l4xx_hal_tim_ex.c ****   *            @arg TIM_CHANNEL_2: TIM Channel 2 selected
 542:Drivers/STM32L4xx_HAL_Driver/Src/stm32l4xx_hal_tim_ex.c ****   *            @arg TIM_CHANNEL_3: TIM Channel 3 selected
 543:Drivers/STM32L4xx_HAL_Driver/Src/stm32l4xx_hal_tim_ex.c ****   * @retval HAL status
 544:Drivers/STM32L4xx_HAL_Driver/Src/stm32l4xx_hal_tim_ex.c ****   */
 545:Drivers/STM32L4xx_HAL_Driver/Src/stm32l4xx_hal_tim_ex.c **** HAL_StatusTypeDef HAL_TIMEx_OCN_Stop(TIM_HandleTypeDef *htim, uint32_t Channel)
 546:Drivers/STM32L4xx_HAL_Driver/Src/stm32l4xx_hal_tim_ex.c **** {
 547:Drivers/STM32L4xx_HAL_Driver/Src/stm32l4xx_hal_tim_ex.c ****   /* Check the parameters */
 548:Drivers/STM32L4xx_HAL_Driver/Src/stm32l4xx_hal_tim_ex.c ****   assert_param(IS_TIM_CCXN_INSTANCE(htim->Instance, Channel));
 549:Drivers/STM32L4xx_HAL_Driver/Src/stm32l4xx_hal_tim_ex.c **** 
 550:Drivers/STM32L4xx_HAL_Driver/Src/stm32l4xx_hal_tim_ex.c ****   /* Disable the Capture compare channel N */
 551:Drivers/STM32L4xx_HAL_Driver/Src/stm32l4xx_hal_tim_ex.c ****   TIM_CCxNChannelCmd(htim->Instance, Channel, TIM_CCxN_DISABLE);
 552:Drivers/STM32L4xx_HAL_Driver/Src/stm32l4xx_hal_tim_ex.c **** 
 553:Drivers/STM32L4xx_HAL_Driver/Src/stm32l4xx_hal_tim_ex.c ****   /* Disable the Main Output */
 554:Drivers/STM32L4xx_HAL_Driver/Src/stm32l4xx_hal_tim_ex.c ****   __HAL_TIM_MOE_DISABLE(htim);
 555:Drivers/STM32L4xx_HAL_Driver/Src/stm32l4xx_hal_tim_ex.c **** 
 556:Drivers/STM32L4xx_HAL_Driver/Src/stm32l4xx_hal_tim_ex.c ****   /* Disable the Peripheral */
 557:Drivers/STM32L4xx_HAL_Driver/Src/stm32l4xx_hal_tim_ex.c ****   __HAL_TIM_DISABLE(htim);
 558:Drivers/STM32L4xx_HAL_Driver/Src/stm32l4xx_hal_tim_ex.c **** 
 559:Drivers/STM32L4xx_HAL_Driver/Src/stm32l4xx_hal_tim_ex.c ****   /* Return function status */
 560:Drivers/STM32L4xx_HAL_Driver/Src/stm32l4xx_hal_tim_ex.c ****   return HAL_OK;
 561:Drivers/STM32L4xx_HAL_Driver/Src/stm32l4xx_hal_tim_ex.c **** }
 562:Drivers/STM32L4xx_HAL_Driver/Src/stm32l4xx_hal_tim_ex.c **** 
 563:Drivers/STM32L4xx_HAL_Driver/Src/stm32l4xx_hal_tim_ex.c **** /**
 564:Drivers/STM32L4xx_HAL_Driver/Src/stm32l4xx_hal_tim_ex.c ****   * @brief  Starts the TIM Output Compare signal generation in interrupt mode
ARM GAS  /tmp/ccByjmRO.s 			page 33


 565:Drivers/STM32L4xx_HAL_Driver/Src/stm32l4xx_hal_tim_ex.c ****   *         on the complementary output.
 566:Drivers/STM32L4xx_HAL_Driver/Src/stm32l4xx_hal_tim_ex.c ****   * @param  htim TIM OC handle
 567:Drivers/STM32L4xx_HAL_Driver/Src/stm32l4xx_hal_tim_ex.c ****   * @param  Channel TIM Channel to be enabled
 568:Drivers/STM32L4xx_HAL_Driver/Src/stm32l4xx_hal_tim_ex.c ****   *          This parameter can be one of the following values:
 569:Drivers/STM32L4xx_HAL_Driver/Src/stm32l4xx_hal_tim_ex.c ****   *            @arg TIM_CHANNEL_1: TIM Channel 1 selected
 570:Drivers/STM32L4xx_HAL_Driver/Src/stm32l4xx_hal_tim_ex.c ****   *            @arg TIM_CHANNEL_2: TIM Channel 2 selected
 571:Drivers/STM32L4xx_HAL_Driver/Src/stm32l4xx_hal_tim_ex.c ****   *            @arg TIM_CHANNEL_3: TIM Channel 3 selected
 572:Drivers/STM32L4xx_HAL_Driver/Src/stm32l4xx_hal_tim_ex.c ****   * @retval HAL status
 573:Drivers/STM32L4xx_HAL_Driver/Src/stm32l4xx_hal_tim_ex.c ****   */
 574:Drivers/STM32L4xx_HAL_Driver/Src/stm32l4xx_hal_tim_ex.c **** HAL_StatusTypeDef HAL_TIMEx_OCN_Start_IT(TIM_HandleTypeDef *htim, uint32_t Channel)
 575:Drivers/STM32L4xx_HAL_Driver/Src/stm32l4xx_hal_tim_ex.c **** {
 576:Drivers/STM32L4xx_HAL_Driver/Src/stm32l4xx_hal_tim_ex.c ****   uint32_t tmpsmcr;
 577:Drivers/STM32L4xx_HAL_Driver/Src/stm32l4xx_hal_tim_ex.c **** 
 578:Drivers/STM32L4xx_HAL_Driver/Src/stm32l4xx_hal_tim_ex.c ****   /* Check the parameters */
 579:Drivers/STM32L4xx_HAL_Driver/Src/stm32l4xx_hal_tim_ex.c ****   assert_param(IS_TIM_CCXN_INSTANCE(htim->Instance, Channel));
 580:Drivers/STM32L4xx_HAL_Driver/Src/stm32l4xx_hal_tim_ex.c **** 
 581:Drivers/STM32L4xx_HAL_Driver/Src/stm32l4xx_hal_tim_ex.c ****   switch (Channel)
 582:Drivers/STM32L4xx_HAL_Driver/Src/stm32l4xx_hal_tim_ex.c ****   {
 583:Drivers/STM32L4xx_HAL_Driver/Src/stm32l4xx_hal_tim_ex.c ****     case TIM_CHANNEL_1:
 584:Drivers/STM32L4xx_HAL_Driver/Src/stm32l4xx_hal_tim_ex.c ****     {
 585:Drivers/STM32L4xx_HAL_Driver/Src/stm32l4xx_hal_tim_ex.c ****       /* Enable the TIM Output Compare interrupt */
 586:Drivers/STM32L4xx_HAL_Driver/Src/stm32l4xx_hal_tim_ex.c ****       __HAL_TIM_ENABLE_IT(htim, TIM_IT_CC1);
 587:Drivers/STM32L4xx_HAL_Driver/Src/stm32l4xx_hal_tim_ex.c ****       break;
 588:Drivers/STM32L4xx_HAL_Driver/Src/stm32l4xx_hal_tim_ex.c ****     }
 589:Drivers/STM32L4xx_HAL_Driver/Src/stm32l4xx_hal_tim_ex.c **** 
 590:Drivers/STM32L4xx_HAL_Driver/Src/stm32l4xx_hal_tim_ex.c ****     case TIM_CHANNEL_2:
 591:Drivers/STM32L4xx_HAL_Driver/Src/stm32l4xx_hal_tim_ex.c ****     {
 592:Drivers/STM32L4xx_HAL_Driver/Src/stm32l4xx_hal_tim_ex.c ****       /* Enable the TIM Output Compare interrupt */
 593:Drivers/STM32L4xx_HAL_Driver/Src/stm32l4xx_hal_tim_ex.c ****       __HAL_TIM_ENABLE_IT(htim, TIM_IT_CC2);
 594:Drivers/STM32L4xx_HAL_Driver/Src/stm32l4xx_hal_tim_ex.c ****       break;
 595:Drivers/STM32L4xx_HAL_Driver/Src/stm32l4xx_hal_tim_ex.c ****     }
 596:Drivers/STM32L4xx_HAL_Driver/Src/stm32l4xx_hal_tim_ex.c **** 
 597:Drivers/STM32L4xx_HAL_Driver/Src/stm32l4xx_hal_tim_ex.c ****     case TIM_CHANNEL_3:
 598:Drivers/STM32L4xx_HAL_Driver/Src/stm32l4xx_hal_tim_ex.c ****     {
 599:Drivers/STM32L4xx_HAL_Driver/Src/stm32l4xx_hal_tim_ex.c ****       /* Enable the TIM Output Compare interrupt */
 600:Drivers/STM32L4xx_HAL_Driver/Src/stm32l4xx_hal_tim_ex.c ****       __HAL_TIM_ENABLE_IT(htim, TIM_IT_CC3);
 601:Drivers/STM32L4xx_HAL_Driver/Src/stm32l4xx_hal_tim_ex.c ****       break;
 602:Drivers/STM32L4xx_HAL_Driver/Src/stm32l4xx_hal_tim_ex.c ****     }
 603:Drivers/STM32L4xx_HAL_Driver/Src/stm32l4xx_hal_tim_ex.c **** 
 604:Drivers/STM32L4xx_HAL_Driver/Src/stm32l4xx_hal_tim_ex.c **** 
 605:Drivers/STM32L4xx_HAL_Driver/Src/stm32l4xx_hal_tim_ex.c ****     default:
 606:Drivers/STM32L4xx_HAL_Driver/Src/stm32l4xx_hal_tim_ex.c ****       break;
 607:Drivers/STM32L4xx_HAL_Driver/Src/stm32l4xx_hal_tim_ex.c ****   }
 608:Drivers/STM32L4xx_HAL_Driver/Src/stm32l4xx_hal_tim_ex.c **** 
 609:Drivers/STM32L4xx_HAL_Driver/Src/stm32l4xx_hal_tim_ex.c ****   /* Enable the TIM Break interrupt */
 610:Drivers/STM32L4xx_HAL_Driver/Src/stm32l4xx_hal_tim_ex.c ****   __HAL_TIM_ENABLE_IT(htim, TIM_IT_BREAK);
 611:Drivers/STM32L4xx_HAL_Driver/Src/stm32l4xx_hal_tim_ex.c **** 
 612:Drivers/STM32L4xx_HAL_Driver/Src/stm32l4xx_hal_tim_ex.c ****   /* Enable the Capture compare channel N */
 613:Drivers/STM32L4xx_HAL_Driver/Src/stm32l4xx_hal_tim_ex.c ****   TIM_CCxNChannelCmd(htim->Instance, Channel, TIM_CCxN_ENABLE);
 614:Drivers/STM32L4xx_HAL_Driver/Src/stm32l4xx_hal_tim_ex.c **** 
 615:Drivers/STM32L4xx_HAL_Driver/Src/stm32l4xx_hal_tim_ex.c ****   /* Enable the Main Output */
 616:Drivers/STM32L4xx_HAL_Driver/Src/stm32l4xx_hal_tim_ex.c ****   __HAL_TIM_MOE_ENABLE(htim);
 617:Drivers/STM32L4xx_HAL_Driver/Src/stm32l4xx_hal_tim_ex.c **** 
 618:Drivers/STM32L4xx_HAL_Driver/Src/stm32l4xx_hal_tim_ex.c ****   /* Enable the Peripheral, except in trigger mode where enable is automatically done with trigger 
 619:Drivers/STM32L4xx_HAL_Driver/Src/stm32l4xx_hal_tim_ex.c ****   tmpsmcr = htim->Instance->SMCR & TIM_SMCR_SMS;
 620:Drivers/STM32L4xx_HAL_Driver/Src/stm32l4xx_hal_tim_ex.c ****   if (!IS_TIM_SLAVEMODE_TRIGGER_ENABLED(tmpsmcr))
 621:Drivers/STM32L4xx_HAL_Driver/Src/stm32l4xx_hal_tim_ex.c ****   {
ARM GAS  /tmp/ccByjmRO.s 			page 34


 622:Drivers/STM32L4xx_HAL_Driver/Src/stm32l4xx_hal_tim_ex.c ****     __HAL_TIM_ENABLE(htim);
 623:Drivers/STM32L4xx_HAL_Driver/Src/stm32l4xx_hal_tim_ex.c ****   }
 624:Drivers/STM32L4xx_HAL_Driver/Src/stm32l4xx_hal_tim_ex.c **** 
 625:Drivers/STM32L4xx_HAL_Driver/Src/stm32l4xx_hal_tim_ex.c ****   /* Return function status */
 626:Drivers/STM32L4xx_HAL_Driver/Src/stm32l4xx_hal_tim_ex.c ****   return HAL_OK;
 627:Drivers/STM32L4xx_HAL_Driver/Src/stm32l4xx_hal_tim_ex.c **** }
 628:Drivers/STM32L4xx_HAL_Driver/Src/stm32l4xx_hal_tim_ex.c **** 
 629:Drivers/STM32L4xx_HAL_Driver/Src/stm32l4xx_hal_tim_ex.c **** /**
 630:Drivers/STM32L4xx_HAL_Driver/Src/stm32l4xx_hal_tim_ex.c ****   * @brief  Stops the TIM Output Compare signal generation in interrupt mode
 631:Drivers/STM32L4xx_HAL_Driver/Src/stm32l4xx_hal_tim_ex.c ****   *         on the complementary output.
 632:Drivers/STM32L4xx_HAL_Driver/Src/stm32l4xx_hal_tim_ex.c ****   * @param  htim TIM Output Compare handle
 633:Drivers/STM32L4xx_HAL_Driver/Src/stm32l4xx_hal_tim_ex.c ****   * @param  Channel TIM Channel to be disabled
 634:Drivers/STM32L4xx_HAL_Driver/Src/stm32l4xx_hal_tim_ex.c ****   *          This parameter can be one of the following values:
 635:Drivers/STM32L4xx_HAL_Driver/Src/stm32l4xx_hal_tim_ex.c ****   *            @arg TIM_CHANNEL_1: TIM Channel 1 selected
 636:Drivers/STM32L4xx_HAL_Driver/Src/stm32l4xx_hal_tim_ex.c ****   *            @arg TIM_CHANNEL_2: TIM Channel 2 selected
 637:Drivers/STM32L4xx_HAL_Driver/Src/stm32l4xx_hal_tim_ex.c ****   *            @arg TIM_CHANNEL_3: TIM Channel 3 selected
 638:Drivers/STM32L4xx_HAL_Driver/Src/stm32l4xx_hal_tim_ex.c ****   * @retval HAL status
 639:Drivers/STM32L4xx_HAL_Driver/Src/stm32l4xx_hal_tim_ex.c ****   */
 640:Drivers/STM32L4xx_HAL_Driver/Src/stm32l4xx_hal_tim_ex.c **** HAL_StatusTypeDef HAL_TIMEx_OCN_Stop_IT(TIM_HandleTypeDef *htim, uint32_t Channel)
 641:Drivers/STM32L4xx_HAL_Driver/Src/stm32l4xx_hal_tim_ex.c **** {
 642:Drivers/STM32L4xx_HAL_Driver/Src/stm32l4xx_hal_tim_ex.c ****   uint32_t tmpccer;
 643:Drivers/STM32L4xx_HAL_Driver/Src/stm32l4xx_hal_tim_ex.c ****   /* Check the parameters */
 644:Drivers/STM32L4xx_HAL_Driver/Src/stm32l4xx_hal_tim_ex.c ****   assert_param(IS_TIM_CCXN_INSTANCE(htim->Instance, Channel));
 645:Drivers/STM32L4xx_HAL_Driver/Src/stm32l4xx_hal_tim_ex.c **** 
 646:Drivers/STM32L4xx_HAL_Driver/Src/stm32l4xx_hal_tim_ex.c ****   switch (Channel)
 647:Drivers/STM32L4xx_HAL_Driver/Src/stm32l4xx_hal_tim_ex.c ****   {
 648:Drivers/STM32L4xx_HAL_Driver/Src/stm32l4xx_hal_tim_ex.c ****     case TIM_CHANNEL_1:
 649:Drivers/STM32L4xx_HAL_Driver/Src/stm32l4xx_hal_tim_ex.c ****     {
 650:Drivers/STM32L4xx_HAL_Driver/Src/stm32l4xx_hal_tim_ex.c ****       /* Disable the TIM Output Compare interrupt */
 651:Drivers/STM32L4xx_HAL_Driver/Src/stm32l4xx_hal_tim_ex.c ****       __HAL_TIM_DISABLE_IT(htim, TIM_IT_CC1);
 652:Drivers/STM32L4xx_HAL_Driver/Src/stm32l4xx_hal_tim_ex.c ****       break;
 653:Drivers/STM32L4xx_HAL_Driver/Src/stm32l4xx_hal_tim_ex.c ****     }
 654:Drivers/STM32L4xx_HAL_Driver/Src/stm32l4xx_hal_tim_ex.c **** 
 655:Drivers/STM32L4xx_HAL_Driver/Src/stm32l4xx_hal_tim_ex.c ****     case TIM_CHANNEL_2:
 656:Drivers/STM32L4xx_HAL_Driver/Src/stm32l4xx_hal_tim_ex.c ****     {
 657:Drivers/STM32L4xx_HAL_Driver/Src/stm32l4xx_hal_tim_ex.c ****       /* Disable the TIM Output Compare interrupt */
 658:Drivers/STM32L4xx_HAL_Driver/Src/stm32l4xx_hal_tim_ex.c ****       __HAL_TIM_DISABLE_IT(htim, TIM_IT_CC2);
 659:Drivers/STM32L4xx_HAL_Driver/Src/stm32l4xx_hal_tim_ex.c ****       break;
 660:Drivers/STM32L4xx_HAL_Driver/Src/stm32l4xx_hal_tim_ex.c ****     }
 661:Drivers/STM32L4xx_HAL_Driver/Src/stm32l4xx_hal_tim_ex.c **** 
 662:Drivers/STM32L4xx_HAL_Driver/Src/stm32l4xx_hal_tim_ex.c ****     case TIM_CHANNEL_3:
 663:Drivers/STM32L4xx_HAL_Driver/Src/stm32l4xx_hal_tim_ex.c ****     {
 664:Drivers/STM32L4xx_HAL_Driver/Src/stm32l4xx_hal_tim_ex.c ****       /* Disable the TIM Output Compare interrupt */
 665:Drivers/STM32L4xx_HAL_Driver/Src/stm32l4xx_hal_tim_ex.c ****       __HAL_TIM_DISABLE_IT(htim, TIM_IT_CC3);
 666:Drivers/STM32L4xx_HAL_Driver/Src/stm32l4xx_hal_tim_ex.c ****       break;
 667:Drivers/STM32L4xx_HAL_Driver/Src/stm32l4xx_hal_tim_ex.c ****     }
 668:Drivers/STM32L4xx_HAL_Driver/Src/stm32l4xx_hal_tim_ex.c **** 
 669:Drivers/STM32L4xx_HAL_Driver/Src/stm32l4xx_hal_tim_ex.c ****     default:
 670:Drivers/STM32L4xx_HAL_Driver/Src/stm32l4xx_hal_tim_ex.c ****       break;
 671:Drivers/STM32L4xx_HAL_Driver/Src/stm32l4xx_hal_tim_ex.c ****   }
 672:Drivers/STM32L4xx_HAL_Driver/Src/stm32l4xx_hal_tim_ex.c **** 
 673:Drivers/STM32L4xx_HAL_Driver/Src/stm32l4xx_hal_tim_ex.c ****   /* Disable the Capture compare channel N */
 674:Drivers/STM32L4xx_HAL_Driver/Src/stm32l4xx_hal_tim_ex.c ****   TIM_CCxNChannelCmd(htim->Instance, Channel, TIM_CCxN_DISABLE);
 675:Drivers/STM32L4xx_HAL_Driver/Src/stm32l4xx_hal_tim_ex.c **** 
 676:Drivers/STM32L4xx_HAL_Driver/Src/stm32l4xx_hal_tim_ex.c ****   /* Disable the TIM Break interrupt (only if no more channel is active) */
 677:Drivers/STM32L4xx_HAL_Driver/Src/stm32l4xx_hal_tim_ex.c ****   tmpccer = htim->Instance->CCER;
 678:Drivers/STM32L4xx_HAL_Driver/Src/stm32l4xx_hal_tim_ex.c ****   if ((tmpccer & (TIM_CCER_CC1NE | TIM_CCER_CC2NE | TIM_CCER_CC3NE)) == (uint32_t)RESET)
ARM GAS  /tmp/ccByjmRO.s 			page 35


 679:Drivers/STM32L4xx_HAL_Driver/Src/stm32l4xx_hal_tim_ex.c ****   {
 680:Drivers/STM32L4xx_HAL_Driver/Src/stm32l4xx_hal_tim_ex.c ****     __HAL_TIM_DISABLE_IT(htim, TIM_IT_BREAK);
 681:Drivers/STM32L4xx_HAL_Driver/Src/stm32l4xx_hal_tim_ex.c ****   }
 682:Drivers/STM32L4xx_HAL_Driver/Src/stm32l4xx_hal_tim_ex.c **** 
 683:Drivers/STM32L4xx_HAL_Driver/Src/stm32l4xx_hal_tim_ex.c ****   /* Disable the Main Output */
 684:Drivers/STM32L4xx_HAL_Driver/Src/stm32l4xx_hal_tim_ex.c ****   __HAL_TIM_MOE_DISABLE(htim);
 685:Drivers/STM32L4xx_HAL_Driver/Src/stm32l4xx_hal_tim_ex.c **** 
 686:Drivers/STM32L4xx_HAL_Driver/Src/stm32l4xx_hal_tim_ex.c ****   /* Disable the Peripheral */
 687:Drivers/STM32L4xx_HAL_Driver/Src/stm32l4xx_hal_tim_ex.c ****   __HAL_TIM_DISABLE(htim);
 688:Drivers/STM32L4xx_HAL_Driver/Src/stm32l4xx_hal_tim_ex.c **** 
 689:Drivers/STM32L4xx_HAL_Driver/Src/stm32l4xx_hal_tim_ex.c ****   /* Return function status */
 690:Drivers/STM32L4xx_HAL_Driver/Src/stm32l4xx_hal_tim_ex.c ****   return HAL_OK;
 691:Drivers/STM32L4xx_HAL_Driver/Src/stm32l4xx_hal_tim_ex.c **** }
 692:Drivers/STM32L4xx_HAL_Driver/Src/stm32l4xx_hal_tim_ex.c **** 
 693:Drivers/STM32L4xx_HAL_Driver/Src/stm32l4xx_hal_tim_ex.c **** /**
 694:Drivers/STM32L4xx_HAL_Driver/Src/stm32l4xx_hal_tim_ex.c ****   * @brief  Starts the TIM Output Compare signal generation in DMA mode
 695:Drivers/STM32L4xx_HAL_Driver/Src/stm32l4xx_hal_tim_ex.c ****   *         on the complementary output.
 696:Drivers/STM32L4xx_HAL_Driver/Src/stm32l4xx_hal_tim_ex.c ****   * @param  htim TIM Output Compare handle
 697:Drivers/STM32L4xx_HAL_Driver/Src/stm32l4xx_hal_tim_ex.c ****   * @param  Channel TIM Channel to be enabled
 698:Drivers/STM32L4xx_HAL_Driver/Src/stm32l4xx_hal_tim_ex.c ****   *          This parameter can be one of the following values:
 699:Drivers/STM32L4xx_HAL_Driver/Src/stm32l4xx_hal_tim_ex.c ****   *            @arg TIM_CHANNEL_1: TIM Channel 1 selected
 700:Drivers/STM32L4xx_HAL_Driver/Src/stm32l4xx_hal_tim_ex.c ****   *            @arg TIM_CHANNEL_2: TIM Channel 2 selected
 701:Drivers/STM32L4xx_HAL_Driver/Src/stm32l4xx_hal_tim_ex.c ****   *            @arg TIM_CHANNEL_3: TIM Channel 3 selected
 702:Drivers/STM32L4xx_HAL_Driver/Src/stm32l4xx_hal_tim_ex.c ****   * @param  pData The source Buffer address.
 703:Drivers/STM32L4xx_HAL_Driver/Src/stm32l4xx_hal_tim_ex.c ****   * @param  Length The length of data to be transferred from memory to TIM peripheral
 704:Drivers/STM32L4xx_HAL_Driver/Src/stm32l4xx_hal_tim_ex.c ****   * @retval HAL status
 705:Drivers/STM32L4xx_HAL_Driver/Src/stm32l4xx_hal_tim_ex.c ****   */
 706:Drivers/STM32L4xx_HAL_Driver/Src/stm32l4xx_hal_tim_ex.c **** HAL_StatusTypeDef HAL_TIMEx_OCN_Start_DMA(TIM_HandleTypeDef *htim, uint32_t Channel, uint32_t *pDat
 707:Drivers/STM32L4xx_HAL_Driver/Src/stm32l4xx_hal_tim_ex.c **** {
 708:Drivers/STM32L4xx_HAL_Driver/Src/stm32l4xx_hal_tim_ex.c ****   uint32_t tmpsmcr;
 709:Drivers/STM32L4xx_HAL_Driver/Src/stm32l4xx_hal_tim_ex.c **** 
 710:Drivers/STM32L4xx_HAL_Driver/Src/stm32l4xx_hal_tim_ex.c ****   /* Check the parameters */
 711:Drivers/STM32L4xx_HAL_Driver/Src/stm32l4xx_hal_tim_ex.c ****   assert_param(IS_TIM_CCXN_INSTANCE(htim->Instance, Channel));
 712:Drivers/STM32L4xx_HAL_Driver/Src/stm32l4xx_hal_tim_ex.c **** 
 713:Drivers/STM32L4xx_HAL_Driver/Src/stm32l4xx_hal_tim_ex.c ****   if ((htim->State == HAL_TIM_STATE_BUSY))
 714:Drivers/STM32L4xx_HAL_Driver/Src/stm32l4xx_hal_tim_ex.c ****   {
 715:Drivers/STM32L4xx_HAL_Driver/Src/stm32l4xx_hal_tim_ex.c ****     return HAL_BUSY;
 716:Drivers/STM32L4xx_HAL_Driver/Src/stm32l4xx_hal_tim_ex.c ****   }
 717:Drivers/STM32L4xx_HAL_Driver/Src/stm32l4xx_hal_tim_ex.c ****   else if ((htim->State == HAL_TIM_STATE_READY))
 718:Drivers/STM32L4xx_HAL_Driver/Src/stm32l4xx_hal_tim_ex.c ****   {
 719:Drivers/STM32L4xx_HAL_Driver/Src/stm32l4xx_hal_tim_ex.c ****     if (((uint32_t)pData == 0U) && (Length > 0U))
 720:Drivers/STM32L4xx_HAL_Driver/Src/stm32l4xx_hal_tim_ex.c ****     {
 721:Drivers/STM32L4xx_HAL_Driver/Src/stm32l4xx_hal_tim_ex.c ****       return HAL_ERROR;
 722:Drivers/STM32L4xx_HAL_Driver/Src/stm32l4xx_hal_tim_ex.c ****     }
 723:Drivers/STM32L4xx_HAL_Driver/Src/stm32l4xx_hal_tim_ex.c ****     else
 724:Drivers/STM32L4xx_HAL_Driver/Src/stm32l4xx_hal_tim_ex.c ****     {
 725:Drivers/STM32L4xx_HAL_Driver/Src/stm32l4xx_hal_tim_ex.c ****       htim->State = HAL_TIM_STATE_BUSY;
 726:Drivers/STM32L4xx_HAL_Driver/Src/stm32l4xx_hal_tim_ex.c ****     }
 727:Drivers/STM32L4xx_HAL_Driver/Src/stm32l4xx_hal_tim_ex.c ****   }
 728:Drivers/STM32L4xx_HAL_Driver/Src/stm32l4xx_hal_tim_ex.c ****   else
 729:Drivers/STM32L4xx_HAL_Driver/Src/stm32l4xx_hal_tim_ex.c ****   {
 730:Drivers/STM32L4xx_HAL_Driver/Src/stm32l4xx_hal_tim_ex.c ****     /* nothing to do  */
 731:Drivers/STM32L4xx_HAL_Driver/Src/stm32l4xx_hal_tim_ex.c ****   }
 732:Drivers/STM32L4xx_HAL_Driver/Src/stm32l4xx_hal_tim_ex.c **** 
 733:Drivers/STM32L4xx_HAL_Driver/Src/stm32l4xx_hal_tim_ex.c ****   switch (Channel)
 734:Drivers/STM32L4xx_HAL_Driver/Src/stm32l4xx_hal_tim_ex.c ****   {
 735:Drivers/STM32L4xx_HAL_Driver/Src/stm32l4xx_hal_tim_ex.c ****     case TIM_CHANNEL_1:
ARM GAS  /tmp/ccByjmRO.s 			page 36


 736:Drivers/STM32L4xx_HAL_Driver/Src/stm32l4xx_hal_tim_ex.c ****     {
 737:Drivers/STM32L4xx_HAL_Driver/Src/stm32l4xx_hal_tim_ex.c ****       /* Set the DMA compare callbacks */
 738:Drivers/STM32L4xx_HAL_Driver/Src/stm32l4xx_hal_tim_ex.c ****       htim->hdma[TIM_DMA_ID_CC1]->XferCpltCallback = TIM_DMADelayPulseCplt;
 739:Drivers/STM32L4xx_HAL_Driver/Src/stm32l4xx_hal_tim_ex.c ****       htim->hdma[TIM_DMA_ID_CC1]->XferHalfCpltCallback = TIM_DMADelayPulseHalfCplt;
 740:Drivers/STM32L4xx_HAL_Driver/Src/stm32l4xx_hal_tim_ex.c **** 
 741:Drivers/STM32L4xx_HAL_Driver/Src/stm32l4xx_hal_tim_ex.c ****       /* Set the DMA error callback */
 742:Drivers/STM32L4xx_HAL_Driver/Src/stm32l4xx_hal_tim_ex.c ****       htim->hdma[TIM_DMA_ID_CC1]->XferErrorCallback = TIM_DMAError ;
 743:Drivers/STM32L4xx_HAL_Driver/Src/stm32l4xx_hal_tim_ex.c **** 
 744:Drivers/STM32L4xx_HAL_Driver/Src/stm32l4xx_hal_tim_ex.c ****       /* Enable the DMA channel */
 745:Drivers/STM32L4xx_HAL_Driver/Src/stm32l4xx_hal_tim_ex.c ****       if (HAL_DMA_Start_IT(htim->hdma[TIM_DMA_ID_CC1], (uint32_t)pData, (uint32_t)&htim->Instance->
 746:Drivers/STM32L4xx_HAL_Driver/Src/stm32l4xx_hal_tim_ex.c ****       {
 747:Drivers/STM32L4xx_HAL_Driver/Src/stm32l4xx_hal_tim_ex.c ****         return HAL_ERROR;
 748:Drivers/STM32L4xx_HAL_Driver/Src/stm32l4xx_hal_tim_ex.c ****       }
 749:Drivers/STM32L4xx_HAL_Driver/Src/stm32l4xx_hal_tim_ex.c ****       /* Enable the TIM Output Compare DMA request */
 750:Drivers/STM32L4xx_HAL_Driver/Src/stm32l4xx_hal_tim_ex.c ****       __HAL_TIM_ENABLE_DMA(htim, TIM_DMA_CC1);
 751:Drivers/STM32L4xx_HAL_Driver/Src/stm32l4xx_hal_tim_ex.c ****       break;
 752:Drivers/STM32L4xx_HAL_Driver/Src/stm32l4xx_hal_tim_ex.c ****     }
 753:Drivers/STM32L4xx_HAL_Driver/Src/stm32l4xx_hal_tim_ex.c **** 
 754:Drivers/STM32L4xx_HAL_Driver/Src/stm32l4xx_hal_tim_ex.c ****     case TIM_CHANNEL_2:
 755:Drivers/STM32L4xx_HAL_Driver/Src/stm32l4xx_hal_tim_ex.c ****     {
 756:Drivers/STM32L4xx_HAL_Driver/Src/stm32l4xx_hal_tim_ex.c ****       /* Set the DMA compare callbacks */
 757:Drivers/STM32L4xx_HAL_Driver/Src/stm32l4xx_hal_tim_ex.c ****       htim->hdma[TIM_DMA_ID_CC2]->XferCpltCallback = TIM_DMADelayPulseCplt;
 758:Drivers/STM32L4xx_HAL_Driver/Src/stm32l4xx_hal_tim_ex.c ****       htim->hdma[TIM_DMA_ID_CC2]->XferHalfCpltCallback = TIM_DMADelayPulseHalfCplt;
 759:Drivers/STM32L4xx_HAL_Driver/Src/stm32l4xx_hal_tim_ex.c **** 
 760:Drivers/STM32L4xx_HAL_Driver/Src/stm32l4xx_hal_tim_ex.c ****       /* Set the DMA error callback */
 761:Drivers/STM32L4xx_HAL_Driver/Src/stm32l4xx_hal_tim_ex.c ****       htim->hdma[TIM_DMA_ID_CC2]->XferErrorCallback = TIM_DMAError ;
 762:Drivers/STM32L4xx_HAL_Driver/Src/stm32l4xx_hal_tim_ex.c **** 
 763:Drivers/STM32L4xx_HAL_Driver/Src/stm32l4xx_hal_tim_ex.c ****       /* Enable the DMA channel */
 764:Drivers/STM32L4xx_HAL_Driver/Src/stm32l4xx_hal_tim_ex.c ****       if (HAL_DMA_Start_IT(htim->hdma[TIM_DMA_ID_CC2], (uint32_t)pData, (uint32_t)&htim->Instance->
 765:Drivers/STM32L4xx_HAL_Driver/Src/stm32l4xx_hal_tim_ex.c ****       {
 766:Drivers/STM32L4xx_HAL_Driver/Src/stm32l4xx_hal_tim_ex.c ****         return HAL_ERROR;
 767:Drivers/STM32L4xx_HAL_Driver/Src/stm32l4xx_hal_tim_ex.c ****       }
 768:Drivers/STM32L4xx_HAL_Driver/Src/stm32l4xx_hal_tim_ex.c ****       /* Enable the TIM Output Compare DMA request */
 769:Drivers/STM32L4xx_HAL_Driver/Src/stm32l4xx_hal_tim_ex.c ****       __HAL_TIM_ENABLE_DMA(htim, TIM_DMA_CC2);
 770:Drivers/STM32L4xx_HAL_Driver/Src/stm32l4xx_hal_tim_ex.c ****       break;
 771:Drivers/STM32L4xx_HAL_Driver/Src/stm32l4xx_hal_tim_ex.c ****     }
 772:Drivers/STM32L4xx_HAL_Driver/Src/stm32l4xx_hal_tim_ex.c **** 
 773:Drivers/STM32L4xx_HAL_Driver/Src/stm32l4xx_hal_tim_ex.c ****     case TIM_CHANNEL_3:
 774:Drivers/STM32L4xx_HAL_Driver/Src/stm32l4xx_hal_tim_ex.c ****     {
 775:Drivers/STM32L4xx_HAL_Driver/Src/stm32l4xx_hal_tim_ex.c ****       /* Set the DMA compare callbacks */
 776:Drivers/STM32L4xx_HAL_Driver/Src/stm32l4xx_hal_tim_ex.c ****       htim->hdma[TIM_DMA_ID_CC3]->XferCpltCallback = TIM_DMADelayPulseCplt;
 777:Drivers/STM32L4xx_HAL_Driver/Src/stm32l4xx_hal_tim_ex.c ****       htim->hdma[TIM_DMA_ID_CC3]->XferHalfCpltCallback = TIM_DMADelayPulseHalfCplt;
 778:Drivers/STM32L4xx_HAL_Driver/Src/stm32l4xx_hal_tim_ex.c **** 
 779:Drivers/STM32L4xx_HAL_Driver/Src/stm32l4xx_hal_tim_ex.c ****       /* Set the DMA error callback */
 780:Drivers/STM32L4xx_HAL_Driver/Src/stm32l4xx_hal_tim_ex.c ****       htim->hdma[TIM_DMA_ID_CC3]->XferErrorCallback = TIM_DMAError ;
 781:Drivers/STM32L4xx_HAL_Driver/Src/stm32l4xx_hal_tim_ex.c **** 
 782:Drivers/STM32L4xx_HAL_Driver/Src/stm32l4xx_hal_tim_ex.c ****       /* Enable the DMA channel */
 783:Drivers/STM32L4xx_HAL_Driver/Src/stm32l4xx_hal_tim_ex.c ****       if (HAL_DMA_Start_IT(htim->hdma[TIM_DMA_ID_CC3], (uint32_t)pData, (uint32_t)&htim->Instance->
 784:Drivers/STM32L4xx_HAL_Driver/Src/stm32l4xx_hal_tim_ex.c ****       {
 785:Drivers/STM32L4xx_HAL_Driver/Src/stm32l4xx_hal_tim_ex.c ****         return HAL_ERROR;
 786:Drivers/STM32L4xx_HAL_Driver/Src/stm32l4xx_hal_tim_ex.c ****       }
 787:Drivers/STM32L4xx_HAL_Driver/Src/stm32l4xx_hal_tim_ex.c ****       /* Enable the TIM Output Compare DMA request */
 788:Drivers/STM32L4xx_HAL_Driver/Src/stm32l4xx_hal_tim_ex.c ****       __HAL_TIM_ENABLE_DMA(htim, TIM_DMA_CC3);
 789:Drivers/STM32L4xx_HAL_Driver/Src/stm32l4xx_hal_tim_ex.c ****       break;
 790:Drivers/STM32L4xx_HAL_Driver/Src/stm32l4xx_hal_tim_ex.c ****     }
 791:Drivers/STM32L4xx_HAL_Driver/Src/stm32l4xx_hal_tim_ex.c **** 
 792:Drivers/STM32L4xx_HAL_Driver/Src/stm32l4xx_hal_tim_ex.c ****     default:
ARM GAS  /tmp/ccByjmRO.s 			page 37


 793:Drivers/STM32L4xx_HAL_Driver/Src/stm32l4xx_hal_tim_ex.c ****       break;
 794:Drivers/STM32L4xx_HAL_Driver/Src/stm32l4xx_hal_tim_ex.c ****   }
 795:Drivers/STM32L4xx_HAL_Driver/Src/stm32l4xx_hal_tim_ex.c **** 
 796:Drivers/STM32L4xx_HAL_Driver/Src/stm32l4xx_hal_tim_ex.c ****   /* Enable the Capture compare channel N */
 797:Drivers/STM32L4xx_HAL_Driver/Src/stm32l4xx_hal_tim_ex.c ****   TIM_CCxNChannelCmd(htim->Instance, Channel, TIM_CCxN_ENABLE);
 798:Drivers/STM32L4xx_HAL_Driver/Src/stm32l4xx_hal_tim_ex.c **** 
 799:Drivers/STM32L4xx_HAL_Driver/Src/stm32l4xx_hal_tim_ex.c ****   /* Enable the Main Output */
 800:Drivers/STM32L4xx_HAL_Driver/Src/stm32l4xx_hal_tim_ex.c ****   __HAL_TIM_MOE_ENABLE(htim);
 801:Drivers/STM32L4xx_HAL_Driver/Src/stm32l4xx_hal_tim_ex.c **** 
 802:Drivers/STM32L4xx_HAL_Driver/Src/stm32l4xx_hal_tim_ex.c ****   /* Enable the Peripheral, except in trigger mode where enable is automatically done with trigger 
 803:Drivers/STM32L4xx_HAL_Driver/Src/stm32l4xx_hal_tim_ex.c ****   tmpsmcr = htim->Instance->SMCR & TIM_SMCR_SMS;
 804:Drivers/STM32L4xx_HAL_Driver/Src/stm32l4xx_hal_tim_ex.c ****   if (!IS_TIM_SLAVEMODE_TRIGGER_ENABLED(tmpsmcr))
 805:Drivers/STM32L4xx_HAL_Driver/Src/stm32l4xx_hal_tim_ex.c ****   {
 806:Drivers/STM32L4xx_HAL_Driver/Src/stm32l4xx_hal_tim_ex.c ****     __HAL_TIM_ENABLE(htim);
 807:Drivers/STM32L4xx_HAL_Driver/Src/stm32l4xx_hal_tim_ex.c ****   }
 808:Drivers/STM32L4xx_HAL_Driver/Src/stm32l4xx_hal_tim_ex.c **** 
 809:Drivers/STM32L4xx_HAL_Driver/Src/stm32l4xx_hal_tim_ex.c ****   /* Return function status */
 810:Drivers/STM32L4xx_HAL_Driver/Src/stm32l4xx_hal_tim_ex.c ****   return HAL_OK;
 811:Drivers/STM32L4xx_HAL_Driver/Src/stm32l4xx_hal_tim_ex.c **** }
 812:Drivers/STM32L4xx_HAL_Driver/Src/stm32l4xx_hal_tim_ex.c **** 
 813:Drivers/STM32L4xx_HAL_Driver/Src/stm32l4xx_hal_tim_ex.c **** /**
 814:Drivers/STM32L4xx_HAL_Driver/Src/stm32l4xx_hal_tim_ex.c ****   * @brief  Stops the TIM Output Compare signal generation in DMA mode
 815:Drivers/STM32L4xx_HAL_Driver/Src/stm32l4xx_hal_tim_ex.c ****   *         on the complementary output.
 816:Drivers/STM32L4xx_HAL_Driver/Src/stm32l4xx_hal_tim_ex.c ****   * @param  htim TIM Output Compare handle
 817:Drivers/STM32L4xx_HAL_Driver/Src/stm32l4xx_hal_tim_ex.c ****   * @param  Channel TIM Channel to be disabled
 818:Drivers/STM32L4xx_HAL_Driver/Src/stm32l4xx_hal_tim_ex.c ****   *          This parameter can be one of the following values:
 819:Drivers/STM32L4xx_HAL_Driver/Src/stm32l4xx_hal_tim_ex.c ****   *            @arg TIM_CHANNEL_1: TIM Channel 1 selected
 820:Drivers/STM32L4xx_HAL_Driver/Src/stm32l4xx_hal_tim_ex.c ****   *            @arg TIM_CHANNEL_2: TIM Channel 2 selected
 821:Drivers/STM32L4xx_HAL_Driver/Src/stm32l4xx_hal_tim_ex.c ****   *            @arg TIM_CHANNEL_3: TIM Channel 3 selected
 822:Drivers/STM32L4xx_HAL_Driver/Src/stm32l4xx_hal_tim_ex.c ****   * @retval HAL status
 823:Drivers/STM32L4xx_HAL_Driver/Src/stm32l4xx_hal_tim_ex.c ****   */
 824:Drivers/STM32L4xx_HAL_Driver/Src/stm32l4xx_hal_tim_ex.c **** HAL_StatusTypeDef HAL_TIMEx_OCN_Stop_DMA(TIM_HandleTypeDef *htim, uint32_t Channel)
 825:Drivers/STM32L4xx_HAL_Driver/Src/stm32l4xx_hal_tim_ex.c **** {
 826:Drivers/STM32L4xx_HAL_Driver/Src/stm32l4xx_hal_tim_ex.c ****   /* Check the parameters */
 827:Drivers/STM32L4xx_HAL_Driver/Src/stm32l4xx_hal_tim_ex.c ****   assert_param(IS_TIM_CCXN_INSTANCE(htim->Instance, Channel));
 828:Drivers/STM32L4xx_HAL_Driver/Src/stm32l4xx_hal_tim_ex.c **** 
 829:Drivers/STM32L4xx_HAL_Driver/Src/stm32l4xx_hal_tim_ex.c ****   switch (Channel)
 830:Drivers/STM32L4xx_HAL_Driver/Src/stm32l4xx_hal_tim_ex.c ****   {
 831:Drivers/STM32L4xx_HAL_Driver/Src/stm32l4xx_hal_tim_ex.c ****     case TIM_CHANNEL_1:
 832:Drivers/STM32L4xx_HAL_Driver/Src/stm32l4xx_hal_tim_ex.c ****     {
 833:Drivers/STM32L4xx_HAL_Driver/Src/stm32l4xx_hal_tim_ex.c ****       /* Disable the TIM Output Compare DMA request */
 834:Drivers/STM32L4xx_HAL_Driver/Src/stm32l4xx_hal_tim_ex.c ****       __HAL_TIM_DISABLE_DMA(htim, TIM_DMA_CC1);
 835:Drivers/STM32L4xx_HAL_Driver/Src/stm32l4xx_hal_tim_ex.c ****       (void)HAL_DMA_Abort_IT(htim->hdma[TIM_DMA_ID_CC1]);
 836:Drivers/STM32L4xx_HAL_Driver/Src/stm32l4xx_hal_tim_ex.c ****       break;
 837:Drivers/STM32L4xx_HAL_Driver/Src/stm32l4xx_hal_tim_ex.c ****     }
 838:Drivers/STM32L4xx_HAL_Driver/Src/stm32l4xx_hal_tim_ex.c **** 
 839:Drivers/STM32L4xx_HAL_Driver/Src/stm32l4xx_hal_tim_ex.c ****     case TIM_CHANNEL_2:
 840:Drivers/STM32L4xx_HAL_Driver/Src/stm32l4xx_hal_tim_ex.c ****     {
 841:Drivers/STM32L4xx_HAL_Driver/Src/stm32l4xx_hal_tim_ex.c ****       /* Disable the TIM Output Compare DMA request */
 842:Drivers/STM32L4xx_HAL_Driver/Src/stm32l4xx_hal_tim_ex.c ****       __HAL_TIM_DISABLE_DMA(htim, TIM_DMA_CC2);
 843:Drivers/STM32L4xx_HAL_Driver/Src/stm32l4xx_hal_tim_ex.c ****       (void)HAL_DMA_Abort_IT(htim->hdma[TIM_DMA_ID_CC2]);
 844:Drivers/STM32L4xx_HAL_Driver/Src/stm32l4xx_hal_tim_ex.c ****       break;
 845:Drivers/STM32L4xx_HAL_Driver/Src/stm32l4xx_hal_tim_ex.c ****     }
 846:Drivers/STM32L4xx_HAL_Driver/Src/stm32l4xx_hal_tim_ex.c **** 
 847:Drivers/STM32L4xx_HAL_Driver/Src/stm32l4xx_hal_tim_ex.c ****     case TIM_CHANNEL_3:
 848:Drivers/STM32L4xx_HAL_Driver/Src/stm32l4xx_hal_tim_ex.c ****     {
 849:Drivers/STM32L4xx_HAL_Driver/Src/stm32l4xx_hal_tim_ex.c ****       /* Disable the TIM Output Compare DMA request */
ARM GAS  /tmp/ccByjmRO.s 			page 38


 850:Drivers/STM32L4xx_HAL_Driver/Src/stm32l4xx_hal_tim_ex.c ****       __HAL_TIM_DISABLE_DMA(htim, TIM_DMA_CC3);
 851:Drivers/STM32L4xx_HAL_Driver/Src/stm32l4xx_hal_tim_ex.c ****       (void)HAL_DMA_Abort_IT(htim->hdma[TIM_DMA_ID_CC3]);
 852:Drivers/STM32L4xx_HAL_Driver/Src/stm32l4xx_hal_tim_ex.c ****       break;
 853:Drivers/STM32L4xx_HAL_Driver/Src/stm32l4xx_hal_tim_ex.c ****     }
 854:Drivers/STM32L4xx_HAL_Driver/Src/stm32l4xx_hal_tim_ex.c **** 
 855:Drivers/STM32L4xx_HAL_Driver/Src/stm32l4xx_hal_tim_ex.c ****     default:
 856:Drivers/STM32L4xx_HAL_Driver/Src/stm32l4xx_hal_tim_ex.c ****       break;
 857:Drivers/STM32L4xx_HAL_Driver/Src/stm32l4xx_hal_tim_ex.c ****   }
 858:Drivers/STM32L4xx_HAL_Driver/Src/stm32l4xx_hal_tim_ex.c **** 
 859:Drivers/STM32L4xx_HAL_Driver/Src/stm32l4xx_hal_tim_ex.c ****   /* Disable the Capture compare channel N */
 860:Drivers/STM32L4xx_HAL_Driver/Src/stm32l4xx_hal_tim_ex.c ****   TIM_CCxNChannelCmd(htim->Instance, Channel, TIM_CCxN_DISABLE);
 861:Drivers/STM32L4xx_HAL_Driver/Src/stm32l4xx_hal_tim_ex.c **** 
 862:Drivers/STM32L4xx_HAL_Driver/Src/stm32l4xx_hal_tim_ex.c ****   /* Disable the Main Output */
 863:Drivers/STM32L4xx_HAL_Driver/Src/stm32l4xx_hal_tim_ex.c ****   __HAL_TIM_MOE_DISABLE(htim);
 864:Drivers/STM32L4xx_HAL_Driver/Src/stm32l4xx_hal_tim_ex.c **** 
 865:Drivers/STM32L4xx_HAL_Driver/Src/stm32l4xx_hal_tim_ex.c ****   /* Disable the Peripheral */
 866:Drivers/STM32L4xx_HAL_Driver/Src/stm32l4xx_hal_tim_ex.c ****   __HAL_TIM_DISABLE(htim);
 867:Drivers/STM32L4xx_HAL_Driver/Src/stm32l4xx_hal_tim_ex.c **** 
 868:Drivers/STM32L4xx_HAL_Driver/Src/stm32l4xx_hal_tim_ex.c ****   /* Change the htim state */
 869:Drivers/STM32L4xx_HAL_Driver/Src/stm32l4xx_hal_tim_ex.c ****   htim->State = HAL_TIM_STATE_READY;
 870:Drivers/STM32L4xx_HAL_Driver/Src/stm32l4xx_hal_tim_ex.c **** 
 871:Drivers/STM32L4xx_HAL_Driver/Src/stm32l4xx_hal_tim_ex.c ****   /* Return function status */
 872:Drivers/STM32L4xx_HAL_Driver/Src/stm32l4xx_hal_tim_ex.c ****   return HAL_OK;
 873:Drivers/STM32L4xx_HAL_Driver/Src/stm32l4xx_hal_tim_ex.c **** }
 874:Drivers/STM32L4xx_HAL_Driver/Src/stm32l4xx_hal_tim_ex.c **** 
 875:Drivers/STM32L4xx_HAL_Driver/Src/stm32l4xx_hal_tim_ex.c **** /**
 876:Drivers/STM32L4xx_HAL_Driver/Src/stm32l4xx_hal_tim_ex.c ****   * @}
 877:Drivers/STM32L4xx_HAL_Driver/Src/stm32l4xx_hal_tim_ex.c ****   */
 878:Drivers/STM32L4xx_HAL_Driver/Src/stm32l4xx_hal_tim_ex.c **** 
 879:Drivers/STM32L4xx_HAL_Driver/Src/stm32l4xx_hal_tim_ex.c **** /** @defgroup TIMEx_Exported_Functions_Group3 Extended Timer Complementary PWM functions
 880:Drivers/STM32L4xx_HAL_Driver/Src/stm32l4xx_hal_tim_ex.c ****   * @brief    Timer Complementary PWM functions
 881:Drivers/STM32L4xx_HAL_Driver/Src/stm32l4xx_hal_tim_ex.c ****   *
 882:Drivers/STM32L4xx_HAL_Driver/Src/stm32l4xx_hal_tim_ex.c **** @verbatim
 883:Drivers/STM32L4xx_HAL_Driver/Src/stm32l4xx_hal_tim_ex.c ****   ==============================================================================
 884:Drivers/STM32L4xx_HAL_Driver/Src/stm32l4xx_hal_tim_ex.c ****                  ##### Timer Complementary PWM functions #####
 885:Drivers/STM32L4xx_HAL_Driver/Src/stm32l4xx_hal_tim_ex.c ****   ==============================================================================
 886:Drivers/STM32L4xx_HAL_Driver/Src/stm32l4xx_hal_tim_ex.c ****   [..]
 887:Drivers/STM32L4xx_HAL_Driver/Src/stm32l4xx_hal_tim_ex.c ****     This section provides functions allowing to:
 888:Drivers/STM32L4xx_HAL_Driver/Src/stm32l4xx_hal_tim_ex.c ****     (+) Start the Complementary PWM.
 889:Drivers/STM32L4xx_HAL_Driver/Src/stm32l4xx_hal_tim_ex.c ****     (+) Stop the Complementary PWM.
 890:Drivers/STM32L4xx_HAL_Driver/Src/stm32l4xx_hal_tim_ex.c ****     (+) Start the Complementary PWM and enable interrupts.
 891:Drivers/STM32L4xx_HAL_Driver/Src/stm32l4xx_hal_tim_ex.c ****     (+) Stop the Complementary PWM and disable interrupts.
 892:Drivers/STM32L4xx_HAL_Driver/Src/stm32l4xx_hal_tim_ex.c ****     (+) Start the Complementary PWM and enable DMA transfers.
 893:Drivers/STM32L4xx_HAL_Driver/Src/stm32l4xx_hal_tim_ex.c ****     (+) Stop the Complementary PWM and disable DMA transfers.
 894:Drivers/STM32L4xx_HAL_Driver/Src/stm32l4xx_hal_tim_ex.c ****     (+) Start the Complementary Input Capture measurement.
 895:Drivers/STM32L4xx_HAL_Driver/Src/stm32l4xx_hal_tim_ex.c ****     (+) Stop the Complementary Input Capture.
 896:Drivers/STM32L4xx_HAL_Driver/Src/stm32l4xx_hal_tim_ex.c ****     (+) Start the Complementary Input Capture and enable interrupts.
 897:Drivers/STM32L4xx_HAL_Driver/Src/stm32l4xx_hal_tim_ex.c ****     (+) Stop the Complementary Input Capture and disable interrupts.
 898:Drivers/STM32L4xx_HAL_Driver/Src/stm32l4xx_hal_tim_ex.c ****     (+) Start the Complementary Input Capture and enable DMA transfers.
 899:Drivers/STM32L4xx_HAL_Driver/Src/stm32l4xx_hal_tim_ex.c ****     (+) Stop the Complementary Input Capture and disable DMA transfers.
 900:Drivers/STM32L4xx_HAL_Driver/Src/stm32l4xx_hal_tim_ex.c ****     (+) Start the Complementary One Pulse generation.
 901:Drivers/STM32L4xx_HAL_Driver/Src/stm32l4xx_hal_tim_ex.c ****     (+) Stop the Complementary One Pulse.
 902:Drivers/STM32L4xx_HAL_Driver/Src/stm32l4xx_hal_tim_ex.c ****     (+) Start the Complementary One Pulse and enable interrupts.
 903:Drivers/STM32L4xx_HAL_Driver/Src/stm32l4xx_hal_tim_ex.c ****     (+) Stop the Complementary One Pulse and disable interrupts.
 904:Drivers/STM32L4xx_HAL_Driver/Src/stm32l4xx_hal_tim_ex.c **** 
 905:Drivers/STM32L4xx_HAL_Driver/Src/stm32l4xx_hal_tim_ex.c **** @endverbatim
 906:Drivers/STM32L4xx_HAL_Driver/Src/stm32l4xx_hal_tim_ex.c ****   * @{
ARM GAS  /tmp/ccByjmRO.s 			page 39


 907:Drivers/STM32L4xx_HAL_Driver/Src/stm32l4xx_hal_tim_ex.c ****   */
 908:Drivers/STM32L4xx_HAL_Driver/Src/stm32l4xx_hal_tim_ex.c **** 
 909:Drivers/STM32L4xx_HAL_Driver/Src/stm32l4xx_hal_tim_ex.c **** /**
 910:Drivers/STM32L4xx_HAL_Driver/Src/stm32l4xx_hal_tim_ex.c ****   * @brief  Starts the PWM signal generation on the complementary output.
 911:Drivers/STM32L4xx_HAL_Driver/Src/stm32l4xx_hal_tim_ex.c ****   * @param  htim TIM handle
 912:Drivers/STM32L4xx_HAL_Driver/Src/stm32l4xx_hal_tim_ex.c ****   * @param  Channel TIM Channel to be enabled
 913:Drivers/STM32L4xx_HAL_Driver/Src/stm32l4xx_hal_tim_ex.c ****   *          This parameter can be one of the following values:
 914:Drivers/STM32L4xx_HAL_Driver/Src/stm32l4xx_hal_tim_ex.c ****   *            @arg TIM_CHANNEL_1: TIM Channel 1 selected
 915:Drivers/STM32L4xx_HAL_Driver/Src/stm32l4xx_hal_tim_ex.c ****   *            @arg TIM_CHANNEL_2: TIM Channel 2 selected
 916:Drivers/STM32L4xx_HAL_Driver/Src/stm32l4xx_hal_tim_ex.c ****   *            @arg TIM_CHANNEL_3: TIM Channel 3 selected
 917:Drivers/STM32L4xx_HAL_Driver/Src/stm32l4xx_hal_tim_ex.c ****   * @retval HAL status
 918:Drivers/STM32L4xx_HAL_Driver/Src/stm32l4xx_hal_tim_ex.c ****   */
 919:Drivers/STM32L4xx_HAL_Driver/Src/stm32l4xx_hal_tim_ex.c **** HAL_StatusTypeDef HAL_TIMEx_PWMN_Start(TIM_HandleTypeDef *htim, uint32_t Channel)
 920:Drivers/STM32L4xx_HAL_Driver/Src/stm32l4xx_hal_tim_ex.c **** {
 1247              		.loc 1 920 0
 1248              		.cfi_startproc
 1249              		@ args = 0, pretend = 0, frame = 0
 1250              		@ frame_needed = 0, uses_anonymous_args = 0
 1251              		@ link register save eliminated.
 1252              	.LVL47:
 921:Drivers/STM32L4xx_HAL_Driver/Src/stm32l4xx_hal_tim_ex.c ****   uint32_t tmpsmcr;
 922:Drivers/STM32L4xx_HAL_Driver/Src/stm32l4xx_hal_tim_ex.c **** 
 923:Drivers/STM32L4xx_HAL_Driver/Src/stm32l4xx_hal_tim_ex.c ****   /* Check the parameters */
 924:Drivers/STM32L4xx_HAL_Driver/Src/stm32l4xx_hal_tim_ex.c ****   assert_param(IS_TIM_CCXN_INSTANCE(htim->Instance, Channel));
 925:Drivers/STM32L4xx_HAL_Driver/Src/stm32l4xx_hal_tim_ex.c **** 
 926:Drivers/STM32L4xx_HAL_Driver/Src/stm32l4xx_hal_tim_ex.c ****   /* Enable the complementary PWM output  */
 927:Drivers/STM32L4xx_HAL_Driver/Src/stm32l4xx_hal_tim_ex.c ****   TIM_CCxNChannelCmd(htim->Instance, Channel, TIM_CCxN_ENABLE);
 1253              		.loc 1 927 0
 1254 0000 0368     		ldr	r3, [r0]
 1255              	.LVL48:
 928:Drivers/STM32L4xx_HAL_Driver/Src/stm32l4xx_hal_tim_ex.c **** 
 929:Drivers/STM32L4xx_HAL_Driver/Src/stm32l4xx_hal_tim_ex.c ****   /* Enable the Main Output */
 930:Drivers/STM32L4xx_HAL_Driver/Src/stm32l4xx_hal_tim_ex.c ****   __HAL_TIM_MOE_ENABLE(htim);
 931:Drivers/STM32L4xx_HAL_Driver/Src/stm32l4xx_hal_tim_ex.c **** 
 932:Drivers/STM32L4xx_HAL_Driver/Src/stm32l4xx_hal_tim_ex.c ****   /* Enable the Peripheral, except in trigger mode where enable is automatically done with trigger 
 933:Drivers/STM32L4xx_HAL_Driver/Src/stm32l4xx_hal_tim_ex.c ****   tmpsmcr = htim->Instance->SMCR & TIM_SMCR_SMS;
 1256              		.loc 1 933 0
 1257 0002 1048     		ldr	r0, .L150
 1258              	.LVL49:
 920:Drivers/STM32L4xx_HAL_Driver/Src/stm32l4xx_hal_tim_ex.c ****   uint32_t tmpsmcr;
 1259              		.loc 1 920 0
 1260 0004 10B4     		push	{r4}
 1261              	.LCFI19:
 1262              		.cfi_def_cfa_offset 4
 1263              		.cfi_offset 4, -4
 1264              	.LBB34:
 1265              	.LBB35:
 934:Drivers/STM32L4xx_HAL_Driver/Src/stm32l4xx_hal_tim_ex.c ****   if (!IS_TIM_SLAVEMODE_TRIGGER_ENABLED(tmpsmcr))
 935:Drivers/STM32L4xx_HAL_Driver/Src/stm32l4xx_hal_tim_ex.c ****   {
 936:Drivers/STM32L4xx_HAL_Driver/Src/stm32l4xx_hal_tim_ex.c ****     __HAL_TIM_ENABLE(htim);
 937:Drivers/STM32L4xx_HAL_Driver/Src/stm32l4xx_hal_tim_ex.c ****   }
 938:Drivers/STM32L4xx_HAL_Driver/Src/stm32l4xx_hal_tim_ex.c **** 
 939:Drivers/STM32L4xx_HAL_Driver/Src/stm32l4xx_hal_tim_ex.c ****   /* Return function status */
 940:Drivers/STM32L4xx_HAL_Driver/Src/stm32l4xx_hal_tim_ex.c ****   return HAL_OK;
 941:Drivers/STM32L4xx_HAL_Driver/Src/stm32l4xx_hal_tim_ex.c **** }
 942:Drivers/STM32L4xx_HAL_Driver/Src/stm32l4xx_hal_tim_ex.c **** 
 943:Drivers/STM32L4xx_HAL_Driver/Src/stm32l4xx_hal_tim_ex.c **** /**
ARM GAS  /tmp/ccByjmRO.s 			page 40


 944:Drivers/STM32L4xx_HAL_Driver/Src/stm32l4xx_hal_tim_ex.c ****   * @brief  Stops the PWM signal generation on the complementary output.
 945:Drivers/STM32L4xx_HAL_Driver/Src/stm32l4xx_hal_tim_ex.c ****   * @param  htim TIM handle
 946:Drivers/STM32L4xx_HAL_Driver/Src/stm32l4xx_hal_tim_ex.c ****   * @param  Channel TIM Channel to be disabled
 947:Drivers/STM32L4xx_HAL_Driver/Src/stm32l4xx_hal_tim_ex.c ****   *          This parameter can be one of the following values:
 948:Drivers/STM32L4xx_HAL_Driver/Src/stm32l4xx_hal_tim_ex.c ****   *            @arg TIM_CHANNEL_1: TIM Channel 1 selected
 949:Drivers/STM32L4xx_HAL_Driver/Src/stm32l4xx_hal_tim_ex.c ****   *            @arg TIM_CHANNEL_2: TIM Channel 2 selected
 950:Drivers/STM32L4xx_HAL_Driver/Src/stm32l4xx_hal_tim_ex.c ****   *            @arg TIM_CHANNEL_3: TIM Channel 3 selected
 951:Drivers/STM32L4xx_HAL_Driver/Src/stm32l4xx_hal_tim_ex.c ****   * @retval HAL status
 952:Drivers/STM32L4xx_HAL_Driver/Src/stm32l4xx_hal_tim_ex.c ****   */
 953:Drivers/STM32L4xx_HAL_Driver/Src/stm32l4xx_hal_tim_ex.c **** HAL_StatusTypeDef HAL_TIMEx_PWMN_Stop(TIM_HandleTypeDef *htim, uint32_t Channel)
 954:Drivers/STM32L4xx_HAL_Driver/Src/stm32l4xx_hal_tim_ex.c **** {
 955:Drivers/STM32L4xx_HAL_Driver/Src/stm32l4xx_hal_tim_ex.c ****   /* Check the parameters */
 956:Drivers/STM32L4xx_HAL_Driver/Src/stm32l4xx_hal_tim_ex.c ****   assert_param(IS_TIM_CCXN_INSTANCE(htim->Instance, Channel));
 957:Drivers/STM32L4xx_HAL_Driver/Src/stm32l4xx_hal_tim_ex.c **** 
 958:Drivers/STM32L4xx_HAL_Driver/Src/stm32l4xx_hal_tim_ex.c ****   /* Disable the complementary PWM output  */
 959:Drivers/STM32L4xx_HAL_Driver/Src/stm32l4xx_hal_tim_ex.c ****   TIM_CCxNChannelCmd(htim->Instance, Channel, TIM_CCxN_DISABLE);
 960:Drivers/STM32L4xx_HAL_Driver/Src/stm32l4xx_hal_tim_ex.c **** 
 961:Drivers/STM32L4xx_HAL_Driver/Src/stm32l4xx_hal_tim_ex.c ****   /* Disable the Main Output */
 962:Drivers/STM32L4xx_HAL_Driver/Src/stm32l4xx_hal_tim_ex.c ****   __HAL_TIM_MOE_DISABLE(htim);
 963:Drivers/STM32L4xx_HAL_Driver/Src/stm32l4xx_hal_tim_ex.c **** 
 964:Drivers/STM32L4xx_HAL_Driver/Src/stm32l4xx_hal_tim_ex.c ****   /* Disable the Peripheral */
 965:Drivers/STM32L4xx_HAL_Driver/Src/stm32l4xx_hal_tim_ex.c ****   __HAL_TIM_DISABLE(htim);
 966:Drivers/STM32L4xx_HAL_Driver/Src/stm32l4xx_hal_tim_ex.c **** 
 967:Drivers/STM32L4xx_HAL_Driver/Src/stm32l4xx_hal_tim_ex.c ****   /* Return function status */
 968:Drivers/STM32L4xx_HAL_Driver/Src/stm32l4xx_hal_tim_ex.c ****   return HAL_OK;
 969:Drivers/STM32L4xx_HAL_Driver/Src/stm32l4xx_hal_tim_ex.c **** }
 970:Drivers/STM32L4xx_HAL_Driver/Src/stm32l4xx_hal_tim_ex.c **** 
 971:Drivers/STM32L4xx_HAL_Driver/Src/stm32l4xx_hal_tim_ex.c **** /**
 972:Drivers/STM32L4xx_HAL_Driver/Src/stm32l4xx_hal_tim_ex.c ****   * @brief  Starts the PWM signal generation in interrupt mode on the
 973:Drivers/STM32L4xx_HAL_Driver/Src/stm32l4xx_hal_tim_ex.c ****   *         complementary output.
 974:Drivers/STM32L4xx_HAL_Driver/Src/stm32l4xx_hal_tim_ex.c ****   * @param  htim TIM handle
 975:Drivers/STM32L4xx_HAL_Driver/Src/stm32l4xx_hal_tim_ex.c ****   * @param  Channel TIM Channel to be disabled
 976:Drivers/STM32L4xx_HAL_Driver/Src/stm32l4xx_hal_tim_ex.c ****   *          This parameter can be one of the following values:
 977:Drivers/STM32L4xx_HAL_Driver/Src/stm32l4xx_hal_tim_ex.c ****   *            @arg TIM_CHANNEL_1: TIM Channel 1 selected
 978:Drivers/STM32L4xx_HAL_Driver/Src/stm32l4xx_hal_tim_ex.c ****   *            @arg TIM_CHANNEL_2: TIM Channel 2 selected
 979:Drivers/STM32L4xx_HAL_Driver/Src/stm32l4xx_hal_tim_ex.c ****   *            @arg TIM_CHANNEL_3: TIM Channel 3 selected
 980:Drivers/STM32L4xx_HAL_Driver/Src/stm32l4xx_hal_tim_ex.c ****   * @retval HAL status
 981:Drivers/STM32L4xx_HAL_Driver/Src/stm32l4xx_hal_tim_ex.c ****   */
 982:Drivers/STM32L4xx_HAL_Driver/Src/stm32l4xx_hal_tim_ex.c **** HAL_StatusTypeDef HAL_TIMEx_PWMN_Start_IT(TIM_HandleTypeDef *htim, uint32_t Channel)
 983:Drivers/STM32L4xx_HAL_Driver/Src/stm32l4xx_hal_tim_ex.c **** {
 984:Drivers/STM32L4xx_HAL_Driver/Src/stm32l4xx_hal_tim_ex.c ****   uint32_t tmpsmcr;
 985:Drivers/STM32L4xx_HAL_Driver/Src/stm32l4xx_hal_tim_ex.c **** 
 986:Drivers/STM32L4xx_HAL_Driver/Src/stm32l4xx_hal_tim_ex.c ****   /* Check the parameters */
 987:Drivers/STM32L4xx_HAL_Driver/Src/stm32l4xx_hal_tim_ex.c ****   assert_param(IS_TIM_CCXN_INSTANCE(htim->Instance, Channel));
 988:Drivers/STM32L4xx_HAL_Driver/Src/stm32l4xx_hal_tim_ex.c **** 
 989:Drivers/STM32L4xx_HAL_Driver/Src/stm32l4xx_hal_tim_ex.c ****   switch (Channel)
 990:Drivers/STM32L4xx_HAL_Driver/Src/stm32l4xx_hal_tim_ex.c ****   {
 991:Drivers/STM32L4xx_HAL_Driver/Src/stm32l4xx_hal_tim_ex.c ****     case TIM_CHANNEL_1:
 992:Drivers/STM32L4xx_HAL_Driver/Src/stm32l4xx_hal_tim_ex.c ****     {
 993:Drivers/STM32L4xx_HAL_Driver/Src/stm32l4xx_hal_tim_ex.c ****       /* Enable the TIM Capture/Compare 1 interrupt */
 994:Drivers/STM32L4xx_HAL_Driver/Src/stm32l4xx_hal_tim_ex.c ****       __HAL_TIM_ENABLE_IT(htim, TIM_IT_CC1);
 995:Drivers/STM32L4xx_HAL_Driver/Src/stm32l4xx_hal_tim_ex.c ****       break;
 996:Drivers/STM32L4xx_HAL_Driver/Src/stm32l4xx_hal_tim_ex.c ****     }
 997:Drivers/STM32L4xx_HAL_Driver/Src/stm32l4xx_hal_tim_ex.c **** 
 998:Drivers/STM32L4xx_HAL_Driver/Src/stm32l4xx_hal_tim_ex.c ****     case TIM_CHANNEL_2:
 999:Drivers/STM32L4xx_HAL_Driver/Src/stm32l4xx_hal_tim_ex.c ****     {
1000:Drivers/STM32L4xx_HAL_Driver/Src/stm32l4xx_hal_tim_ex.c ****       /* Enable the TIM Capture/Compare 2 interrupt */
ARM GAS  /tmp/ccByjmRO.s 			page 41


1001:Drivers/STM32L4xx_HAL_Driver/Src/stm32l4xx_hal_tim_ex.c ****       __HAL_TIM_ENABLE_IT(htim, TIM_IT_CC2);
1002:Drivers/STM32L4xx_HAL_Driver/Src/stm32l4xx_hal_tim_ex.c ****       break;
1003:Drivers/STM32L4xx_HAL_Driver/Src/stm32l4xx_hal_tim_ex.c ****     }
1004:Drivers/STM32L4xx_HAL_Driver/Src/stm32l4xx_hal_tim_ex.c **** 
1005:Drivers/STM32L4xx_HAL_Driver/Src/stm32l4xx_hal_tim_ex.c ****     case TIM_CHANNEL_3:
1006:Drivers/STM32L4xx_HAL_Driver/Src/stm32l4xx_hal_tim_ex.c ****     {
1007:Drivers/STM32L4xx_HAL_Driver/Src/stm32l4xx_hal_tim_ex.c ****       /* Enable the TIM Capture/Compare 3 interrupt */
1008:Drivers/STM32L4xx_HAL_Driver/Src/stm32l4xx_hal_tim_ex.c ****       __HAL_TIM_ENABLE_IT(htim, TIM_IT_CC3);
1009:Drivers/STM32L4xx_HAL_Driver/Src/stm32l4xx_hal_tim_ex.c ****       break;
1010:Drivers/STM32L4xx_HAL_Driver/Src/stm32l4xx_hal_tim_ex.c ****     }
1011:Drivers/STM32L4xx_HAL_Driver/Src/stm32l4xx_hal_tim_ex.c **** 
1012:Drivers/STM32L4xx_HAL_Driver/Src/stm32l4xx_hal_tim_ex.c ****     default:
1013:Drivers/STM32L4xx_HAL_Driver/Src/stm32l4xx_hal_tim_ex.c ****       break;
1014:Drivers/STM32L4xx_HAL_Driver/Src/stm32l4xx_hal_tim_ex.c ****   }
1015:Drivers/STM32L4xx_HAL_Driver/Src/stm32l4xx_hal_tim_ex.c **** 
1016:Drivers/STM32L4xx_HAL_Driver/Src/stm32l4xx_hal_tim_ex.c ****   /* Enable the TIM Break interrupt */
1017:Drivers/STM32L4xx_HAL_Driver/Src/stm32l4xx_hal_tim_ex.c ****   __HAL_TIM_ENABLE_IT(htim, TIM_IT_BREAK);
1018:Drivers/STM32L4xx_HAL_Driver/Src/stm32l4xx_hal_tim_ex.c **** 
1019:Drivers/STM32L4xx_HAL_Driver/Src/stm32l4xx_hal_tim_ex.c ****   /* Enable the complementary PWM output  */
1020:Drivers/STM32L4xx_HAL_Driver/Src/stm32l4xx_hal_tim_ex.c ****   TIM_CCxNChannelCmd(htim->Instance, Channel, TIM_CCxN_ENABLE);
1021:Drivers/STM32L4xx_HAL_Driver/Src/stm32l4xx_hal_tim_ex.c **** 
1022:Drivers/STM32L4xx_HAL_Driver/Src/stm32l4xx_hal_tim_ex.c ****   /* Enable the Main Output */
1023:Drivers/STM32L4xx_HAL_Driver/Src/stm32l4xx_hal_tim_ex.c ****   __HAL_TIM_MOE_ENABLE(htim);
1024:Drivers/STM32L4xx_HAL_Driver/Src/stm32l4xx_hal_tim_ex.c **** 
1025:Drivers/STM32L4xx_HAL_Driver/Src/stm32l4xx_hal_tim_ex.c ****   /* Enable the Peripheral, except in trigger mode where enable is automatically done with trigger 
1026:Drivers/STM32L4xx_HAL_Driver/Src/stm32l4xx_hal_tim_ex.c ****   tmpsmcr = htim->Instance->SMCR & TIM_SMCR_SMS;
1027:Drivers/STM32L4xx_HAL_Driver/Src/stm32l4xx_hal_tim_ex.c ****   if (!IS_TIM_SLAVEMODE_TRIGGER_ENABLED(tmpsmcr))
1028:Drivers/STM32L4xx_HAL_Driver/Src/stm32l4xx_hal_tim_ex.c ****   {
1029:Drivers/STM32L4xx_HAL_Driver/Src/stm32l4xx_hal_tim_ex.c ****     __HAL_TIM_ENABLE(htim);
1030:Drivers/STM32L4xx_HAL_Driver/Src/stm32l4xx_hal_tim_ex.c ****   }
1031:Drivers/STM32L4xx_HAL_Driver/Src/stm32l4xx_hal_tim_ex.c **** 
1032:Drivers/STM32L4xx_HAL_Driver/Src/stm32l4xx_hal_tim_ex.c ****   /* Return function status */
1033:Drivers/STM32L4xx_HAL_Driver/Src/stm32l4xx_hal_tim_ex.c ****   return HAL_OK;
1034:Drivers/STM32L4xx_HAL_Driver/Src/stm32l4xx_hal_tim_ex.c **** }
1035:Drivers/STM32L4xx_HAL_Driver/Src/stm32l4xx_hal_tim_ex.c **** 
1036:Drivers/STM32L4xx_HAL_Driver/Src/stm32l4xx_hal_tim_ex.c **** /**
1037:Drivers/STM32L4xx_HAL_Driver/Src/stm32l4xx_hal_tim_ex.c ****   * @brief  Stops the PWM signal generation in interrupt mode on the
1038:Drivers/STM32L4xx_HAL_Driver/Src/stm32l4xx_hal_tim_ex.c ****   *         complementary output.
1039:Drivers/STM32L4xx_HAL_Driver/Src/stm32l4xx_hal_tim_ex.c ****   * @param  htim TIM handle
1040:Drivers/STM32L4xx_HAL_Driver/Src/stm32l4xx_hal_tim_ex.c ****   * @param  Channel TIM Channel to be disabled
1041:Drivers/STM32L4xx_HAL_Driver/Src/stm32l4xx_hal_tim_ex.c ****   *          This parameter can be one of the following values:
1042:Drivers/STM32L4xx_HAL_Driver/Src/stm32l4xx_hal_tim_ex.c ****   *            @arg TIM_CHANNEL_1: TIM Channel 1 selected
1043:Drivers/STM32L4xx_HAL_Driver/Src/stm32l4xx_hal_tim_ex.c ****   *            @arg TIM_CHANNEL_2: TIM Channel 2 selected
1044:Drivers/STM32L4xx_HAL_Driver/Src/stm32l4xx_hal_tim_ex.c ****   *            @arg TIM_CHANNEL_3: TIM Channel 3 selected
1045:Drivers/STM32L4xx_HAL_Driver/Src/stm32l4xx_hal_tim_ex.c ****   * @retval HAL status
1046:Drivers/STM32L4xx_HAL_Driver/Src/stm32l4xx_hal_tim_ex.c ****   */
1047:Drivers/STM32L4xx_HAL_Driver/Src/stm32l4xx_hal_tim_ex.c **** HAL_StatusTypeDef HAL_TIMEx_PWMN_Stop_IT(TIM_HandleTypeDef *htim, uint32_t Channel)
1048:Drivers/STM32L4xx_HAL_Driver/Src/stm32l4xx_hal_tim_ex.c **** {
1049:Drivers/STM32L4xx_HAL_Driver/Src/stm32l4xx_hal_tim_ex.c ****   uint32_t tmpccer;
1050:Drivers/STM32L4xx_HAL_Driver/Src/stm32l4xx_hal_tim_ex.c **** 
1051:Drivers/STM32L4xx_HAL_Driver/Src/stm32l4xx_hal_tim_ex.c ****   /* Check the parameters */
1052:Drivers/STM32L4xx_HAL_Driver/Src/stm32l4xx_hal_tim_ex.c ****   assert_param(IS_TIM_CCXN_INSTANCE(htim->Instance, Channel));
1053:Drivers/STM32L4xx_HAL_Driver/Src/stm32l4xx_hal_tim_ex.c **** 
1054:Drivers/STM32L4xx_HAL_Driver/Src/stm32l4xx_hal_tim_ex.c ****   switch (Channel)
1055:Drivers/STM32L4xx_HAL_Driver/Src/stm32l4xx_hal_tim_ex.c ****   {
1056:Drivers/STM32L4xx_HAL_Driver/Src/stm32l4xx_hal_tim_ex.c ****     case TIM_CHANNEL_1:
1057:Drivers/STM32L4xx_HAL_Driver/Src/stm32l4xx_hal_tim_ex.c ****     {
ARM GAS  /tmp/ccByjmRO.s 			page 42


1058:Drivers/STM32L4xx_HAL_Driver/Src/stm32l4xx_hal_tim_ex.c ****       /* Disable the TIM Capture/Compare 1 interrupt */
1059:Drivers/STM32L4xx_HAL_Driver/Src/stm32l4xx_hal_tim_ex.c ****       __HAL_TIM_DISABLE_IT(htim, TIM_IT_CC1);
1060:Drivers/STM32L4xx_HAL_Driver/Src/stm32l4xx_hal_tim_ex.c ****       break;
1061:Drivers/STM32L4xx_HAL_Driver/Src/stm32l4xx_hal_tim_ex.c ****     }
1062:Drivers/STM32L4xx_HAL_Driver/Src/stm32l4xx_hal_tim_ex.c **** 
1063:Drivers/STM32L4xx_HAL_Driver/Src/stm32l4xx_hal_tim_ex.c ****     case TIM_CHANNEL_2:
1064:Drivers/STM32L4xx_HAL_Driver/Src/stm32l4xx_hal_tim_ex.c ****     {
1065:Drivers/STM32L4xx_HAL_Driver/Src/stm32l4xx_hal_tim_ex.c ****       /* Disable the TIM Capture/Compare 2 interrupt */
1066:Drivers/STM32L4xx_HAL_Driver/Src/stm32l4xx_hal_tim_ex.c ****       __HAL_TIM_DISABLE_IT(htim, TIM_IT_CC2);
1067:Drivers/STM32L4xx_HAL_Driver/Src/stm32l4xx_hal_tim_ex.c ****       break;
1068:Drivers/STM32L4xx_HAL_Driver/Src/stm32l4xx_hal_tim_ex.c ****     }
1069:Drivers/STM32L4xx_HAL_Driver/Src/stm32l4xx_hal_tim_ex.c **** 
1070:Drivers/STM32L4xx_HAL_Driver/Src/stm32l4xx_hal_tim_ex.c ****     case TIM_CHANNEL_3:
1071:Drivers/STM32L4xx_HAL_Driver/Src/stm32l4xx_hal_tim_ex.c ****     {
1072:Drivers/STM32L4xx_HAL_Driver/Src/stm32l4xx_hal_tim_ex.c ****       /* Disable the TIM Capture/Compare 3 interrupt */
1073:Drivers/STM32L4xx_HAL_Driver/Src/stm32l4xx_hal_tim_ex.c ****       __HAL_TIM_DISABLE_IT(htim, TIM_IT_CC3);
1074:Drivers/STM32L4xx_HAL_Driver/Src/stm32l4xx_hal_tim_ex.c ****       break;
1075:Drivers/STM32L4xx_HAL_Driver/Src/stm32l4xx_hal_tim_ex.c ****     }
1076:Drivers/STM32L4xx_HAL_Driver/Src/stm32l4xx_hal_tim_ex.c **** 
1077:Drivers/STM32L4xx_HAL_Driver/Src/stm32l4xx_hal_tim_ex.c ****     default:
1078:Drivers/STM32L4xx_HAL_Driver/Src/stm32l4xx_hal_tim_ex.c ****       break;
1079:Drivers/STM32L4xx_HAL_Driver/Src/stm32l4xx_hal_tim_ex.c ****   }
1080:Drivers/STM32L4xx_HAL_Driver/Src/stm32l4xx_hal_tim_ex.c **** 
1081:Drivers/STM32L4xx_HAL_Driver/Src/stm32l4xx_hal_tim_ex.c ****   /* Disable the complementary PWM output  */
1082:Drivers/STM32L4xx_HAL_Driver/Src/stm32l4xx_hal_tim_ex.c ****   TIM_CCxNChannelCmd(htim->Instance, Channel, TIM_CCxN_DISABLE);
1083:Drivers/STM32L4xx_HAL_Driver/Src/stm32l4xx_hal_tim_ex.c **** 
1084:Drivers/STM32L4xx_HAL_Driver/Src/stm32l4xx_hal_tim_ex.c ****   /* Disable the TIM Break interrupt (only if no more channel is active) */
1085:Drivers/STM32L4xx_HAL_Driver/Src/stm32l4xx_hal_tim_ex.c ****   tmpccer = htim->Instance->CCER;
1086:Drivers/STM32L4xx_HAL_Driver/Src/stm32l4xx_hal_tim_ex.c ****   if ((tmpccer & (TIM_CCER_CC1NE | TIM_CCER_CC2NE | TIM_CCER_CC3NE)) == (uint32_t)RESET)
1087:Drivers/STM32L4xx_HAL_Driver/Src/stm32l4xx_hal_tim_ex.c ****   {
1088:Drivers/STM32L4xx_HAL_Driver/Src/stm32l4xx_hal_tim_ex.c ****     __HAL_TIM_DISABLE_IT(htim, TIM_IT_BREAK);
1089:Drivers/STM32L4xx_HAL_Driver/Src/stm32l4xx_hal_tim_ex.c ****   }
1090:Drivers/STM32L4xx_HAL_Driver/Src/stm32l4xx_hal_tim_ex.c **** 
1091:Drivers/STM32L4xx_HAL_Driver/Src/stm32l4xx_hal_tim_ex.c ****   /* Disable the Main Output */
1092:Drivers/STM32L4xx_HAL_Driver/Src/stm32l4xx_hal_tim_ex.c ****   __HAL_TIM_MOE_DISABLE(htim);
1093:Drivers/STM32L4xx_HAL_Driver/Src/stm32l4xx_hal_tim_ex.c **** 
1094:Drivers/STM32L4xx_HAL_Driver/Src/stm32l4xx_hal_tim_ex.c ****   /* Disable the Peripheral */
1095:Drivers/STM32L4xx_HAL_Driver/Src/stm32l4xx_hal_tim_ex.c ****   __HAL_TIM_DISABLE(htim);
1096:Drivers/STM32L4xx_HAL_Driver/Src/stm32l4xx_hal_tim_ex.c **** 
1097:Drivers/STM32L4xx_HAL_Driver/Src/stm32l4xx_hal_tim_ex.c ****   /* Return function status */
1098:Drivers/STM32L4xx_HAL_Driver/Src/stm32l4xx_hal_tim_ex.c ****   return HAL_OK;
1099:Drivers/STM32L4xx_HAL_Driver/Src/stm32l4xx_hal_tim_ex.c **** }
1100:Drivers/STM32L4xx_HAL_Driver/Src/stm32l4xx_hal_tim_ex.c **** 
1101:Drivers/STM32L4xx_HAL_Driver/Src/stm32l4xx_hal_tim_ex.c **** /**
1102:Drivers/STM32L4xx_HAL_Driver/Src/stm32l4xx_hal_tim_ex.c ****   * @brief  Starts the TIM PWM signal generation in DMA mode on the
1103:Drivers/STM32L4xx_HAL_Driver/Src/stm32l4xx_hal_tim_ex.c ****   *         complementary output
1104:Drivers/STM32L4xx_HAL_Driver/Src/stm32l4xx_hal_tim_ex.c ****   * @param  htim TIM handle
1105:Drivers/STM32L4xx_HAL_Driver/Src/stm32l4xx_hal_tim_ex.c ****   * @param  Channel TIM Channel to be enabled
1106:Drivers/STM32L4xx_HAL_Driver/Src/stm32l4xx_hal_tim_ex.c ****   *          This parameter can be one of the following values:
1107:Drivers/STM32L4xx_HAL_Driver/Src/stm32l4xx_hal_tim_ex.c ****   *            @arg TIM_CHANNEL_1: TIM Channel 1 selected
1108:Drivers/STM32L4xx_HAL_Driver/Src/stm32l4xx_hal_tim_ex.c ****   *            @arg TIM_CHANNEL_2: TIM Channel 2 selected
1109:Drivers/STM32L4xx_HAL_Driver/Src/stm32l4xx_hal_tim_ex.c ****   *            @arg TIM_CHANNEL_3: TIM Channel 3 selected
1110:Drivers/STM32L4xx_HAL_Driver/Src/stm32l4xx_hal_tim_ex.c ****   * @param  pData The source Buffer address.
1111:Drivers/STM32L4xx_HAL_Driver/Src/stm32l4xx_hal_tim_ex.c ****   * @param  Length The length of data to be transferred from memory to TIM peripheral
1112:Drivers/STM32L4xx_HAL_Driver/Src/stm32l4xx_hal_tim_ex.c ****   * @retval HAL status
1113:Drivers/STM32L4xx_HAL_Driver/Src/stm32l4xx_hal_tim_ex.c ****   */
1114:Drivers/STM32L4xx_HAL_Driver/Src/stm32l4xx_hal_tim_ex.c **** HAL_StatusTypeDef HAL_TIMEx_PWMN_Start_DMA(TIM_HandleTypeDef *htim, uint32_t Channel, uint32_t *pDa
ARM GAS  /tmp/ccByjmRO.s 			page 43


1115:Drivers/STM32L4xx_HAL_Driver/Src/stm32l4xx_hal_tim_ex.c **** {
1116:Drivers/STM32L4xx_HAL_Driver/Src/stm32l4xx_hal_tim_ex.c ****   uint32_t tmpsmcr;
1117:Drivers/STM32L4xx_HAL_Driver/Src/stm32l4xx_hal_tim_ex.c **** 
1118:Drivers/STM32L4xx_HAL_Driver/Src/stm32l4xx_hal_tim_ex.c ****   /* Check the parameters */
1119:Drivers/STM32L4xx_HAL_Driver/Src/stm32l4xx_hal_tim_ex.c ****   assert_param(IS_TIM_CCXN_INSTANCE(htim->Instance, Channel));
1120:Drivers/STM32L4xx_HAL_Driver/Src/stm32l4xx_hal_tim_ex.c **** 
1121:Drivers/STM32L4xx_HAL_Driver/Src/stm32l4xx_hal_tim_ex.c ****   if ((htim->State == HAL_TIM_STATE_BUSY))
1122:Drivers/STM32L4xx_HAL_Driver/Src/stm32l4xx_hal_tim_ex.c ****   {
1123:Drivers/STM32L4xx_HAL_Driver/Src/stm32l4xx_hal_tim_ex.c ****     return HAL_BUSY;
1124:Drivers/STM32L4xx_HAL_Driver/Src/stm32l4xx_hal_tim_ex.c ****   }
1125:Drivers/STM32L4xx_HAL_Driver/Src/stm32l4xx_hal_tim_ex.c ****   else if ((htim->State == HAL_TIM_STATE_READY))
1126:Drivers/STM32L4xx_HAL_Driver/Src/stm32l4xx_hal_tim_ex.c ****   {
1127:Drivers/STM32L4xx_HAL_Driver/Src/stm32l4xx_hal_tim_ex.c ****     if (((uint32_t)pData == 0U) && (Length > 0U))
1128:Drivers/STM32L4xx_HAL_Driver/Src/stm32l4xx_hal_tim_ex.c ****     {
1129:Drivers/STM32L4xx_HAL_Driver/Src/stm32l4xx_hal_tim_ex.c ****       return HAL_ERROR;
1130:Drivers/STM32L4xx_HAL_Driver/Src/stm32l4xx_hal_tim_ex.c ****     }
1131:Drivers/STM32L4xx_HAL_Driver/Src/stm32l4xx_hal_tim_ex.c ****     else
1132:Drivers/STM32L4xx_HAL_Driver/Src/stm32l4xx_hal_tim_ex.c ****     {
1133:Drivers/STM32L4xx_HAL_Driver/Src/stm32l4xx_hal_tim_ex.c ****       htim->State = HAL_TIM_STATE_BUSY;
1134:Drivers/STM32L4xx_HAL_Driver/Src/stm32l4xx_hal_tim_ex.c ****     }
1135:Drivers/STM32L4xx_HAL_Driver/Src/stm32l4xx_hal_tim_ex.c ****   }
1136:Drivers/STM32L4xx_HAL_Driver/Src/stm32l4xx_hal_tim_ex.c ****   else
1137:Drivers/STM32L4xx_HAL_Driver/Src/stm32l4xx_hal_tim_ex.c ****   {
1138:Drivers/STM32L4xx_HAL_Driver/Src/stm32l4xx_hal_tim_ex.c ****     /* nothing to do */
1139:Drivers/STM32L4xx_HAL_Driver/Src/stm32l4xx_hal_tim_ex.c ****   }
1140:Drivers/STM32L4xx_HAL_Driver/Src/stm32l4xx_hal_tim_ex.c ****   switch (Channel)
1141:Drivers/STM32L4xx_HAL_Driver/Src/stm32l4xx_hal_tim_ex.c ****   {
1142:Drivers/STM32L4xx_HAL_Driver/Src/stm32l4xx_hal_tim_ex.c ****     case TIM_CHANNEL_1:
1143:Drivers/STM32L4xx_HAL_Driver/Src/stm32l4xx_hal_tim_ex.c ****     {
1144:Drivers/STM32L4xx_HAL_Driver/Src/stm32l4xx_hal_tim_ex.c ****       /* Set the DMA compare callbacks */
1145:Drivers/STM32L4xx_HAL_Driver/Src/stm32l4xx_hal_tim_ex.c ****       htim->hdma[TIM_DMA_ID_CC1]->XferCpltCallback = TIM_DMADelayPulseCplt;
1146:Drivers/STM32L4xx_HAL_Driver/Src/stm32l4xx_hal_tim_ex.c ****       htim->hdma[TIM_DMA_ID_CC1]->XferHalfCpltCallback = TIM_DMADelayPulseHalfCplt;
1147:Drivers/STM32L4xx_HAL_Driver/Src/stm32l4xx_hal_tim_ex.c **** 
1148:Drivers/STM32L4xx_HAL_Driver/Src/stm32l4xx_hal_tim_ex.c ****       /* Set the DMA error callback */
1149:Drivers/STM32L4xx_HAL_Driver/Src/stm32l4xx_hal_tim_ex.c ****       htim->hdma[TIM_DMA_ID_CC1]->XferErrorCallback = TIM_DMAError ;
1150:Drivers/STM32L4xx_HAL_Driver/Src/stm32l4xx_hal_tim_ex.c **** 
1151:Drivers/STM32L4xx_HAL_Driver/Src/stm32l4xx_hal_tim_ex.c ****       /* Enable the DMA channel */
1152:Drivers/STM32L4xx_HAL_Driver/Src/stm32l4xx_hal_tim_ex.c ****       if (HAL_DMA_Start_IT(htim->hdma[TIM_DMA_ID_CC1], (uint32_t)pData, (uint32_t)&htim->Instance->
1153:Drivers/STM32L4xx_HAL_Driver/Src/stm32l4xx_hal_tim_ex.c ****       {
1154:Drivers/STM32L4xx_HAL_Driver/Src/stm32l4xx_hal_tim_ex.c ****         return HAL_ERROR;
1155:Drivers/STM32L4xx_HAL_Driver/Src/stm32l4xx_hal_tim_ex.c ****       }
1156:Drivers/STM32L4xx_HAL_Driver/Src/stm32l4xx_hal_tim_ex.c ****       /* Enable the TIM Capture/Compare 1 DMA request */
1157:Drivers/STM32L4xx_HAL_Driver/Src/stm32l4xx_hal_tim_ex.c ****       __HAL_TIM_ENABLE_DMA(htim, TIM_DMA_CC1);
1158:Drivers/STM32L4xx_HAL_Driver/Src/stm32l4xx_hal_tim_ex.c ****       break;
1159:Drivers/STM32L4xx_HAL_Driver/Src/stm32l4xx_hal_tim_ex.c ****     }
1160:Drivers/STM32L4xx_HAL_Driver/Src/stm32l4xx_hal_tim_ex.c **** 
1161:Drivers/STM32L4xx_HAL_Driver/Src/stm32l4xx_hal_tim_ex.c ****     case TIM_CHANNEL_2:
1162:Drivers/STM32L4xx_HAL_Driver/Src/stm32l4xx_hal_tim_ex.c ****     {
1163:Drivers/STM32L4xx_HAL_Driver/Src/stm32l4xx_hal_tim_ex.c ****       /* Set the DMA compare callbacks */
1164:Drivers/STM32L4xx_HAL_Driver/Src/stm32l4xx_hal_tim_ex.c ****       htim->hdma[TIM_DMA_ID_CC2]->XferCpltCallback = TIM_DMADelayPulseCplt;
1165:Drivers/STM32L4xx_HAL_Driver/Src/stm32l4xx_hal_tim_ex.c ****       htim->hdma[TIM_DMA_ID_CC2]->XferHalfCpltCallback = TIM_DMADelayPulseHalfCplt;
1166:Drivers/STM32L4xx_HAL_Driver/Src/stm32l4xx_hal_tim_ex.c **** 
1167:Drivers/STM32L4xx_HAL_Driver/Src/stm32l4xx_hal_tim_ex.c ****       /* Set the DMA error callback */
1168:Drivers/STM32L4xx_HAL_Driver/Src/stm32l4xx_hal_tim_ex.c ****       htim->hdma[TIM_DMA_ID_CC2]->XferErrorCallback = TIM_DMAError ;
1169:Drivers/STM32L4xx_HAL_Driver/Src/stm32l4xx_hal_tim_ex.c **** 
1170:Drivers/STM32L4xx_HAL_Driver/Src/stm32l4xx_hal_tim_ex.c ****       /* Enable the DMA channel */
1171:Drivers/STM32L4xx_HAL_Driver/Src/stm32l4xx_hal_tim_ex.c ****       if (HAL_DMA_Start_IT(htim->hdma[TIM_DMA_ID_CC2], (uint32_t)pData, (uint32_t)&htim->Instance->
ARM GAS  /tmp/ccByjmRO.s 			page 44


1172:Drivers/STM32L4xx_HAL_Driver/Src/stm32l4xx_hal_tim_ex.c ****       {
1173:Drivers/STM32L4xx_HAL_Driver/Src/stm32l4xx_hal_tim_ex.c ****         return HAL_ERROR;
1174:Drivers/STM32L4xx_HAL_Driver/Src/stm32l4xx_hal_tim_ex.c ****       }
1175:Drivers/STM32L4xx_HAL_Driver/Src/stm32l4xx_hal_tim_ex.c ****       /* Enable the TIM Capture/Compare 2 DMA request */
1176:Drivers/STM32L4xx_HAL_Driver/Src/stm32l4xx_hal_tim_ex.c ****       __HAL_TIM_ENABLE_DMA(htim, TIM_DMA_CC2);
1177:Drivers/STM32L4xx_HAL_Driver/Src/stm32l4xx_hal_tim_ex.c ****       break;
1178:Drivers/STM32L4xx_HAL_Driver/Src/stm32l4xx_hal_tim_ex.c ****     }
1179:Drivers/STM32L4xx_HAL_Driver/Src/stm32l4xx_hal_tim_ex.c **** 
1180:Drivers/STM32L4xx_HAL_Driver/Src/stm32l4xx_hal_tim_ex.c ****     case TIM_CHANNEL_3:
1181:Drivers/STM32L4xx_HAL_Driver/Src/stm32l4xx_hal_tim_ex.c ****     {
1182:Drivers/STM32L4xx_HAL_Driver/Src/stm32l4xx_hal_tim_ex.c ****       /* Set the DMA compare callbacks */
1183:Drivers/STM32L4xx_HAL_Driver/Src/stm32l4xx_hal_tim_ex.c ****       htim->hdma[TIM_DMA_ID_CC3]->XferCpltCallback = TIM_DMADelayPulseCplt;
1184:Drivers/STM32L4xx_HAL_Driver/Src/stm32l4xx_hal_tim_ex.c ****       htim->hdma[TIM_DMA_ID_CC3]->XferHalfCpltCallback = TIM_DMADelayPulseHalfCplt;
1185:Drivers/STM32L4xx_HAL_Driver/Src/stm32l4xx_hal_tim_ex.c **** 
1186:Drivers/STM32L4xx_HAL_Driver/Src/stm32l4xx_hal_tim_ex.c ****       /* Set the DMA error callback */
1187:Drivers/STM32L4xx_HAL_Driver/Src/stm32l4xx_hal_tim_ex.c ****       htim->hdma[TIM_DMA_ID_CC3]->XferErrorCallback = TIM_DMAError ;
1188:Drivers/STM32L4xx_HAL_Driver/Src/stm32l4xx_hal_tim_ex.c **** 
1189:Drivers/STM32L4xx_HAL_Driver/Src/stm32l4xx_hal_tim_ex.c ****       /* Enable the DMA channel */
1190:Drivers/STM32L4xx_HAL_Driver/Src/stm32l4xx_hal_tim_ex.c ****       if (HAL_DMA_Start_IT(htim->hdma[TIM_DMA_ID_CC3], (uint32_t)pData, (uint32_t)&htim->Instance->
1191:Drivers/STM32L4xx_HAL_Driver/Src/stm32l4xx_hal_tim_ex.c ****       {
1192:Drivers/STM32L4xx_HAL_Driver/Src/stm32l4xx_hal_tim_ex.c ****         return HAL_ERROR;
1193:Drivers/STM32L4xx_HAL_Driver/Src/stm32l4xx_hal_tim_ex.c ****       }
1194:Drivers/STM32L4xx_HAL_Driver/Src/stm32l4xx_hal_tim_ex.c ****       /* Enable the TIM Capture/Compare 3 DMA request */
1195:Drivers/STM32L4xx_HAL_Driver/Src/stm32l4xx_hal_tim_ex.c ****       __HAL_TIM_ENABLE_DMA(htim, TIM_DMA_CC3);
1196:Drivers/STM32L4xx_HAL_Driver/Src/stm32l4xx_hal_tim_ex.c ****       break;
1197:Drivers/STM32L4xx_HAL_Driver/Src/stm32l4xx_hal_tim_ex.c ****     }
1198:Drivers/STM32L4xx_HAL_Driver/Src/stm32l4xx_hal_tim_ex.c **** 
1199:Drivers/STM32L4xx_HAL_Driver/Src/stm32l4xx_hal_tim_ex.c ****     default:
1200:Drivers/STM32L4xx_HAL_Driver/Src/stm32l4xx_hal_tim_ex.c ****       break;
1201:Drivers/STM32L4xx_HAL_Driver/Src/stm32l4xx_hal_tim_ex.c ****   }
1202:Drivers/STM32L4xx_HAL_Driver/Src/stm32l4xx_hal_tim_ex.c **** 
1203:Drivers/STM32L4xx_HAL_Driver/Src/stm32l4xx_hal_tim_ex.c ****   /* Enable the complementary PWM output  */
1204:Drivers/STM32L4xx_HAL_Driver/Src/stm32l4xx_hal_tim_ex.c ****   TIM_CCxNChannelCmd(htim->Instance, Channel, TIM_CCxN_ENABLE);
1205:Drivers/STM32L4xx_HAL_Driver/Src/stm32l4xx_hal_tim_ex.c **** 
1206:Drivers/STM32L4xx_HAL_Driver/Src/stm32l4xx_hal_tim_ex.c ****   /* Enable the Main Output */
1207:Drivers/STM32L4xx_HAL_Driver/Src/stm32l4xx_hal_tim_ex.c ****   __HAL_TIM_MOE_ENABLE(htim);
1208:Drivers/STM32L4xx_HAL_Driver/Src/stm32l4xx_hal_tim_ex.c **** 
1209:Drivers/STM32L4xx_HAL_Driver/Src/stm32l4xx_hal_tim_ex.c ****   /* Enable the Peripheral, except in trigger mode where enable is automatically done with trigger 
1210:Drivers/STM32L4xx_HAL_Driver/Src/stm32l4xx_hal_tim_ex.c ****   tmpsmcr = htim->Instance->SMCR & TIM_SMCR_SMS;
1211:Drivers/STM32L4xx_HAL_Driver/Src/stm32l4xx_hal_tim_ex.c ****   if (!IS_TIM_SLAVEMODE_TRIGGER_ENABLED(tmpsmcr))
1212:Drivers/STM32L4xx_HAL_Driver/Src/stm32l4xx_hal_tim_ex.c ****   {
1213:Drivers/STM32L4xx_HAL_Driver/Src/stm32l4xx_hal_tim_ex.c ****     __HAL_TIM_ENABLE(htim);
1214:Drivers/STM32L4xx_HAL_Driver/Src/stm32l4xx_hal_tim_ex.c ****   }
1215:Drivers/STM32L4xx_HAL_Driver/Src/stm32l4xx_hal_tim_ex.c **** 
1216:Drivers/STM32L4xx_HAL_Driver/Src/stm32l4xx_hal_tim_ex.c ****   /* Return function status */
1217:Drivers/STM32L4xx_HAL_Driver/Src/stm32l4xx_hal_tim_ex.c ****   return HAL_OK;
1218:Drivers/STM32L4xx_HAL_Driver/Src/stm32l4xx_hal_tim_ex.c **** }
1219:Drivers/STM32L4xx_HAL_Driver/Src/stm32l4xx_hal_tim_ex.c **** 
1220:Drivers/STM32L4xx_HAL_Driver/Src/stm32l4xx_hal_tim_ex.c **** /**
1221:Drivers/STM32L4xx_HAL_Driver/Src/stm32l4xx_hal_tim_ex.c ****   * @brief  Stops the TIM PWM signal generation in DMA mode on the complementary
1222:Drivers/STM32L4xx_HAL_Driver/Src/stm32l4xx_hal_tim_ex.c ****   *         output
1223:Drivers/STM32L4xx_HAL_Driver/Src/stm32l4xx_hal_tim_ex.c ****   * @param  htim TIM handle
1224:Drivers/STM32L4xx_HAL_Driver/Src/stm32l4xx_hal_tim_ex.c ****   * @param  Channel TIM Channel to be disabled
1225:Drivers/STM32L4xx_HAL_Driver/Src/stm32l4xx_hal_tim_ex.c ****   *          This parameter can be one of the following values:
1226:Drivers/STM32L4xx_HAL_Driver/Src/stm32l4xx_hal_tim_ex.c ****   *            @arg TIM_CHANNEL_1: TIM Channel 1 selected
1227:Drivers/STM32L4xx_HAL_Driver/Src/stm32l4xx_hal_tim_ex.c ****   *            @arg TIM_CHANNEL_2: TIM Channel 2 selected
1228:Drivers/STM32L4xx_HAL_Driver/Src/stm32l4xx_hal_tim_ex.c ****   *            @arg TIM_CHANNEL_3: TIM Channel 3 selected
ARM GAS  /tmp/ccByjmRO.s 			page 45


1229:Drivers/STM32L4xx_HAL_Driver/Src/stm32l4xx_hal_tim_ex.c ****   * @retval HAL status
1230:Drivers/STM32L4xx_HAL_Driver/Src/stm32l4xx_hal_tim_ex.c ****   */
1231:Drivers/STM32L4xx_HAL_Driver/Src/stm32l4xx_hal_tim_ex.c **** HAL_StatusTypeDef HAL_TIMEx_PWMN_Stop_DMA(TIM_HandleTypeDef *htim, uint32_t Channel)
1232:Drivers/STM32L4xx_HAL_Driver/Src/stm32l4xx_hal_tim_ex.c **** {
1233:Drivers/STM32L4xx_HAL_Driver/Src/stm32l4xx_hal_tim_ex.c ****   /* Check the parameters */
1234:Drivers/STM32L4xx_HAL_Driver/Src/stm32l4xx_hal_tim_ex.c ****   assert_param(IS_TIM_CCXN_INSTANCE(htim->Instance, Channel));
1235:Drivers/STM32L4xx_HAL_Driver/Src/stm32l4xx_hal_tim_ex.c **** 
1236:Drivers/STM32L4xx_HAL_Driver/Src/stm32l4xx_hal_tim_ex.c ****   switch (Channel)
1237:Drivers/STM32L4xx_HAL_Driver/Src/stm32l4xx_hal_tim_ex.c ****   {
1238:Drivers/STM32L4xx_HAL_Driver/Src/stm32l4xx_hal_tim_ex.c ****     case TIM_CHANNEL_1:
1239:Drivers/STM32L4xx_HAL_Driver/Src/stm32l4xx_hal_tim_ex.c ****     {
1240:Drivers/STM32L4xx_HAL_Driver/Src/stm32l4xx_hal_tim_ex.c ****       /* Disable the TIM Capture/Compare 1 DMA request */
1241:Drivers/STM32L4xx_HAL_Driver/Src/stm32l4xx_hal_tim_ex.c ****       __HAL_TIM_DISABLE_DMA(htim, TIM_DMA_CC1);
1242:Drivers/STM32L4xx_HAL_Driver/Src/stm32l4xx_hal_tim_ex.c ****       (void)HAL_DMA_Abort_IT(htim->hdma[TIM_DMA_ID_CC1]);
1243:Drivers/STM32L4xx_HAL_Driver/Src/stm32l4xx_hal_tim_ex.c ****       break;
1244:Drivers/STM32L4xx_HAL_Driver/Src/stm32l4xx_hal_tim_ex.c ****     }
1245:Drivers/STM32L4xx_HAL_Driver/Src/stm32l4xx_hal_tim_ex.c **** 
1246:Drivers/STM32L4xx_HAL_Driver/Src/stm32l4xx_hal_tim_ex.c ****     case TIM_CHANNEL_2:
1247:Drivers/STM32L4xx_HAL_Driver/Src/stm32l4xx_hal_tim_ex.c ****     {
1248:Drivers/STM32L4xx_HAL_Driver/Src/stm32l4xx_hal_tim_ex.c ****       /* Disable the TIM Capture/Compare 2 DMA request */
1249:Drivers/STM32L4xx_HAL_Driver/Src/stm32l4xx_hal_tim_ex.c ****       __HAL_TIM_DISABLE_DMA(htim, TIM_DMA_CC2);
1250:Drivers/STM32L4xx_HAL_Driver/Src/stm32l4xx_hal_tim_ex.c ****       (void)HAL_DMA_Abort_IT(htim->hdma[TIM_DMA_ID_CC2]);
1251:Drivers/STM32L4xx_HAL_Driver/Src/stm32l4xx_hal_tim_ex.c ****       break;
1252:Drivers/STM32L4xx_HAL_Driver/Src/stm32l4xx_hal_tim_ex.c ****     }
1253:Drivers/STM32L4xx_HAL_Driver/Src/stm32l4xx_hal_tim_ex.c **** 
1254:Drivers/STM32L4xx_HAL_Driver/Src/stm32l4xx_hal_tim_ex.c ****     case TIM_CHANNEL_3:
1255:Drivers/STM32L4xx_HAL_Driver/Src/stm32l4xx_hal_tim_ex.c ****     {
1256:Drivers/STM32L4xx_HAL_Driver/Src/stm32l4xx_hal_tim_ex.c ****       /* Disable the TIM Capture/Compare 3 DMA request */
1257:Drivers/STM32L4xx_HAL_Driver/Src/stm32l4xx_hal_tim_ex.c ****       __HAL_TIM_DISABLE_DMA(htim, TIM_DMA_CC3);
1258:Drivers/STM32L4xx_HAL_Driver/Src/stm32l4xx_hal_tim_ex.c ****       (void)HAL_DMA_Abort_IT(htim->hdma[TIM_DMA_ID_CC3]);
1259:Drivers/STM32L4xx_HAL_Driver/Src/stm32l4xx_hal_tim_ex.c ****       break;
1260:Drivers/STM32L4xx_HAL_Driver/Src/stm32l4xx_hal_tim_ex.c ****     }
1261:Drivers/STM32L4xx_HAL_Driver/Src/stm32l4xx_hal_tim_ex.c **** 
1262:Drivers/STM32L4xx_HAL_Driver/Src/stm32l4xx_hal_tim_ex.c ****     default:
1263:Drivers/STM32L4xx_HAL_Driver/Src/stm32l4xx_hal_tim_ex.c ****       break;
1264:Drivers/STM32L4xx_HAL_Driver/Src/stm32l4xx_hal_tim_ex.c ****   }
1265:Drivers/STM32L4xx_HAL_Driver/Src/stm32l4xx_hal_tim_ex.c **** 
1266:Drivers/STM32L4xx_HAL_Driver/Src/stm32l4xx_hal_tim_ex.c ****   /* Disable the complementary PWM output */
1267:Drivers/STM32L4xx_HAL_Driver/Src/stm32l4xx_hal_tim_ex.c ****   TIM_CCxNChannelCmd(htim->Instance, Channel, TIM_CCxN_DISABLE);
1268:Drivers/STM32L4xx_HAL_Driver/Src/stm32l4xx_hal_tim_ex.c **** 
1269:Drivers/STM32L4xx_HAL_Driver/Src/stm32l4xx_hal_tim_ex.c ****   /* Disable the Main Output */
1270:Drivers/STM32L4xx_HAL_Driver/Src/stm32l4xx_hal_tim_ex.c ****   __HAL_TIM_MOE_DISABLE(htim);
1271:Drivers/STM32L4xx_HAL_Driver/Src/stm32l4xx_hal_tim_ex.c **** 
1272:Drivers/STM32L4xx_HAL_Driver/Src/stm32l4xx_hal_tim_ex.c ****   /* Disable the Peripheral */
1273:Drivers/STM32L4xx_HAL_Driver/Src/stm32l4xx_hal_tim_ex.c ****   __HAL_TIM_DISABLE(htim);
1274:Drivers/STM32L4xx_HAL_Driver/Src/stm32l4xx_hal_tim_ex.c **** 
1275:Drivers/STM32L4xx_HAL_Driver/Src/stm32l4xx_hal_tim_ex.c ****   /* Change the htim state */
1276:Drivers/STM32L4xx_HAL_Driver/Src/stm32l4xx_hal_tim_ex.c ****   htim->State = HAL_TIM_STATE_READY;
1277:Drivers/STM32L4xx_HAL_Driver/Src/stm32l4xx_hal_tim_ex.c **** 
1278:Drivers/STM32L4xx_HAL_Driver/Src/stm32l4xx_hal_tim_ex.c ****   /* Return function status */
1279:Drivers/STM32L4xx_HAL_Driver/Src/stm32l4xx_hal_tim_ex.c ****   return HAL_OK;
1280:Drivers/STM32L4xx_HAL_Driver/Src/stm32l4xx_hal_tim_ex.c **** }
1281:Drivers/STM32L4xx_HAL_Driver/Src/stm32l4xx_hal_tim_ex.c **** 
1282:Drivers/STM32L4xx_HAL_Driver/Src/stm32l4xx_hal_tim_ex.c **** /**
1283:Drivers/STM32L4xx_HAL_Driver/Src/stm32l4xx_hal_tim_ex.c ****   * @}
1284:Drivers/STM32L4xx_HAL_Driver/Src/stm32l4xx_hal_tim_ex.c ****   */
1285:Drivers/STM32L4xx_HAL_Driver/Src/stm32l4xx_hal_tim_ex.c **** 
ARM GAS  /tmp/ccByjmRO.s 			page 46


1286:Drivers/STM32L4xx_HAL_Driver/Src/stm32l4xx_hal_tim_ex.c **** /** @defgroup TIMEx_Exported_Functions_Group4 Extended Timer Complementary One Pulse functions
1287:Drivers/STM32L4xx_HAL_Driver/Src/stm32l4xx_hal_tim_ex.c ****   * @brief    Timer Complementary One Pulse functions
1288:Drivers/STM32L4xx_HAL_Driver/Src/stm32l4xx_hal_tim_ex.c ****   *
1289:Drivers/STM32L4xx_HAL_Driver/Src/stm32l4xx_hal_tim_ex.c **** @verbatim
1290:Drivers/STM32L4xx_HAL_Driver/Src/stm32l4xx_hal_tim_ex.c ****   ==============================================================================
1291:Drivers/STM32L4xx_HAL_Driver/Src/stm32l4xx_hal_tim_ex.c ****                 ##### Timer Complementary One Pulse functions #####
1292:Drivers/STM32L4xx_HAL_Driver/Src/stm32l4xx_hal_tim_ex.c ****   ==============================================================================
1293:Drivers/STM32L4xx_HAL_Driver/Src/stm32l4xx_hal_tim_ex.c ****   [..]
1294:Drivers/STM32L4xx_HAL_Driver/Src/stm32l4xx_hal_tim_ex.c ****     This section provides functions allowing to:
1295:Drivers/STM32L4xx_HAL_Driver/Src/stm32l4xx_hal_tim_ex.c ****     (+) Start the Complementary One Pulse generation.
1296:Drivers/STM32L4xx_HAL_Driver/Src/stm32l4xx_hal_tim_ex.c ****     (+) Stop the Complementary One Pulse.
1297:Drivers/STM32L4xx_HAL_Driver/Src/stm32l4xx_hal_tim_ex.c ****     (+) Start the Complementary One Pulse and enable interrupts.
1298:Drivers/STM32L4xx_HAL_Driver/Src/stm32l4xx_hal_tim_ex.c ****     (+) Stop the Complementary One Pulse and disable interrupts.
1299:Drivers/STM32L4xx_HAL_Driver/Src/stm32l4xx_hal_tim_ex.c **** 
1300:Drivers/STM32L4xx_HAL_Driver/Src/stm32l4xx_hal_tim_ex.c **** @endverbatim
1301:Drivers/STM32L4xx_HAL_Driver/Src/stm32l4xx_hal_tim_ex.c ****   * @{
1302:Drivers/STM32L4xx_HAL_Driver/Src/stm32l4xx_hal_tim_ex.c ****   */
1303:Drivers/STM32L4xx_HAL_Driver/Src/stm32l4xx_hal_tim_ex.c **** 
1304:Drivers/STM32L4xx_HAL_Driver/Src/stm32l4xx_hal_tim_ex.c **** /**
1305:Drivers/STM32L4xx_HAL_Driver/Src/stm32l4xx_hal_tim_ex.c ****   * @brief  Starts the TIM One Pulse signal generation on the complementary
1306:Drivers/STM32L4xx_HAL_Driver/Src/stm32l4xx_hal_tim_ex.c ****   *         output.
1307:Drivers/STM32L4xx_HAL_Driver/Src/stm32l4xx_hal_tim_ex.c ****   * @param  htim TIM One Pulse handle
1308:Drivers/STM32L4xx_HAL_Driver/Src/stm32l4xx_hal_tim_ex.c ****   * @param  OutputChannel TIM Channel to be enabled
1309:Drivers/STM32L4xx_HAL_Driver/Src/stm32l4xx_hal_tim_ex.c ****   *          This parameter can be one of the following values:
1310:Drivers/STM32L4xx_HAL_Driver/Src/stm32l4xx_hal_tim_ex.c ****   *            @arg TIM_CHANNEL_1: TIM Channel 1 selected
1311:Drivers/STM32L4xx_HAL_Driver/Src/stm32l4xx_hal_tim_ex.c ****   *            @arg TIM_CHANNEL_2: TIM Channel 2 selected
1312:Drivers/STM32L4xx_HAL_Driver/Src/stm32l4xx_hal_tim_ex.c ****   * @retval HAL status
1313:Drivers/STM32L4xx_HAL_Driver/Src/stm32l4xx_hal_tim_ex.c ****   */
1314:Drivers/STM32L4xx_HAL_Driver/Src/stm32l4xx_hal_tim_ex.c **** HAL_StatusTypeDef HAL_TIMEx_OnePulseN_Start(TIM_HandleTypeDef *htim, uint32_t OutputChannel)
1315:Drivers/STM32L4xx_HAL_Driver/Src/stm32l4xx_hal_tim_ex.c **** {
1316:Drivers/STM32L4xx_HAL_Driver/Src/stm32l4xx_hal_tim_ex.c ****   /* Check the parameters */
1317:Drivers/STM32L4xx_HAL_Driver/Src/stm32l4xx_hal_tim_ex.c ****   assert_param(IS_TIM_CCXN_INSTANCE(htim->Instance, OutputChannel));
1318:Drivers/STM32L4xx_HAL_Driver/Src/stm32l4xx_hal_tim_ex.c **** 
1319:Drivers/STM32L4xx_HAL_Driver/Src/stm32l4xx_hal_tim_ex.c ****   /* Enable the complementary One Pulse output */
1320:Drivers/STM32L4xx_HAL_Driver/Src/stm32l4xx_hal_tim_ex.c ****   TIM_CCxNChannelCmd(htim->Instance, OutputChannel, TIM_CCxN_ENABLE);
1321:Drivers/STM32L4xx_HAL_Driver/Src/stm32l4xx_hal_tim_ex.c **** 
1322:Drivers/STM32L4xx_HAL_Driver/Src/stm32l4xx_hal_tim_ex.c ****   /* Enable the Main Output */
1323:Drivers/STM32L4xx_HAL_Driver/Src/stm32l4xx_hal_tim_ex.c ****   __HAL_TIM_MOE_ENABLE(htim);
1324:Drivers/STM32L4xx_HAL_Driver/Src/stm32l4xx_hal_tim_ex.c **** 
1325:Drivers/STM32L4xx_HAL_Driver/Src/stm32l4xx_hal_tim_ex.c ****   /* Return function status */
1326:Drivers/STM32L4xx_HAL_Driver/Src/stm32l4xx_hal_tim_ex.c ****   return HAL_OK;
1327:Drivers/STM32L4xx_HAL_Driver/Src/stm32l4xx_hal_tim_ex.c **** }
1328:Drivers/STM32L4xx_HAL_Driver/Src/stm32l4xx_hal_tim_ex.c **** 
1329:Drivers/STM32L4xx_HAL_Driver/Src/stm32l4xx_hal_tim_ex.c **** /**
1330:Drivers/STM32L4xx_HAL_Driver/Src/stm32l4xx_hal_tim_ex.c ****   * @brief  Stops the TIM One Pulse signal generation on the complementary
1331:Drivers/STM32L4xx_HAL_Driver/Src/stm32l4xx_hal_tim_ex.c ****   *         output.
1332:Drivers/STM32L4xx_HAL_Driver/Src/stm32l4xx_hal_tim_ex.c ****   * @param  htim TIM One Pulse handle
1333:Drivers/STM32L4xx_HAL_Driver/Src/stm32l4xx_hal_tim_ex.c ****   * @param  OutputChannel TIM Channel to be disabled
1334:Drivers/STM32L4xx_HAL_Driver/Src/stm32l4xx_hal_tim_ex.c ****   *          This parameter can be one of the following values:
1335:Drivers/STM32L4xx_HAL_Driver/Src/stm32l4xx_hal_tim_ex.c ****   *            @arg TIM_CHANNEL_1: TIM Channel 1 selected
1336:Drivers/STM32L4xx_HAL_Driver/Src/stm32l4xx_hal_tim_ex.c ****   *            @arg TIM_CHANNEL_2: TIM Channel 2 selected
1337:Drivers/STM32L4xx_HAL_Driver/Src/stm32l4xx_hal_tim_ex.c ****   * @retval HAL status
1338:Drivers/STM32L4xx_HAL_Driver/Src/stm32l4xx_hal_tim_ex.c ****   */
1339:Drivers/STM32L4xx_HAL_Driver/Src/stm32l4xx_hal_tim_ex.c **** HAL_StatusTypeDef HAL_TIMEx_OnePulseN_Stop(TIM_HandleTypeDef *htim, uint32_t OutputChannel)
1340:Drivers/STM32L4xx_HAL_Driver/Src/stm32l4xx_hal_tim_ex.c **** {
1341:Drivers/STM32L4xx_HAL_Driver/Src/stm32l4xx_hal_tim_ex.c **** 
1342:Drivers/STM32L4xx_HAL_Driver/Src/stm32l4xx_hal_tim_ex.c ****   /* Check the parameters */
ARM GAS  /tmp/ccByjmRO.s 			page 47


1343:Drivers/STM32L4xx_HAL_Driver/Src/stm32l4xx_hal_tim_ex.c ****   assert_param(IS_TIM_CCXN_INSTANCE(htim->Instance, OutputChannel));
1344:Drivers/STM32L4xx_HAL_Driver/Src/stm32l4xx_hal_tim_ex.c **** 
1345:Drivers/STM32L4xx_HAL_Driver/Src/stm32l4xx_hal_tim_ex.c ****   /* Disable the complementary One Pulse output */
1346:Drivers/STM32L4xx_HAL_Driver/Src/stm32l4xx_hal_tim_ex.c ****   TIM_CCxNChannelCmd(htim->Instance, OutputChannel, TIM_CCxN_DISABLE);
1347:Drivers/STM32L4xx_HAL_Driver/Src/stm32l4xx_hal_tim_ex.c **** 
1348:Drivers/STM32L4xx_HAL_Driver/Src/stm32l4xx_hal_tim_ex.c ****   /* Disable the Main Output */
1349:Drivers/STM32L4xx_HAL_Driver/Src/stm32l4xx_hal_tim_ex.c ****   __HAL_TIM_MOE_DISABLE(htim);
1350:Drivers/STM32L4xx_HAL_Driver/Src/stm32l4xx_hal_tim_ex.c **** 
1351:Drivers/STM32L4xx_HAL_Driver/Src/stm32l4xx_hal_tim_ex.c ****   /* Disable the Peripheral */
1352:Drivers/STM32L4xx_HAL_Driver/Src/stm32l4xx_hal_tim_ex.c ****   __HAL_TIM_DISABLE(htim);
1353:Drivers/STM32L4xx_HAL_Driver/Src/stm32l4xx_hal_tim_ex.c **** 
1354:Drivers/STM32L4xx_HAL_Driver/Src/stm32l4xx_hal_tim_ex.c ****   /* Return function status */
1355:Drivers/STM32L4xx_HAL_Driver/Src/stm32l4xx_hal_tim_ex.c ****   return HAL_OK;
1356:Drivers/STM32L4xx_HAL_Driver/Src/stm32l4xx_hal_tim_ex.c **** }
1357:Drivers/STM32L4xx_HAL_Driver/Src/stm32l4xx_hal_tim_ex.c **** 
1358:Drivers/STM32L4xx_HAL_Driver/Src/stm32l4xx_hal_tim_ex.c **** /**
1359:Drivers/STM32L4xx_HAL_Driver/Src/stm32l4xx_hal_tim_ex.c ****   * @brief  Starts the TIM One Pulse signal generation in interrupt mode on the
1360:Drivers/STM32L4xx_HAL_Driver/Src/stm32l4xx_hal_tim_ex.c ****   *         complementary channel.
1361:Drivers/STM32L4xx_HAL_Driver/Src/stm32l4xx_hal_tim_ex.c ****   * @param  htim TIM One Pulse handle
1362:Drivers/STM32L4xx_HAL_Driver/Src/stm32l4xx_hal_tim_ex.c ****   * @param  OutputChannel TIM Channel to be enabled
1363:Drivers/STM32L4xx_HAL_Driver/Src/stm32l4xx_hal_tim_ex.c ****   *          This parameter can be one of the following values:
1364:Drivers/STM32L4xx_HAL_Driver/Src/stm32l4xx_hal_tim_ex.c ****   *            @arg TIM_CHANNEL_1: TIM Channel 1 selected
1365:Drivers/STM32L4xx_HAL_Driver/Src/stm32l4xx_hal_tim_ex.c ****   *            @arg TIM_CHANNEL_2: TIM Channel 2 selected
1366:Drivers/STM32L4xx_HAL_Driver/Src/stm32l4xx_hal_tim_ex.c ****   * @retval HAL status
1367:Drivers/STM32L4xx_HAL_Driver/Src/stm32l4xx_hal_tim_ex.c ****   */
1368:Drivers/STM32L4xx_HAL_Driver/Src/stm32l4xx_hal_tim_ex.c **** HAL_StatusTypeDef HAL_TIMEx_OnePulseN_Start_IT(TIM_HandleTypeDef *htim, uint32_t OutputChannel)
1369:Drivers/STM32L4xx_HAL_Driver/Src/stm32l4xx_hal_tim_ex.c **** {
1370:Drivers/STM32L4xx_HAL_Driver/Src/stm32l4xx_hal_tim_ex.c ****   /* Check the parameters */
1371:Drivers/STM32L4xx_HAL_Driver/Src/stm32l4xx_hal_tim_ex.c ****   assert_param(IS_TIM_CCXN_INSTANCE(htim->Instance, OutputChannel));
1372:Drivers/STM32L4xx_HAL_Driver/Src/stm32l4xx_hal_tim_ex.c **** 
1373:Drivers/STM32L4xx_HAL_Driver/Src/stm32l4xx_hal_tim_ex.c ****   /* Enable the TIM Capture/Compare 1 interrupt */
1374:Drivers/STM32L4xx_HAL_Driver/Src/stm32l4xx_hal_tim_ex.c ****   __HAL_TIM_ENABLE_IT(htim, TIM_IT_CC1);
1375:Drivers/STM32L4xx_HAL_Driver/Src/stm32l4xx_hal_tim_ex.c **** 
1376:Drivers/STM32L4xx_HAL_Driver/Src/stm32l4xx_hal_tim_ex.c ****   /* Enable the TIM Capture/Compare 2 interrupt */
1377:Drivers/STM32L4xx_HAL_Driver/Src/stm32l4xx_hal_tim_ex.c ****   __HAL_TIM_ENABLE_IT(htim, TIM_IT_CC2);
1378:Drivers/STM32L4xx_HAL_Driver/Src/stm32l4xx_hal_tim_ex.c **** 
1379:Drivers/STM32L4xx_HAL_Driver/Src/stm32l4xx_hal_tim_ex.c ****   /* Enable the complementary One Pulse output */
1380:Drivers/STM32L4xx_HAL_Driver/Src/stm32l4xx_hal_tim_ex.c ****   TIM_CCxNChannelCmd(htim->Instance, OutputChannel, TIM_CCxN_ENABLE);
1381:Drivers/STM32L4xx_HAL_Driver/Src/stm32l4xx_hal_tim_ex.c **** 
1382:Drivers/STM32L4xx_HAL_Driver/Src/stm32l4xx_hal_tim_ex.c ****   /* Enable the Main Output */
1383:Drivers/STM32L4xx_HAL_Driver/Src/stm32l4xx_hal_tim_ex.c ****   __HAL_TIM_MOE_ENABLE(htim);
1384:Drivers/STM32L4xx_HAL_Driver/Src/stm32l4xx_hal_tim_ex.c **** 
1385:Drivers/STM32L4xx_HAL_Driver/Src/stm32l4xx_hal_tim_ex.c ****   /* Return function status */
1386:Drivers/STM32L4xx_HAL_Driver/Src/stm32l4xx_hal_tim_ex.c ****   return HAL_OK;
1387:Drivers/STM32L4xx_HAL_Driver/Src/stm32l4xx_hal_tim_ex.c **** }
1388:Drivers/STM32L4xx_HAL_Driver/Src/stm32l4xx_hal_tim_ex.c **** 
1389:Drivers/STM32L4xx_HAL_Driver/Src/stm32l4xx_hal_tim_ex.c **** /**
1390:Drivers/STM32L4xx_HAL_Driver/Src/stm32l4xx_hal_tim_ex.c ****   * @brief  Stops the TIM One Pulse signal generation in interrupt mode on the
1391:Drivers/STM32L4xx_HAL_Driver/Src/stm32l4xx_hal_tim_ex.c ****   *         complementary channel.
1392:Drivers/STM32L4xx_HAL_Driver/Src/stm32l4xx_hal_tim_ex.c ****   * @param  htim TIM One Pulse handle
1393:Drivers/STM32L4xx_HAL_Driver/Src/stm32l4xx_hal_tim_ex.c ****   * @param  OutputChannel TIM Channel to be disabled
1394:Drivers/STM32L4xx_HAL_Driver/Src/stm32l4xx_hal_tim_ex.c ****   *          This parameter can be one of the following values:
1395:Drivers/STM32L4xx_HAL_Driver/Src/stm32l4xx_hal_tim_ex.c ****   *            @arg TIM_CHANNEL_1: TIM Channel 1 selected
1396:Drivers/STM32L4xx_HAL_Driver/Src/stm32l4xx_hal_tim_ex.c ****   *            @arg TIM_CHANNEL_2: TIM Channel 2 selected
1397:Drivers/STM32L4xx_HAL_Driver/Src/stm32l4xx_hal_tim_ex.c ****   * @retval HAL status
1398:Drivers/STM32L4xx_HAL_Driver/Src/stm32l4xx_hal_tim_ex.c ****   */
1399:Drivers/STM32L4xx_HAL_Driver/Src/stm32l4xx_hal_tim_ex.c **** HAL_StatusTypeDef HAL_TIMEx_OnePulseN_Stop_IT(TIM_HandleTypeDef *htim, uint32_t OutputChannel)
ARM GAS  /tmp/ccByjmRO.s 			page 48


1400:Drivers/STM32L4xx_HAL_Driver/Src/stm32l4xx_hal_tim_ex.c **** {
1401:Drivers/STM32L4xx_HAL_Driver/Src/stm32l4xx_hal_tim_ex.c ****   /* Check the parameters */
1402:Drivers/STM32L4xx_HAL_Driver/Src/stm32l4xx_hal_tim_ex.c ****   assert_param(IS_TIM_CCXN_INSTANCE(htim->Instance, OutputChannel));
1403:Drivers/STM32L4xx_HAL_Driver/Src/stm32l4xx_hal_tim_ex.c **** 
1404:Drivers/STM32L4xx_HAL_Driver/Src/stm32l4xx_hal_tim_ex.c ****   /* Disable the TIM Capture/Compare 1 interrupt */
1405:Drivers/STM32L4xx_HAL_Driver/Src/stm32l4xx_hal_tim_ex.c ****   __HAL_TIM_DISABLE_IT(htim, TIM_IT_CC1);
1406:Drivers/STM32L4xx_HAL_Driver/Src/stm32l4xx_hal_tim_ex.c **** 
1407:Drivers/STM32L4xx_HAL_Driver/Src/stm32l4xx_hal_tim_ex.c ****   /* Disable the TIM Capture/Compare 2 interrupt */
1408:Drivers/STM32L4xx_HAL_Driver/Src/stm32l4xx_hal_tim_ex.c ****   __HAL_TIM_DISABLE_IT(htim, TIM_IT_CC2);
1409:Drivers/STM32L4xx_HAL_Driver/Src/stm32l4xx_hal_tim_ex.c **** 
1410:Drivers/STM32L4xx_HAL_Driver/Src/stm32l4xx_hal_tim_ex.c ****   /* Disable the complementary One Pulse output */
1411:Drivers/STM32L4xx_HAL_Driver/Src/stm32l4xx_hal_tim_ex.c ****   TIM_CCxNChannelCmd(htim->Instance, OutputChannel, TIM_CCxN_DISABLE);
1412:Drivers/STM32L4xx_HAL_Driver/Src/stm32l4xx_hal_tim_ex.c **** 
1413:Drivers/STM32L4xx_HAL_Driver/Src/stm32l4xx_hal_tim_ex.c ****   /* Disable the Main Output */
1414:Drivers/STM32L4xx_HAL_Driver/Src/stm32l4xx_hal_tim_ex.c ****   __HAL_TIM_MOE_DISABLE(htim);
1415:Drivers/STM32L4xx_HAL_Driver/Src/stm32l4xx_hal_tim_ex.c **** 
1416:Drivers/STM32L4xx_HAL_Driver/Src/stm32l4xx_hal_tim_ex.c ****   /* Disable the Peripheral */
1417:Drivers/STM32L4xx_HAL_Driver/Src/stm32l4xx_hal_tim_ex.c ****   __HAL_TIM_DISABLE(htim);
1418:Drivers/STM32L4xx_HAL_Driver/Src/stm32l4xx_hal_tim_ex.c **** 
1419:Drivers/STM32L4xx_HAL_Driver/Src/stm32l4xx_hal_tim_ex.c ****   /* Return function status */
1420:Drivers/STM32L4xx_HAL_Driver/Src/stm32l4xx_hal_tim_ex.c ****   return HAL_OK;
1421:Drivers/STM32L4xx_HAL_Driver/Src/stm32l4xx_hal_tim_ex.c **** }
1422:Drivers/STM32L4xx_HAL_Driver/Src/stm32l4xx_hal_tim_ex.c **** 
1423:Drivers/STM32L4xx_HAL_Driver/Src/stm32l4xx_hal_tim_ex.c **** /**
1424:Drivers/STM32L4xx_HAL_Driver/Src/stm32l4xx_hal_tim_ex.c ****   * @}
1425:Drivers/STM32L4xx_HAL_Driver/Src/stm32l4xx_hal_tim_ex.c ****   */
1426:Drivers/STM32L4xx_HAL_Driver/Src/stm32l4xx_hal_tim_ex.c **** 
1427:Drivers/STM32L4xx_HAL_Driver/Src/stm32l4xx_hal_tim_ex.c **** /** @defgroup TIMEx_Exported_Functions_Group5 Extended Peripheral Control functions
1428:Drivers/STM32L4xx_HAL_Driver/Src/stm32l4xx_hal_tim_ex.c ****   * @brief    Peripheral Control functions
1429:Drivers/STM32L4xx_HAL_Driver/Src/stm32l4xx_hal_tim_ex.c ****   *
1430:Drivers/STM32L4xx_HAL_Driver/Src/stm32l4xx_hal_tim_ex.c **** @verbatim
1431:Drivers/STM32L4xx_HAL_Driver/Src/stm32l4xx_hal_tim_ex.c ****   ==============================================================================
1432:Drivers/STM32L4xx_HAL_Driver/Src/stm32l4xx_hal_tim_ex.c ****                     ##### Peripheral Control functions #####
1433:Drivers/STM32L4xx_HAL_Driver/Src/stm32l4xx_hal_tim_ex.c ****   ==============================================================================
1434:Drivers/STM32L4xx_HAL_Driver/Src/stm32l4xx_hal_tim_ex.c ****   [..]
1435:Drivers/STM32L4xx_HAL_Driver/Src/stm32l4xx_hal_tim_ex.c ****     This section provides functions allowing to:
1436:Drivers/STM32L4xx_HAL_Driver/Src/stm32l4xx_hal_tim_ex.c ****       (+) Configure the commutation event in case of use of the Hall sensor interface.
1437:Drivers/STM32L4xx_HAL_Driver/Src/stm32l4xx_hal_tim_ex.c ****       (+) Configure Output channels for OC and PWM mode.
1438:Drivers/STM32L4xx_HAL_Driver/Src/stm32l4xx_hal_tim_ex.c **** 
1439:Drivers/STM32L4xx_HAL_Driver/Src/stm32l4xx_hal_tim_ex.c ****       (+) Configure Complementary channels, break features and dead time.
1440:Drivers/STM32L4xx_HAL_Driver/Src/stm32l4xx_hal_tim_ex.c ****       (+) Configure Master synchronization.
1441:Drivers/STM32L4xx_HAL_Driver/Src/stm32l4xx_hal_tim_ex.c ****       (+) Configure timer remapping capabilities.
1442:Drivers/STM32L4xx_HAL_Driver/Src/stm32l4xx_hal_tim_ex.c ****       (+) Enable or disable channel grouping.
1443:Drivers/STM32L4xx_HAL_Driver/Src/stm32l4xx_hal_tim_ex.c **** 
1444:Drivers/STM32L4xx_HAL_Driver/Src/stm32l4xx_hal_tim_ex.c **** @endverbatim
1445:Drivers/STM32L4xx_HAL_Driver/Src/stm32l4xx_hal_tim_ex.c ****   * @{
1446:Drivers/STM32L4xx_HAL_Driver/Src/stm32l4xx_hal_tim_ex.c ****   */
1447:Drivers/STM32L4xx_HAL_Driver/Src/stm32l4xx_hal_tim_ex.c **** 
1448:Drivers/STM32L4xx_HAL_Driver/Src/stm32l4xx_hal_tim_ex.c **** /**
1449:Drivers/STM32L4xx_HAL_Driver/Src/stm32l4xx_hal_tim_ex.c ****   * @brief  Configure the TIM commutation event sequence.
1450:Drivers/STM32L4xx_HAL_Driver/Src/stm32l4xx_hal_tim_ex.c ****   * @note  This function is mandatory to use the commutation event in order to
1451:Drivers/STM32L4xx_HAL_Driver/Src/stm32l4xx_hal_tim_ex.c ****   *        update the configuration at each commutation detection on the TRGI input of the Timer,
1452:Drivers/STM32L4xx_HAL_Driver/Src/stm32l4xx_hal_tim_ex.c ****   *        the typical use of this feature is with the use of another Timer(interface Timer)
1453:Drivers/STM32L4xx_HAL_Driver/Src/stm32l4xx_hal_tim_ex.c ****   *        configured in Hall sensor interface, this interface Timer will generate the
1454:Drivers/STM32L4xx_HAL_Driver/Src/stm32l4xx_hal_tim_ex.c ****   *        commutation at its TRGO output (connected to Timer used in this function) each time
1455:Drivers/STM32L4xx_HAL_Driver/Src/stm32l4xx_hal_tim_ex.c ****   *        the TI1 of the Interface Timer detect a commutation at its input TI1.
1456:Drivers/STM32L4xx_HAL_Driver/Src/stm32l4xx_hal_tim_ex.c ****   * @param  htim TIM handle
ARM GAS  /tmp/ccByjmRO.s 			page 49


1457:Drivers/STM32L4xx_HAL_Driver/Src/stm32l4xx_hal_tim_ex.c ****   * @param  InputTrigger the Internal trigger corresponding to the Timer Interfacing with the Hall 
1458:Drivers/STM32L4xx_HAL_Driver/Src/stm32l4xx_hal_tim_ex.c ****   *          This parameter can be one of the following values:
1459:Drivers/STM32L4xx_HAL_Driver/Src/stm32l4xx_hal_tim_ex.c ****   *            @arg TIM_TS_ITR0: Internal trigger 0 selected
1460:Drivers/STM32L4xx_HAL_Driver/Src/stm32l4xx_hal_tim_ex.c ****   *            @arg TIM_TS_ITR1: Internal trigger 1 selected
1461:Drivers/STM32L4xx_HAL_Driver/Src/stm32l4xx_hal_tim_ex.c ****   *            @arg TIM_TS_ITR2: Internal trigger 2 selected
1462:Drivers/STM32L4xx_HAL_Driver/Src/stm32l4xx_hal_tim_ex.c ****   *            @arg TIM_TS_ITR3: Internal trigger 3 selected
1463:Drivers/STM32L4xx_HAL_Driver/Src/stm32l4xx_hal_tim_ex.c ****   *            @arg TIM_TS_NONE: No trigger is needed
1464:Drivers/STM32L4xx_HAL_Driver/Src/stm32l4xx_hal_tim_ex.c ****   * @param  CommutationSource the Commutation Event source
1465:Drivers/STM32L4xx_HAL_Driver/Src/stm32l4xx_hal_tim_ex.c ****   *          This parameter can be one of the following values:
1466:Drivers/STM32L4xx_HAL_Driver/Src/stm32l4xx_hal_tim_ex.c ****   *            @arg TIM_COMMUTATION_TRGI: Commutation source is the TRGI of the Interface Timer
1467:Drivers/STM32L4xx_HAL_Driver/Src/stm32l4xx_hal_tim_ex.c ****   *            @arg TIM_COMMUTATION_SOFTWARE:  Commutation source is set by software using the COMG
1468:Drivers/STM32L4xx_HAL_Driver/Src/stm32l4xx_hal_tim_ex.c ****   * @retval HAL status
1469:Drivers/STM32L4xx_HAL_Driver/Src/stm32l4xx_hal_tim_ex.c ****   */
1470:Drivers/STM32L4xx_HAL_Driver/Src/stm32l4xx_hal_tim_ex.c **** HAL_StatusTypeDef HAL_TIMEx_ConfigCommutEvent(TIM_HandleTypeDef *htim, uint32_t  InputTrigger,
1471:Drivers/STM32L4xx_HAL_Driver/Src/stm32l4xx_hal_tim_ex.c ****                                               uint32_t  CommutationSource)
1472:Drivers/STM32L4xx_HAL_Driver/Src/stm32l4xx_hal_tim_ex.c **** {
1473:Drivers/STM32L4xx_HAL_Driver/Src/stm32l4xx_hal_tim_ex.c ****   /* Check the parameters */
1474:Drivers/STM32L4xx_HAL_Driver/Src/stm32l4xx_hal_tim_ex.c ****   assert_param(IS_TIM_COMMUTATION_EVENT_INSTANCE(htim->Instance));
1475:Drivers/STM32L4xx_HAL_Driver/Src/stm32l4xx_hal_tim_ex.c ****   assert_param(IS_TIM_INTERNAL_TRIGGEREVENT_SELECTION(InputTrigger));
1476:Drivers/STM32L4xx_HAL_Driver/Src/stm32l4xx_hal_tim_ex.c **** 
1477:Drivers/STM32L4xx_HAL_Driver/Src/stm32l4xx_hal_tim_ex.c ****   __HAL_LOCK(htim);
1478:Drivers/STM32L4xx_HAL_Driver/Src/stm32l4xx_hal_tim_ex.c **** 
1479:Drivers/STM32L4xx_HAL_Driver/Src/stm32l4xx_hal_tim_ex.c ****   if ((InputTrigger == TIM_TS_ITR0) || (InputTrigger == TIM_TS_ITR1) ||
1480:Drivers/STM32L4xx_HAL_Driver/Src/stm32l4xx_hal_tim_ex.c ****       (InputTrigger == TIM_TS_ITR2) || (InputTrigger == TIM_TS_ITR3))
1481:Drivers/STM32L4xx_HAL_Driver/Src/stm32l4xx_hal_tim_ex.c ****   {
1482:Drivers/STM32L4xx_HAL_Driver/Src/stm32l4xx_hal_tim_ex.c ****     /* Select the Input trigger */
1483:Drivers/STM32L4xx_HAL_Driver/Src/stm32l4xx_hal_tim_ex.c ****     htim->Instance->SMCR &= ~TIM_SMCR_TS;
1484:Drivers/STM32L4xx_HAL_Driver/Src/stm32l4xx_hal_tim_ex.c ****     htim->Instance->SMCR |= InputTrigger;
1485:Drivers/STM32L4xx_HAL_Driver/Src/stm32l4xx_hal_tim_ex.c ****   }
1486:Drivers/STM32L4xx_HAL_Driver/Src/stm32l4xx_hal_tim_ex.c **** 
1487:Drivers/STM32L4xx_HAL_Driver/Src/stm32l4xx_hal_tim_ex.c ****   /* Select the Capture Compare preload feature */
1488:Drivers/STM32L4xx_HAL_Driver/Src/stm32l4xx_hal_tim_ex.c ****   htim->Instance->CR2 |= TIM_CR2_CCPC;
1489:Drivers/STM32L4xx_HAL_Driver/Src/stm32l4xx_hal_tim_ex.c ****   /* Select the Commutation event source */
1490:Drivers/STM32L4xx_HAL_Driver/Src/stm32l4xx_hal_tim_ex.c ****   htim->Instance->CR2 &= ~TIM_CR2_CCUS;
1491:Drivers/STM32L4xx_HAL_Driver/Src/stm32l4xx_hal_tim_ex.c ****   htim->Instance->CR2 |= CommutationSource;
1492:Drivers/STM32L4xx_HAL_Driver/Src/stm32l4xx_hal_tim_ex.c **** 
1493:Drivers/STM32L4xx_HAL_Driver/Src/stm32l4xx_hal_tim_ex.c ****   /* Disable Commutation Interrupt */
1494:Drivers/STM32L4xx_HAL_Driver/Src/stm32l4xx_hal_tim_ex.c ****   __HAL_TIM_DISABLE_IT(htim, TIM_IT_COM);
1495:Drivers/STM32L4xx_HAL_Driver/Src/stm32l4xx_hal_tim_ex.c **** 
1496:Drivers/STM32L4xx_HAL_Driver/Src/stm32l4xx_hal_tim_ex.c ****   /* Disable Commutation DMA request */
1497:Drivers/STM32L4xx_HAL_Driver/Src/stm32l4xx_hal_tim_ex.c ****   __HAL_TIM_DISABLE_DMA(htim, TIM_DMA_COM);
1498:Drivers/STM32L4xx_HAL_Driver/Src/stm32l4xx_hal_tim_ex.c **** 
1499:Drivers/STM32L4xx_HAL_Driver/Src/stm32l4xx_hal_tim_ex.c ****   __HAL_UNLOCK(htim);
1500:Drivers/STM32L4xx_HAL_Driver/Src/stm32l4xx_hal_tim_ex.c **** 
1501:Drivers/STM32L4xx_HAL_Driver/Src/stm32l4xx_hal_tim_ex.c ****   return HAL_OK;
1502:Drivers/STM32L4xx_HAL_Driver/Src/stm32l4xx_hal_tim_ex.c **** }
1503:Drivers/STM32L4xx_HAL_Driver/Src/stm32l4xx_hal_tim_ex.c **** 
1504:Drivers/STM32L4xx_HAL_Driver/Src/stm32l4xx_hal_tim_ex.c **** /**
1505:Drivers/STM32L4xx_HAL_Driver/Src/stm32l4xx_hal_tim_ex.c ****   * @brief  Configure the TIM commutation event sequence with interrupt.
1506:Drivers/STM32L4xx_HAL_Driver/Src/stm32l4xx_hal_tim_ex.c ****   * @note  This function is mandatory to use the commutation event in order to
1507:Drivers/STM32L4xx_HAL_Driver/Src/stm32l4xx_hal_tim_ex.c ****   *        update the configuration at each commutation detection on the TRGI input of the Timer,
1508:Drivers/STM32L4xx_HAL_Driver/Src/stm32l4xx_hal_tim_ex.c ****   *        the typical use of this feature is with the use of another Timer(interface Timer)
1509:Drivers/STM32L4xx_HAL_Driver/Src/stm32l4xx_hal_tim_ex.c ****   *        configured in Hall sensor interface, this interface Timer will generate the
1510:Drivers/STM32L4xx_HAL_Driver/Src/stm32l4xx_hal_tim_ex.c ****   *        commutation at its TRGO output (connected to Timer used in this function) each time
1511:Drivers/STM32L4xx_HAL_Driver/Src/stm32l4xx_hal_tim_ex.c ****   *        the TI1 of the Interface Timer detect a commutation at its input TI1.
1512:Drivers/STM32L4xx_HAL_Driver/Src/stm32l4xx_hal_tim_ex.c ****   * @param  htim TIM handle
1513:Drivers/STM32L4xx_HAL_Driver/Src/stm32l4xx_hal_tim_ex.c ****   * @param  InputTrigger the Internal trigger corresponding to the Timer Interfacing with the Hall 
ARM GAS  /tmp/ccByjmRO.s 			page 50


1514:Drivers/STM32L4xx_HAL_Driver/Src/stm32l4xx_hal_tim_ex.c ****   *          This parameter can be one of the following values:
1515:Drivers/STM32L4xx_HAL_Driver/Src/stm32l4xx_hal_tim_ex.c ****   *            @arg TIM_TS_ITR0: Internal trigger 0 selected
1516:Drivers/STM32L4xx_HAL_Driver/Src/stm32l4xx_hal_tim_ex.c ****   *            @arg TIM_TS_ITR1: Internal trigger 1 selected
1517:Drivers/STM32L4xx_HAL_Driver/Src/stm32l4xx_hal_tim_ex.c ****   *            @arg TIM_TS_ITR2: Internal trigger 2 selected
1518:Drivers/STM32L4xx_HAL_Driver/Src/stm32l4xx_hal_tim_ex.c ****   *            @arg TIM_TS_ITR3: Internal trigger 3 selected
1519:Drivers/STM32L4xx_HAL_Driver/Src/stm32l4xx_hal_tim_ex.c ****   *            @arg TIM_TS_NONE: No trigger is needed
1520:Drivers/STM32L4xx_HAL_Driver/Src/stm32l4xx_hal_tim_ex.c ****   * @param  CommutationSource the Commutation Event source
1521:Drivers/STM32L4xx_HAL_Driver/Src/stm32l4xx_hal_tim_ex.c ****   *          This parameter can be one of the following values:
1522:Drivers/STM32L4xx_HAL_Driver/Src/stm32l4xx_hal_tim_ex.c ****   *            @arg TIM_COMMUTATION_TRGI: Commutation source is the TRGI of the Interface Timer
1523:Drivers/STM32L4xx_HAL_Driver/Src/stm32l4xx_hal_tim_ex.c ****   *            @arg TIM_COMMUTATION_SOFTWARE:  Commutation source is set by software using the COMG
1524:Drivers/STM32L4xx_HAL_Driver/Src/stm32l4xx_hal_tim_ex.c ****   * @retval HAL status
1525:Drivers/STM32L4xx_HAL_Driver/Src/stm32l4xx_hal_tim_ex.c ****   */
1526:Drivers/STM32L4xx_HAL_Driver/Src/stm32l4xx_hal_tim_ex.c **** HAL_StatusTypeDef HAL_TIMEx_ConfigCommutEvent_IT(TIM_HandleTypeDef *htim, uint32_t  InputTrigger,
1527:Drivers/STM32L4xx_HAL_Driver/Src/stm32l4xx_hal_tim_ex.c ****                                                  uint32_t  CommutationSource)
1528:Drivers/STM32L4xx_HAL_Driver/Src/stm32l4xx_hal_tim_ex.c **** {
1529:Drivers/STM32L4xx_HAL_Driver/Src/stm32l4xx_hal_tim_ex.c ****   /* Check the parameters */
1530:Drivers/STM32L4xx_HAL_Driver/Src/stm32l4xx_hal_tim_ex.c ****   assert_param(IS_TIM_COMMUTATION_EVENT_INSTANCE(htim->Instance));
1531:Drivers/STM32L4xx_HAL_Driver/Src/stm32l4xx_hal_tim_ex.c ****   assert_param(IS_TIM_INTERNAL_TRIGGEREVENT_SELECTION(InputTrigger));
1532:Drivers/STM32L4xx_HAL_Driver/Src/stm32l4xx_hal_tim_ex.c **** 
1533:Drivers/STM32L4xx_HAL_Driver/Src/stm32l4xx_hal_tim_ex.c ****   __HAL_LOCK(htim);
1534:Drivers/STM32L4xx_HAL_Driver/Src/stm32l4xx_hal_tim_ex.c **** 
1535:Drivers/STM32L4xx_HAL_Driver/Src/stm32l4xx_hal_tim_ex.c ****   if ((InputTrigger == TIM_TS_ITR0) || (InputTrigger == TIM_TS_ITR1) ||
1536:Drivers/STM32L4xx_HAL_Driver/Src/stm32l4xx_hal_tim_ex.c ****       (InputTrigger == TIM_TS_ITR2) || (InputTrigger == TIM_TS_ITR3))
1537:Drivers/STM32L4xx_HAL_Driver/Src/stm32l4xx_hal_tim_ex.c ****   {
1538:Drivers/STM32L4xx_HAL_Driver/Src/stm32l4xx_hal_tim_ex.c ****     /* Select the Input trigger */
1539:Drivers/STM32L4xx_HAL_Driver/Src/stm32l4xx_hal_tim_ex.c ****     htim->Instance->SMCR &= ~TIM_SMCR_TS;
1540:Drivers/STM32L4xx_HAL_Driver/Src/stm32l4xx_hal_tim_ex.c ****     htim->Instance->SMCR |= InputTrigger;
1541:Drivers/STM32L4xx_HAL_Driver/Src/stm32l4xx_hal_tim_ex.c ****   }
1542:Drivers/STM32L4xx_HAL_Driver/Src/stm32l4xx_hal_tim_ex.c **** 
1543:Drivers/STM32L4xx_HAL_Driver/Src/stm32l4xx_hal_tim_ex.c ****   /* Select the Capture Compare preload feature */
1544:Drivers/STM32L4xx_HAL_Driver/Src/stm32l4xx_hal_tim_ex.c ****   htim->Instance->CR2 |= TIM_CR2_CCPC;
1545:Drivers/STM32L4xx_HAL_Driver/Src/stm32l4xx_hal_tim_ex.c ****   /* Select the Commutation event source */
1546:Drivers/STM32L4xx_HAL_Driver/Src/stm32l4xx_hal_tim_ex.c ****   htim->Instance->CR2 &= ~TIM_CR2_CCUS;
1547:Drivers/STM32L4xx_HAL_Driver/Src/stm32l4xx_hal_tim_ex.c ****   htim->Instance->CR2 |= CommutationSource;
1548:Drivers/STM32L4xx_HAL_Driver/Src/stm32l4xx_hal_tim_ex.c **** 
1549:Drivers/STM32L4xx_HAL_Driver/Src/stm32l4xx_hal_tim_ex.c ****   /* Disable Commutation DMA request */
1550:Drivers/STM32L4xx_HAL_Driver/Src/stm32l4xx_hal_tim_ex.c ****   __HAL_TIM_DISABLE_DMA(htim, TIM_DMA_COM);
1551:Drivers/STM32L4xx_HAL_Driver/Src/stm32l4xx_hal_tim_ex.c **** 
1552:Drivers/STM32L4xx_HAL_Driver/Src/stm32l4xx_hal_tim_ex.c ****   /* Enable the Commutation Interrupt */
1553:Drivers/STM32L4xx_HAL_Driver/Src/stm32l4xx_hal_tim_ex.c ****   __HAL_TIM_ENABLE_IT(htim, TIM_IT_COM);
1554:Drivers/STM32L4xx_HAL_Driver/Src/stm32l4xx_hal_tim_ex.c **** 
1555:Drivers/STM32L4xx_HAL_Driver/Src/stm32l4xx_hal_tim_ex.c ****   __HAL_UNLOCK(htim);
1556:Drivers/STM32L4xx_HAL_Driver/Src/stm32l4xx_hal_tim_ex.c **** 
1557:Drivers/STM32L4xx_HAL_Driver/Src/stm32l4xx_hal_tim_ex.c ****   return HAL_OK;
1558:Drivers/STM32L4xx_HAL_Driver/Src/stm32l4xx_hal_tim_ex.c **** }
1559:Drivers/STM32L4xx_HAL_Driver/Src/stm32l4xx_hal_tim_ex.c **** 
1560:Drivers/STM32L4xx_HAL_Driver/Src/stm32l4xx_hal_tim_ex.c **** /**
1561:Drivers/STM32L4xx_HAL_Driver/Src/stm32l4xx_hal_tim_ex.c ****   * @brief  Configure the TIM commutation event sequence with DMA.
1562:Drivers/STM32L4xx_HAL_Driver/Src/stm32l4xx_hal_tim_ex.c ****   * @note  This function is mandatory to use the commutation event in order to
1563:Drivers/STM32L4xx_HAL_Driver/Src/stm32l4xx_hal_tim_ex.c ****   *        update the configuration at each commutation detection on the TRGI input of the Timer,
1564:Drivers/STM32L4xx_HAL_Driver/Src/stm32l4xx_hal_tim_ex.c ****   *        the typical use of this feature is with the use of another Timer(interface Timer)
1565:Drivers/STM32L4xx_HAL_Driver/Src/stm32l4xx_hal_tim_ex.c ****   *        configured in Hall sensor interface, this interface Timer will generate the
1566:Drivers/STM32L4xx_HAL_Driver/Src/stm32l4xx_hal_tim_ex.c ****   *        commutation at its TRGO output (connected to Timer used in this function) each time
1567:Drivers/STM32L4xx_HAL_Driver/Src/stm32l4xx_hal_tim_ex.c ****   *        the TI1 of the Interface Timer detect a commutation at its input TI1.
1568:Drivers/STM32L4xx_HAL_Driver/Src/stm32l4xx_hal_tim_ex.c ****   * @note  The user should configure the DMA in his own software, in This function only the COMDE b
1569:Drivers/STM32L4xx_HAL_Driver/Src/stm32l4xx_hal_tim_ex.c ****   * @param  htim TIM handle
1570:Drivers/STM32L4xx_HAL_Driver/Src/stm32l4xx_hal_tim_ex.c ****   * @param  InputTrigger the Internal trigger corresponding to the Timer Interfacing with the Hall 
ARM GAS  /tmp/ccByjmRO.s 			page 51


1571:Drivers/STM32L4xx_HAL_Driver/Src/stm32l4xx_hal_tim_ex.c ****   *          This parameter can be one of the following values:
1572:Drivers/STM32L4xx_HAL_Driver/Src/stm32l4xx_hal_tim_ex.c ****   *            @arg TIM_TS_ITR0: Internal trigger 0 selected
1573:Drivers/STM32L4xx_HAL_Driver/Src/stm32l4xx_hal_tim_ex.c ****   *            @arg TIM_TS_ITR1: Internal trigger 1 selected
1574:Drivers/STM32L4xx_HAL_Driver/Src/stm32l4xx_hal_tim_ex.c ****   *            @arg TIM_TS_ITR2: Internal trigger 2 selected
1575:Drivers/STM32L4xx_HAL_Driver/Src/stm32l4xx_hal_tim_ex.c ****   *            @arg TIM_TS_ITR3: Internal trigger 3 selected
1576:Drivers/STM32L4xx_HAL_Driver/Src/stm32l4xx_hal_tim_ex.c ****   *            @arg TIM_TS_NONE: No trigger is needed
1577:Drivers/STM32L4xx_HAL_Driver/Src/stm32l4xx_hal_tim_ex.c ****   * @param  CommutationSource the Commutation Event source
1578:Drivers/STM32L4xx_HAL_Driver/Src/stm32l4xx_hal_tim_ex.c ****   *          This parameter can be one of the following values:
1579:Drivers/STM32L4xx_HAL_Driver/Src/stm32l4xx_hal_tim_ex.c ****   *            @arg TIM_COMMUTATION_TRGI: Commutation source is the TRGI of the Interface Timer
1580:Drivers/STM32L4xx_HAL_Driver/Src/stm32l4xx_hal_tim_ex.c ****   *            @arg TIM_COMMUTATION_SOFTWARE:  Commutation source is set by software using the COMG
1581:Drivers/STM32L4xx_HAL_Driver/Src/stm32l4xx_hal_tim_ex.c ****   * @retval HAL status
1582:Drivers/STM32L4xx_HAL_Driver/Src/stm32l4xx_hal_tim_ex.c ****   */
1583:Drivers/STM32L4xx_HAL_Driver/Src/stm32l4xx_hal_tim_ex.c **** HAL_StatusTypeDef HAL_TIMEx_ConfigCommutEvent_DMA(TIM_HandleTypeDef *htim, uint32_t  InputTrigger,
1584:Drivers/STM32L4xx_HAL_Driver/Src/stm32l4xx_hal_tim_ex.c ****                                                   uint32_t  CommutationSource)
1585:Drivers/STM32L4xx_HAL_Driver/Src/stm32l4xx_hal_tim_ex.c **** {
1586:Drivers/STM32L4xx_HAL_Driver/Src/stm32l4xx_hal_tim_ex.c ****   /* Check the parameters */
1587:Drivers/STM32L4xx_HAL_Driver/Src/stm32l4xx_hal_tim_ex.c ****   assert_param(IS_TIM_COMMUTATION_EVENT_INSTANCE(htim->Instance));
1588:Drivers/STM32L4xx_HAL_Driver/Src/stm32l4xx_hal_tim_ex.c ****   assert_param(IS_TIM_INTERNAL_TRIGGEREVENT_SELECTION(InputTrigger));
1589:Drivers/STM32L4xx_HAL_Driver/Src/stm32l4xx_hal_tim_ex.c **** 
1590:Drivers/STM32L4xx_HAL_Driver/Src/stm32l4xx_hal_tim_ex.c ****   __HAL_LOCK(htim);
1591:Drivers/STM32L4xx_HAL_Driver/Src/stm32l4xx_hal_tim_ex.c **** 
1592:Drivers/STM32L4xx_HAL_Driver/Src/stm32l4xx_hal_tim_ex.c ****   if ((InputTrigger == TIM_TS_ITR0) || (InputTrigger == TIM_TS_ITR1) ||
1593:Drivers/STM32L4xx_HAL_Driver/Src/stm32l4xx_hal_tim_ex.c ****       (InputTrigger == TIM_TS_ITR2) || (InputTrigger == TIM_TS_ITR3))
1594:Drivers/STM32L4xx_HAL_Driver/Src/stm32l4xx_hal_tim_ex.c ****   {
1595:Drivers/STM32L4xx_HAL_Driver/Src/stm32l4xx_hal_tim_ex.c ****     /* Select the Input trigger */
1596:Drivers/STM32L4xx_HAL_Driver/Src/stm32l4xx_hal_tim_ex.c ****     htim->Instance->SMCR &= ~TIM_SMCR_TS;
1597:Drivers/STM32L4xx_HAL_Driver/Src/stm32l4xx_hal_tim_ex.c ****     htim->Instance->SMCR |= InputTrigger;
1598:Drivers/STM32L4xx_HAL_Driver/Src/stm32l4xx_hal_tim_ex.c ****   }
1599:Drivers/STM32L4xx_HAL_Driver/Src/stm32l4xx_hal_tim_ex.c **** 
1600:Drivers/STM32L4xx_HAL_Driver/Src/stm32l4xx_hal_tim_ex.c ****   /* Select the Capture Compare preload feature */
1601:Drivers/STM32L4xx_HAL_Driver/Src/stm32l4xx_hal_tim_ex.c ****   htim->Instance->CR2 |= TIM_CR2_CCPC;
1602:Drivers/STM32L4xx_HAL_Driver/Src/stm32l4xx_hal_tim_ex.c ****   /* Select the Commutation event source */
1603:Drivers/STM32L4xx_HAL_Driver/Src/stm32l4xx_hal_tim_ex.c ****   htim->Instance->CR2 &= ~TIM_CR2_CCUS;
1604:Drivers/STM32L4xx_HAL_Driver/Src/stm32l4xx_hal_tim_ex.c ****   htim->Instance->CR2 |= CommutationSource;
1605:Drivers/STM32L4xx_HAL_Driver/Src/stm32l4xx_hal_tim_ex.c **** 
1606:Drivers/STM32L4xx_HAL_Driver/Src/stm32l4xx_hal_tim_ex.c ****   /* Enable the Commutation DMA Request */
1607:Drivers/STM32L4xx_HAL_Driver/Src/stm32l4xx_hal_tim_ex.c ****   /* Set the DMA Commutation Callback */
1608:Drivers/STM32L4xx_HAL_Driver/Src/stm32l4xx_hal_tim_ex.c ****   htim->hdma[TIM_DMA_ID_COMMUTATION]->XferCpltCallback = TIMEx_DMACommutationCplt;
1609:Drivers/STM32L4xx_HAL_Driver/Src/stm32l4xx_hal_tim_ex.c ****   htim->hdma[TIM_DMA_ID_COMMUTATION]->XferHalfCpltCallback = TIMEx_DMACommutationHalfCplt;
1610:Drivers/STM32L4xx_HAL_Driver/Src/stm32l4xx_hal_tim_ex.c ****   /* Set the DMA error callback */
1611:Drivers/STM32L4xx_HAL_Driver/Src/stm32l4xx_hal_tim_ex.c ****   htim->hdma[TIM_DMA_ID_COMMUTATION]->XferErrorCallback = TIM_DMAError;
1612:Drivers/STM32L4xx_HAL_Driver/Src/stm32l4xx_hal_tim_ex.c **** 
1613:Drivers/STM32L4xx_HAL_Driver/Src/stm32l4xx_hal_tim_ex.c ****   /* Disable Commutation Interrupt */
1614:Drivers/STM32L4xx_HAL_Driver/Src/stm32l4xx_hal_tim_ex.c ****   __HAL_TIM_DISABLE_IT(htim, TIM_IT_COM);
1615:Drivers/STM32L4xx_HAL_Driver/Src/stm32l4xx_hal_tim_ex.c **** 
1616:Drivers/STM32L4xx_HAL_Driver/Src/stm32l4xx_hal_tim_ex.c ****   /* Enable the Commutation DMA Request */
1617:Drivers/STM32L4xx_HAL_Driver/Src/stm32l4xx_hal_tim_ex.c ****   __HAL_TIM_ENABLE_DMA(htim, TIM_DMA_COM);
1618:Drivers/STM32L4xx_HAL_Driver/Src/stm32l4xx_hal_tim_ex.c **** 
1619:Drivers/STM32L4xx_HAL_Driver/Src/stm32l4xx_hal_tim_ex.c ****   __HAL_UNLOCK(htim);
1620:Drivers/STM32L4xx_HAL_Driver/Src/stm32l4xx_hal_tim_ex.c **** 
1621:Drivers/STM32L4xx_HAL_Driver/Src/stm32l4xx_hal_tim_ex.c ****   return HAL_OK;
1622:Drivers/STM32L4xx_HAL_Driver/Src/stm32l4xx_hal_tim_ex.c **** }
1623:Drivers/STM32L4xx_HAL_Driver/Src/stm32l4xx_hal_tim_ex.c **** 
1624:Drivers/STM32L4xx_HAL_Driver/Src/stm32l4xx_hal_tim_ex.c **** /**
1625:Drivers/STM32L4xx_HAL_Driver/Src/stm32l4xx_hal_tim_ex.c ****   * @brief  Configures the TIM in master mode.
1626:Drivers/STM32L4xx_HAL_Driver/Src/stm32l4xx_hal_tim_ex.c ****   * @param  htim TIM handle.
1627:Drivers/STM32L4xx_HAL_Driver/Src/stm32l4xx_hal_tim_ex.c ****   * @param  sMasterConfig pointer to a TIM_MasterConfigTypeDef structure that
ARM GAS  /tmp/ccByjmRO.s 			page 52


1628:Drivers/STM32L4xx_HAL_Driver/Src/stm32l4xx_hal_tim_ex.c ****   *         contains the selected trigger output (TRGO) and the Master/Slave
1629:Drivers/STM32L4xx_HAL_Driver/Src/stm32l4xx_hal_tim_ex.c ****   *         mode.
1630:Drivers/STM32L4xx_HAL_Driver/Src/stm32l4xx_hal_tim_ex.c ****   * @retval HAL status
1631:Drivers/STM32L4xx_HAL_Driver/Src/stm32l4xx_hal_tim_ex.c ****   */
1632:Drivers/STM32L4xx_HAL_Driver/Src/stm32l4xx_hal_tim_ex.c **** HAL_StatusTypeDef HAL_TIMEx_MasterConfigSynchronization(TIM_HandleTypeDef *htim,
1633:Drivers/STM32L4xx_HAL_Driver/Src/stm32l4xx_hal_tim_ex.c ****                                                         TIM_MasterConfigTypeDef *sMasterConfig)
1634:Drivers/STM32L4xx_HAL_Driver/Src/stm32l4xx_hal_tim_ex.c **** {
1635:Drivers/STM32L4xx_HAL_Driver/Src/stm32l4xx_hal_tim_ex.c ****   uint32_t tmpcr2;
1636:Drivers/STM32L4xx_HAL_Driver/Src/stm32l4xx_hal_tim_ex.c ****   uint32_t tmpsmcr;
1637:Drivers/STM32L4xx_HAL_Driver/Src/stm32l4xx_hal_tim_ex.c **** 
1638:Drivers/STM32L4xx_HAL_Driver/Src/stm32l4xx_hal_tim_ex.c ****   /* Check the parameters */
1639:Drivers/STM32L4xx_HAL_Driver/Src/stm32l4xx_hal_tim_ex.c ****   assert_param(IS_TIM_SYNCHRO_INSTANCE(htim->Instance));
1640:Drivers/STM32L4xx_HAL_Driver/Src/stm32l4xx_hal_tim_ex.c ****   assert_param(IS_TIM_TRGO_SOURCE(sMasterConfig->MasterOutputTrigger));
1641:Drivers/STM32L4xx_HAL_Driver/Src/stm32l4xx_hal_tim_ex.c ****   assert_param(IS_TIM_MSM_STATE(sMasterConfig->MasterSlaveMode));
1642:Drivers/STM32L4xx_HAL_Driver/Src/stm32l4xx_hal_tim_ex.c **** 
1643:Drivers/STM32L4xx_HAL_Driver/Src/stm32l4xx_hal_tim_ex.c ****   /* Check input state */
1644:Drivers/STM32L4xx_HAL_Driver/Src/stm32l4xx_hal_tim_ex.c ****   __HAL_LOCK(htim);
1645:Drivers/STM32L4xx_HAL_Driver/Src/stm32l4xx_hal_tim_ex.c **** 
1646:Drivers/STM32L4xx_HAL_Driver/Src/stm32l4xx_hal_tim_ex.c ****   /* Change the handler state */
1647:Drivers/STM32L4xx_HAL_Driver/Src/stm32l4xx_hal_tim_ex.c ****   htim->State = HAL_TIM_STATE_BUSY;
1648:Drivers/STM32L4xx_HAL_Driver/Src/stm32l4xx_hal_tim_ex.c **** 
1649:Drivers/STM32L4xx_HAL_Driver/Src/stm32l4xx_hal_tim_ex.c ****   /* Get the TIMx CR2 register value */
1650:Drivers/STM32L4xx_HAL_Driver/Src/stm32l4xx_hal_tim_ex.c ****   tmpcr2 = htim->Instance->CR2;
1651:Drivers/STM32L4xx_HAL_Driver/Src/stm32l4xx_hal_tim_ex.c **** 
1652:Drivers/STM32L4xx_HAL_Driver/Src/stm32l4xx_hal_tim_ex.c ****   /* Get the TIMx SMCR register value */
1653:Drivers/STM32L4xx_HAL_Driver/Src/stm32l4xx_hal_tim_ex.c ****   tmpsmcr = htim->Instance->SMCR;
1654:Drivers/STM32L4xx_HAL_Driver/Src/stm32l4xx_hal_tim_ex.c **** 
1655:Drivers/STM32L4xx_HAL_Driver/Src/stm32l4xx_hal_tim_ex.c ****   /* If the timer supports ADC synchronization through TRGO2, set the master mode selection 2 */
1656:Drivers/STM32L4xx_HAL_Driver/Src/stm32l4xx_hal_tim_ex.c ****   if (IS_TIM_TRGO2_INSTANCE(htim->Instance))
1657:Drivers/STM32L4xx_HAL_Driver/Src/stm32l4xx_hal_tim_ex.c ****   {
1658:Drivers/STM32L4xx_HAL_Driver/Src/stm32l4xx_hal_tim_ex.c ****     /* Check the parameters */
1659:Drivers/STM32L4xx_HAL_Driver/Src/stm32l4xx_hal_tim_ex.c ****     assert_param(IS_TIM_TRGO2_SOURCE(sMasterConfig->MasterOutputTrigger2));
1660:Drivers/STM32L4xx_HAL_Driver/Src/stm32l4xx_hal_tim_ex.c **** 
1661:Drivers/STM32L4xx_HAL_Driver/Src/stm32l4xx_hal_tim_ex.c ****     /* Clear the MMS2 bits */
1662:Drivers/STM32L4xx_HAL_Driver/Src/stm32l4xx_hal_tim_ex.c ****     tmpcr2 &= ~TIM_CR2_MMS2;
1663:Drivers/STM32L4xx_HAL_Driver/Src/stm32l4xx_hal_tim_ex.c ****     /* Select the TRGO2 source*/
1664:Drivers/STM32L4xx_HAL_Driver/Src/stm32l4xx_hal_tim_ex.c ****     tmpcr2 |= sMasterConfig->MasterOutputTrigger2;
1665:Drivers/STM32L4xx_HAL_Driver/Src/stm32l4xx_hal_tim_ex.c ****   }
1666:Drivers/STM32L4xx_HAL_Driver/Src/stm32l4xx_hal_tim_ex.c **** 
1667:Drivers/STM32L4xx_HAL_Driver/Src/stm32l4xx_hal_tim_ex.c ****   /* Reset the MMS Bits */
1668:Drivers/STM32L4xx_HAL_Driver/Src/stm32l4xx_hal_tim_ex.c ****   tmpcr2 &= ~TIM_CR2_MMS;
1669:Drivers/STM32L4xx_HAL_Driver/Src/stm32l4xx_hal_tim_ex.c ****   /* Select the TRGO source */
1670:Drivers/STM32L4xx_HAL_Driver/Src/stm32l4xx_hal_tim_ex.c ****   tmpcr2 |=  sMasterConfig->MasterOutputTrigger;
1671:Drivers/STM32L4xx_HAL_Driver/Src/stm32l4xx_hal_tim_ex.c **** 
1672:Drivers/STM32L4xx_HAL_Driver/Src/stm32l4xx_hal_tim_ex.c ****   /* Reset the MSM Bit */
1673:Drivers/STM32L4xx_HAL_Driver/Src/stm32l4xx_hal_tim_ex.c ****   tmpsmcr &= ~TIM_SMCR_MSM;
1674:Drivers/STM32L4xx_HAL_Driver/Src/stm32l4xx_hal_tim_ex.c ****   /* Set master mode */
1675:Drivers/STM32L4xx_HAL_Driver/Src/stm32l4xx_hal_tim_ex.c ****   tmpsmcr |= sMasterConfig->MasterSlaveMode;
1676:Drivers/STM32L4xx_HAL_Driver/Src/stm32l4xx_hal_tim_ex.c **** 
1677:Drivers/STM32L4xx_HAL_Driver/Src/stm32l4xx_hal_tim_ex.c ****   /* Update TIMx CR2 */
1678:Drivers/STM32L4xx_HAL_Driver/Src/stm32l4xx_hal_tim_ex.c ****   htim->Instance->CR2 = tmpcr2;
1679:Drivers/STM32L4xx_HAL_Driver/Src/stm32l4xx_hal_tim_ex.c **** 
1680:Drivers/STM32L4xx_HAL_Driver/Src/stm32l4xx_hal_tim_ex.c ****   /* Update TIMx SMCR */
1681:Drivers/STM32L4xx_HAL_Driver/Src/stm32l4xx_hal_tim_ex.c ****   htim->Instance->SMCR = tmpsmcr;
1682:Drivers/STM32L4xx_HAL_Driver/Src/stm32l4xx_hal_tim_ex.c **** 
1683:Drivers/STM32L4xx_HAL_Driver/Src/stm32l4xx_hal_tim_ex.c ****   /* Change the htim state */
1684:Drivers/STM32L4xx_HAL_Driver/Src/stm32l4xx_hal_tim_ex.c ****   htim->State = HAL_TIM_STATE_READY;
ARM GAS  /tmp/ccByjmRO.s 			page 53


1685:Drivers/STM32L4xx_HAL_Driver/Src/stm32l4xx_hal_tim_ex.c **** 
1686:Drivers/STM32L4xx_HAL_Driver/Src/stm32l4xx_hal_tim_ex.c ****   __HAL_UNLOCK(htim);
1687:Drivers/STM32L4xx_HAL_Driver/Src/stm32l4xx_hal_tim_ex.c **** 
1688:Drivers/STM32L4xx_HAL_Driver/Src/stm32l4xx_hal_tim_ex.c ****   return HAL_OK;
1689:Drivers/STM32L4xx_HAL_Driver/Src/stm32l4xx_hal_tim_ex.c **** }
1690:Drivers/STM32L4xx_HAL_Driver/Src/stm32l4xx_hal_tim_ex.c **** 
1691:Drivers/STM32L4xx_HAL_Driver/Src/stm32l4xx_hal_tim_ex.c **** /**
1692:Drivers/STM32L4xx_HAL_Driver/Src/stm32l4xx_hal_tim_ex.c ****   * @brief  Configures the Break feature, dead time, Lock level, OSSI/OSSR State
1693:Drivers/STM32L4xx_HAL_Driver/Src/stm32l4xx_hal_tim_ex.c ****   *         and the AOE(automatic output enable).
1694:Drivers/STM32L4xx_HAL_Driver/Src/stm32l4xx_hal_tim_ex.c ****   * @param  htim TIM handle
1695:Drivers/STM32L4xx_HAL_Driver/Src/stm32l4xx_hal_tim_ex.c ****   * @param  sBreakDeadTimeConfig pointer to a TIM_ConfigBreakDeadConfigTypeDef structure that
1696:Drivers/STM32L4xx_HAL_Driver/Src/stm32l4xx_hal_tim_ex.c ****   *         contains the BDTR Register configuration  information for the TIM peripheral.
1697:Drivers/STM32L4xx_HAL_Driver/Src/stm32l4xx_hal_tim_ex.c ****   * @retval HAL status
1698:Drivers/STM32L4xx_HAL_Driver/Src/stm32l4xx_hal_tim_ex.c ****   */
1699:Drivers/STM32L4xx_HAL_Driver/Src/stm32l4xx_hal_tim_ex.c **** HAL_StatusTypeDef HAL_TIMEx_ConfigBreakDeadTime(TIM_HandleTypeDef *htim,
1700:Drivers/STM32L4xx_HAL_Driver/Src/stm32l4xx_hal_tim_ex.c ****                                                 TIM_BreakDeadTimeConfigTypeDef *sBreakDeadTimeConfi
1701:Drivers/STM32L4xx_HAL_Driver/Src/stm32l4xx_hal_tim_ex.c **** {
1702:Drivers/STM32L4xx_HAL_Driver/Src/stm32l4xx_hal_tim_ex.c ****   /* Keep this variable initialized to 0 as it is used to configure BDTR register */
1703:Drivers/STM32L4xx_HAL_Driver/Src/stm32l4xx_hal_tim_ex.c ****   uint32_t tmpbdtr = 0U;
1704:Drivers/STM32L4xx_HAL_Driver/Src/stm32l4xx_hal_tim_ex.c **** 
1705:Drivers/STM32L4xx_HAL_Driver/Src/stm32l4xx_hal_tim_ex.c ****   /* Check the parameters */
1706:Drivers/STM32L4xx_HAL_Driver/Src/stm32l4xx_hal_tim_ex.c ****   assert_param(IS_TIM_BREAK_INSTANCE(htim->Instance));
1707:Drivers/STM32L4xx_HAL_Driver/Src/stm32l4xx_hal_tim_ex.c ****   assert_param(IS_TIM_OSSR_STATE(sBreakDeadTimeConfig->OffStateRunMode));
1708:Drivers/STM32L4xx_HAL_Driver/Src/stm32l4xx_hal_tim_ex.c ****   assert_param(IS_TIM_OSSI_STATE(sBreakDeadTimeConfig->OffStateIDLEMode));
1709:Drivers/STM32L4xx_HAL_Driver/Src/stm32l4xx_hal_tim_ex.c ****   assert_param(IS_TIM_LOCK_LEVEL(sBreakDeadTimeConfig->LockLevel));
1710:Drivers/STM32L4xx_HAL_Driver/Src/stm32l4xx_hal_tim_ex.c ****   assert_param(IS_TIM_DEADTIME(sBreakDeadTimeConfig->DeadTime));
1711:Drivers/STM32L4xx_HAL_Driver/Src/stm32l4xx_hal_tim_ex.c ****   assert_param(IS_TIM_BREAK_STATE(sBreakDeadTimeConfig->BreakState));
1712:Drivers/STM32L4xx_HAL_Driver/Src/stm32l4xx_hal_tim_ex.c ****   assert_param(IS_TIM_BREAK_POLARITY(sBreakDeadTimeConfig->BreakPolarity));
1713:Drivers/STM32L4xx_HAL_Driver/Src/stm32l4xx_hal_tim_ex.c ****   assert_param(IS_TIM_BREAK_FILTER(sBreakDeadTimeConfig->BreakFilter));
1714:Drivers/STM32L4xx_HAL_Driver/Src/stm32l4xx_hal_tim_ex.c ****   assert_param(IS_TIM_AUTOMATIC_OUTPUT_STATE(sBreakDeadTimeConfig->AutomaticOutput));
1715:Drivers/STM32L4xx_HAL_Driver/Src/stm32l4xx_hal_tim_ex.c **** 
1716:Drivers/STM32L4xx_HAL_Driver/Src/stm32l4xx_hal_tim_ex.c ****   /* Check input state */
1717:Drivers/STM32L4xx_HAL_Driver/Src/stm32l4xx_hal_tim_ex.c ****   __HAL_LOCK(htim);
1718:Drivers/STM32L4xx_HAL_Driver/Src/stm32l4xx_hal_tim_ex.c **** 
1719:Drivers/STM32L4xx_HAL_Driver/Src/stm32l4xx_hal_tim_ex.c ****   /* Set the Lock level, the Break enable Bit and the Polarity, the OSSR State,
1720:Drivers/STM32L4xx_HAL_Driver/Src/stm32l4xx_hal_tim_ex.c ****      the OSSI State, the dead time value and the Automatic Output Enable Bit */
1721:Drivers/STM32L4xx_HAL_Driver/Src/stm32l4xx_hal_tim_ex.c **** 
1722:Drivers/STM32L4xx_HAL_Driver/Src/stm32l4xx_hal_tim_ex.c ****   /* Set the BDTR bits */
1723:Drivers/STM32L4xx_HAL_Driver/Src/stm32l4xx_hal_tim_ex.c ****   MODIFY_REG(tmpbdtr, TIM_BDTR_DTG, sBreakDeadTimeConfig->DeadTime);
1724:Drivers/STM32L4xx_HAL_Driver/Src/stm32l4xx_hal_tim_ex.c ****   MODIFY_REG(tmpbdtr, TIM_BDTR_LOCK, sBreakDeadTimeConfig->LockLevel);
1725:Drivers/STM32L4xx_HAL_Driver/Src/stm32l4xx_hal_tim_ex.c ****   MODIFY_REG(tmpbdtr, TIM_BDTR_OSSI, sBreakDeadTimeConfig->OffStateIDLEMode);
1726:Drivers/STM32L4xx_HAL_Driver/Src/stm32l4xx_hal_tim_ex.c ****   MODIFY_REG(tmpbdtr, TIM_BDTR_OSSR, sBreakDeadTimeConfig->OffStateRunMode);
1727:Drivers/STM32L4xx_HAL_Driver/Src/stm32l4xx_hal_tim_ex.c ****   MODIFY_REG(tmpbdtr, TIM_BDTR_BKE, sBreakDeadTimeConfig->BreakState);
1728:Drivers/STM32L4xx_HAL_Driver/Src/stm32l4xx_hal_tim_ex.c ****   MODIFY_REG(tmpbdtr, TIM_BDTR_BKP, sBreakDeadTimeConfig->BreakPolarity);
1729:Drivers/STM32L4xx_HAL_Driver/Src/stm32l4xx_hal_tim_ex.c ****   MODIFY_REG(tmpbdtr, TIM_BDTR_AOE, sBreakDeadTimeConfig->AutomaticOutput);
1730:Drivers/STM32L4xx_HAL_Driver/Src/stm32l4xx_hal_tim_ex.c ****   MODIFY_REG(tmpbdtr, TIM_BDTR_BKF, (sBreakDeadTimeConfig->BreakFilter << TIM_BDTR_BKF_Pos));
1731:Drivers/STM32L4xx_HAL_Driver/Src/stm32l4xx_hal_tim_ex.c **** 
1732:Drivers/STM32L4xx_HAL_Driver/Src/stm32l4xx_hal_tim_ex.c ****   if (IS_TIM_BKIN2_INSTANCE(htim->Instance))
1733:Drivers/STM32L4xx_HAL_Driver/Src/stm32l4xx_hal_tim_ex.c ****   {
1734:Drivers/STM32L4xx_HAL_Driver/Src/stm32l4xx_hal_tim_ex.c ****     /* Check the parameters */
1735:Drivers/STM32L4xx_HAL_Driver/Src/stm32l4xx_hal_tim_ex.c ****     assert_param(IS_TIM_BREAK2_STATE(sBreakDeadTimeConfig->Break2State));
1736:Drivers/STM32L4xx_HAL_Driver/Src/stm32l4xx_hal_tim_ex.c ****     assert_param(IS_TIM_BREAK2_POLARITY(sBreakDeadTimeConfig->Break2Polarity));
1737:Drivers/STM32L4xx_HAL_Driver/Src/stm32l4xx_hal_tim_ex.c ****     assert_param(IS_TIM_BREAK_FILTER(sBreakDeadTimeConfig->Break2Filter));
1738:Drivers/STM32L4xx_HAL_Driver/Src/stm32l4xx_hal_tim_ex.c **** 
1739:Drivers/STM32L4xx_HAL_Driver/Src/stm32l4xx_hal_tim_ex.c ****     /* Set the BREAK2 input related BDTR bits */
1740:Drivers/STM32L4xx_HAL_Driver/Src/stm32l4xx_hal_tim_ex.c ****     MODIFY_REG(tmpbdtr, TIM_BDTR_BK2F, (sBreakDeadTimeConfig->Break2Filter << TIM_BDTR_BK2F_Pos));
1741:Drivers/STM32L4xx_HAL_Driver/Src/stm32l4xx_hal_tim_ex.c ****     MODIFY_REG(tmpbdtr, TIM_BDTR_BK2E, sBreakDeadTimeConfig->Break2State);
ARM GAS  /tmp/ccByjmRO.s 			page 54


1742:Drivers/STM32L4xx_HAL_Driver/Src/stm32l4xx_hal_tim_ex.c ****     MODIFY_REG(tmpbdtr, TIM_BDTR_BK2P, sBreakDeadTimeConfig->Break2Polarity);
1743:Drivers/STM32L4xx_HAL_Driver/Src/stm32l4xx_hal_tim_ex.c ****   }
1744:Drivers/STM32L4xx_HAL_Driver/Src/stm32l4xx_hal_tim_ex.c **** 
1745:Drivers/STM32L4xx_HAL_Driver/Src/stm32l4xx_hal_tim_ex.c ****   /* Set TIMx_BDTR */
1746:Drivers/STM32L4xx_HAL_Driver/Src/stm32l4xx_hal_tim_ex.c ****   htim->Instance->BDTR = tmpbdtr;
1747:Drivers/STM32L4xx_HAL_Driver/Src/stm32l4xx_hal_tim_ex.c **** 
1748:Drivers/STM32L4xx_HAL_Driver/Src/stm32l4xx_hal_tim_ex.c ****   __HAL_UNLOCK(htim);
1749:Drivers/STM32L4xx_HAL_Driver/Src/stm32l4xx_hal_tim_ex.c **** 
1750:Drivers/STM32L4xx_HAL_Driver/Src/stm32l4xx_hal_tim_ex.c ****   return HAL_OK;
1751:Drivers/STM32L4xx_HAL_Driver/Src/stm32l4xx_hal_tim_ex.c **** }
1752:Drivers/STM32L4xx_HAL_Driver/Src/stm32l4xx_hal_tim_ex.c **** 
1753:Drivers/STM32L4xx_HAL_Driver/Src/stm32l4xx_hal_tim_ex.c **** /**
1754:Drivers/STM32L4xx_HAL_Driver/Src/stm32l4xx_hal_tim_ex.c ****   * @brief  Configures the break input source.
1755:Drivers/STM32L4xx_HAL_Driver/Src/stm32l4xx_hal_tim_ex.c ****   * @param  htim TIM handle.
1756:Drivers/STM32L4xx_HAL_Driver/Src/stm32l4xx_hal_tim_ex.c ****   * @param  BreakInput Break input to configure
1757:Drivers/STM32L4xx_HAL_Driver/Src/stm32l4xx_hal_tim_ex.c ****   *          This parameter can be one of the following values:
1758:Drivers/STM32L4xx_HAL_Driver/Src/stm32l4xx_hal_tim_ex.c ****   *            @arg TIM_BREAKINPUT_BRK: Timer break input
1759:Drivers/STM32L4xx_HAL_Driver/Src/stm32l4xx_hal_tim_ex.c ****   *            @arg TIM_BREAKINPUT_BRK2: Timer break 2 input
1760:Drivers/STM32L4xx_HAL_Driver/Src/stm32l4xx_hal_tim_ex.c ****   * @param  sBreakInputConfig Break input source configuration
1761:Drivers/STM32L4xx_HAL_Driver/Src/stm32l4xx_hal_tim_ex.c ****   * @retval HAL status
1762:Drivers/STM32L4xx_HAL_Driver/Src/stm32l4xx_hal_tim_ex.c ****   */
1763:Drivers/STM32L4xx_HAL_Driver/Src/stm32l4xx_hal_tim_ex.c **** HAL_StatusTypeDef HAL_TIMEx_ConfigBreakInput(TIM_HandleTypeDef *htim,
1764:Drivers/STM32L4xx_HAL_Driver/Src/stm32l4xx_hal_tim_ex.c ****                                              uint32_t BreakInput,
1765:Drivers/STM32L4xx_HAL_Driver/Src/stm32l4xx_hal_tim_ex.c ****                                              TIMEx_BreakInputConfigTypeDef *sBreakInputConfig)
1766:Drivers/STM32L4xx_HAL_Driver/Src/stm32l4xx_hal_tim_ex.c **** 
1767:Drivers/STM32L4xx_HAL_Driver/Src/stm32l4xx_hal_tim_ex.c **** {
1768:Drivers/STM32L4xx_HAL_Driver/Src/stm32l4xx_hal_tim_ex.c ****   uint32_t tmporx;
1769:Drivers/STM32L4xx_HAL_Driver/Src/stm32l4xx_hal_tim_ex.c ****   uint32_t bkin_enable_mask = 0U;
1770:Drivers/STM32L4xx_HAL_Driver/Src/stm32l4xx_hal_tim_ex.c ****   uint32_t bkin_polarity_mask = 0U;
1771:Drivers/STM32L4xx_HAL_Driver/Src/stm32l4xx_hal_tim_ex.c ****   uint32_t bkin_enable_bitpos = 0U;
1772:Drivers/STM32L4xx_HAL_Driver/Src/stm32l4xx_hal_tim_ex.c ****   uint32_t bkin_polarity_bitpos = 0U;
1773:Drivers/STM32L4xx_HAL_Driver/Src/stm32l4xx_hal_tim_ex.c **** 
1774:Drivers/STM32L4xx_HAL_Driver/Src/stm32l4xx_hal_tim_ex.c ****   /* Check the parameters */
1775:Drivers/STM32L4xx_HAL_Driver/Src/stm32l4xx_hal_tim_ex.c ****   assert_param(IS_TIM_BREAK_INSTANCE(htim->Instance));
1776:Drivers/STM32L4xx_HAL_Driver/Src/stm32l4xx_hal_tim_ex.c ****   assert_param(IS_TIM_BREAKINPUT(BreakInput));
1777:Drivers/STM32L4xx_HAL_Driver/Src/stm32l4xx_hal_tim_ex.c ****   assert_param(IS_TIM_BREAKINPUTSOURCE(sBreakInputConfig->Source));
1778:Drivers/STM32L4xx_HAL_Driver/Src/stm32l4xx_hal_tim_ex.c ****   assert_param(IS_TIM_BREAKINPUTSOURCE_STATE(sBreakInputConfig->Enable));
1779:Drivers/STM32L4xx_HAL_Driver/Src/stm32l4xx_hal_tim_ex.c **** #if defined(DFSDM1_Channel0)
1780:Drivers/STM32L4xx_HAL_Driver/Src/stm32l4xx_hal_tim_ex.c ****   if (sBreakInputConfig->Source != TIM_BREAKINPUTSOURCE_DFSDM1)
1781:Drivers/STM32L4xx_HAL_Driver/Src/stm32l4xx_hal_tim_ex.c ****   {
1782:Drivers/STM32L4xx_HAL_Driver/Src/stm32l4xx_hal_tim_ex.c ****     assert_param(IS_TIM_BREAKINPUTSOURCE_POLARITY(sBreakInputConfig->Polarity));
1783:Drivers/STM32L4xx_HAL_Driver/Src/stm32l4xx_hal_tim_ex.c ****   }
1784:Drivers/STM32L4xx_HAL_Driver/Src/stm32l4xx_hal_tim_ex.c **** #else
1785:Drivers/STM32L4xx_HAL_Driver/Src/stm32l4xx_hal_tim_ex.c ****   assert_param(IS_TIM_BREAKINPUTSOURCE_POLARITY(sBreakInputConfig->Polarity));
1786:Drivers/STM32L4xx_HAL_Driver/Src/stm32l4xx_hal_tim_ex.c **** #endif /* DFSDM1_Channel0 */
1787:Drivers/STM32L4xx_HAL_Driver/Src/stm32l4xx_hal_tim_ex.c **** 
1788:Drivers/STM32L4xx_HAL_Driver/Src/stm32l4xx_hal_tim_ex.c ****   /* Check input state */
1789:Drivers/STM32L4xx_HAL_Driver/Src/stm32l4xx_hal_tim_ex.c ****   __HAL_LOCK(htim);
1790:Drivers/STM32L4xx_HAL_Driver/Src/stm32l4xx_hal_tim_ex.c **** 
1791:Drivers/STM32L4xx_HAL_Driver/Src/stm32l4xx_hal_tim_ex.c ****   switch (sBreakInputConfig->Source)
1792:Drivers/STM32L4xx_HAL_Driver/Src/stm32l4xx_hal_tim_ex.c ****   {
1793:Drivers/STM32L4xx_HAL_Driver/Src/stm32l4xx_hal_tim_ex.c ****     case TIM_BREAKINPUTSOURCE_BKIN:
1794:Drivers/STM32L4xx_HAL_Driver/Src/stm32l4xx_hal_tim_ex.c ****     {
1795:Drivers/STM32L4xx_HAL_Driver/Src/stm32l4xx_hal_tim_ex.c ****       bkin_enable_mask = TIM1_OR2_BKINE;
1796:Drivers/STM32L4xx_HAL_Driver/Src/stm32l4xx_hal_tim_ex.c ****       bkin_enable_bitpos = TIM1_OR2_BKINE_Pos;
1797:Drivers/STM32L4xx_HAL_Driver/Src/stm32l4xx_hal_tim_ex.c ****       bkin_polarity_mask = TIM1_OR2_BKINP;
1798:Drivers/STM32L4xx_HAL_Driver/Src/stm32l4xx_hal_tim_ex.c ****       bkin_polarity_bitpos = TIM1_OR2_BKINP_Pos;
ARM GAS  /tmp/ccByjmRO.s 			page 55


1799:Drivers/STM32L4xx_HAL_Driver/Src/stm32l4xx_hal_tim_ex.c ****       break;
1800:Drivers/STM32L4xx_HAL_Driver/Src/stm32l4xx_hal_tim_ex.c ****     }
1801:Drivers/STM32L4xx_HAL_Driver/Src/stm32l4xx_hal_tim_ex.c ****     case TIM_BREAKINPUTSOURCE_COMP1:
1802:Drivers/STM32L4xx_HAL_Driver/Src/stm32l4xx_hal_tim_ex.c ****     {
1803:Drivers/STM32L4xx_HAL_Driver/Src/stm32l4xx_hal_tim_ex.c ****       bkin_enable_mask = TIM1_OR2_BKCMP1E;
1804:Drivers/STM32L4xx_HAL_Driver/Src/stm32l4xx_hal_tim_ex.c ****       bkin_enable_bitpos = TIM1_OR2_BKCMP1E_Pos;
1805:Drivers/STM32L4xx_HAL_Driver/Src/stm32l4xx_hal_tim_ex.c ****       bkin_polarity_mask = TIM1_OR2_BKCMP1P;
1806:Drivers/STM32L4xx_HAL_Driver/Src/stm32l4xx_hal_tim_ex.c ****       bkin_polarity_bitpos = TIM1_OR2_BKCMP1P_Pos;
1807:Drivers/STM32L4xx_HAL_Driver/Src/stm32l4xx_hal_tim_ex.c ****       break;
1808:Drivers/STM32L4xx_HAL_Driver/Src/stm32l4xx_hal_tim_ex.c ****     }
1809:Drivers/STM32L4xx_HAL_Driver/Src/stm32l4xx_hal_tim_ex.c ****     case TIM_BREAKINPUTSOURCE_COMP2:
1810:Drivers/STM32L4xx_HAL_Driver/Src/stm32l4xx_hal_tim_ex.c ****     {
1811:Drivers/STM32L4xx_HAL_Driver/Src/stm32l4xx_hal_tim_ex.c ****       bkin_enable_mask = TIM1_OR2_BKCMP2E;
1812:Drivers/STM32L4xx_HAL_Driver/Src/stm32l4xx_hal_tim_ex.c ****       bkin_enable_bitpos = TIM1_OR2_BKCMP2E_Pos;
1813:Drivers/STM32L4xx_HAL_Driver/Src/stm32l4xx_hal_tim_ex.c ****       bkin_polarity_mask = TIM1_OR2_BKCMP2P;
1814:Drivers/STM32L4xx_HAL_Driver/Src/stm32l4xx_hal_tim_ex.c ****       bkin_polarity_bitpos = TIM1_OR2_BKCMP2P_Pos;
1815:Drivers/STM32L4xx_HAL_Driver/Src/stm32l4xx_hal_tim_ex.c ****       break;
1816:Drivers/STM32L4xx_HAL_Driver/Src/stm32l4xx_hal_tim_ex.c ****     }
1817:Drivers/STM32L4xx_HAL_Driver/Src/stm32l4xx_hal_tim_ex.c **** #if defined(DFSDM1_Channel0)
1818:Drivers/STM32L4xx_HAL_Driver/Src/stm32l4xx_hal_tim_ex.c ****     case TIM_BREAKINPUTSOURCE_DFSDM1:
1819:Drivers/STM32L4xx_HAL_Driver/Src/stm32l4xx_hal_tim_ex.c ****     {
1820:Drivers/STM32L4xx_HAL_Driver/Src/stm32l4xx_hal_tim_ex.c ****       bkin_enable_mask = TIM1_OR2_BKDF1BK0E;
1821:Drivers/STM32L4xx_HAL_Driver/Src/stm32l4xx_hal_tim_ex.c ****       bkin_enable_bitpos = 8U;
1822:Drivers/STM32L4xx_HAL_Driver/Src/stm32l4xx_hal_tim_ex.c ****       break;
1823:Drivers/STM32L4xx_HAL_Driver/Src/stm32l4xx_hal_tim_ex.c ****     }
1824:Drivers/STM32L4xx_HAL_Driver/Src/stm32l4xx_hal_tim_ex.c **** #endif /* DFSDM1_Channel0 */
1825:Drivers/STM32L4xx_HAL_Driver/Src/stm32l4xx_hal_tim_ex.c **** 
1826:Drivers/STM32L4xx_HAL_Driver/Src/stm32l4xx_hal_tim_ex.c ****     default:
1827:Drivers/STM32L4xx_HAL_Driver/Src/stm32l4xx_hal_tim_ex.c ****       break;
1828:Drivers/STM32L4xx_HAL_Driver/Src/stm32l4xx_hal_tim_ex.c ****   }
1829:Drivers/STM32L4xx_HAL_Driver/Src/stm32l4xx_hal_tim_ex.c **** 
1830:Drivers/STM32L4xx_HAL_Driver/Src/stm32l4xx_hal_tim_ex.c ****   switch (BreakInput)
1831:Drivers/STM32L4xx_HAL_Driver/Src/stm32l4xx_hal_tim_ex.c ****   {
1832:Drivers/STM32L4xx_HAL_Driver/Src/stm32l4xx_hal_tim_ex.c ****     case TIM_BREAKINPUT_BRK:
1833:Drivers/STM32L4xx_HAL_Driver/Src/stm32l4xx_hal_tim_ex.c ****     {
1834:Drivers/STM32L4xx_HAL_Driver/Src/stm32l4xx_hal_tim_ex.c ****       /* Get the TIMx_OR2 register value */
1835:Drivers/STM32L4xx_HAL_Driver/Src/stm32l4xx_hal_tim_ex.c ****       tmporx = htim->Instance->OR2;
1836:Drivers/STM32L4xx_HAL_Driver/Src/stm32l4xx_hal_tim_ex.c **** 
1837:Drivers/STM32L4xx_HAL_Driver/Src/stm32l4xx_hal_tim_ex.c ****       /* Enable the break input */
1838:Drivers/STM32L4xx_HAL_Driver/Src/stm32l4xx_hal_tim_ex.c ****       tmporx &= ~bkin_enable_mask;
1839:Drivers/STM32L4xx_HAL_Driver/Src/stm32l4xx_hal_tim_ex.c ****       tmporx |= (sBreakInputConfig->Enable << bkin_enable_bitpos) & bkin_enable_mask;
1840:Drivers/STM32L4xx_HAL_Driver/Src/stm32l4xx_hal_tim_ex.c **** 
1841:Drivers/STM32L4xx_HAL_Driver/Src/stm32l4xx_hal_tim_ex.c ****       /* Set the break input polarity */
1842:Drivers/STM32L4xx_HAL_Driver/Src/stm32l4xx_hal_tim_ex.c **** #if defined(DFSDM1_Channel0)
1843:Drivers/STM32L4xx_HAL_Driver/Src/stm32l4xx_hal_tim_ex.c ****       if (sBreakInputConfig->Source != TIM_BREAKINPUTSOURCE_DFSDM1)
1844:Drivers/STM32L4xx_HAL_Driver/Src/stm32l4xx_hal_tim_ex.c **** #endif /* DFSDM1_Channel0 */
1845:Drivers/STM32L4xx_HAL_Driver/Src/stm32l4xx_hal_tim_ex.c ****       {
1846:Drivers/STM32L4xx_HAL_Driver/Src/stm32l4xx_hal_tim_ex.c ****         tmporx &= ~bkin_polarity_mask;
1847:Drivers/STM32L4xx_HAL_Driver/Src/stm32l4xx_hal_tim_ex.c ****         tmporx |= (sBreakInputConfig->Polarity << bkin_polarity_bitpos) & bkin_polarity_mask;
1848:Drivers/STM32L4xx_HAL_Driver/Src/stm32l4xx_hal_tim_ex.c ****       }
1849:Drivers/STM32L4xx_HAL_Driver/Src/stm32l4xx_hal_tim_ex.c **** 
1850:Drivers/STM32L4xx_HAL_Driver/Src/stm32l4xx_hal_tim_ex.c ****       /* Set TIMx_OR2 */
1851:Drivers/STM32L4xx_HAL_Driver/Src/stm32l4xx_hal_tim_ex.c ****       htim->Instance->OR2 = tmporx;
1852:Drivers/STM32L4xx_HAL_Driver/Src/stm32l4xx_hal_tim_ex.c ****       break;
1853:Drivers/STM32L4xx_HAL_Driver/Src/stm32l4xx_hal_tim_ex.c ****     }
1854:Drivers/STM32L4xx_HAL_Driver/Src/stm32l4xx_hal_tim_ex.c ****     case TIM_BREAKINPUT_BRK2:
1855:Drivers/STM32L4xx_HAL_Driver/Src/stm32l4xx_hal_tim_ex.c ****     {
ARM GAS  /tmp/ccByjmRO.s 			page 56


1856:Drivers/STM32L4xx_HAL_Driver/Src/stm32l4xx_hal_tim_ex.c ****       /* Get the TIMx_OR3 register value */
1857:Drivers/STM32L4xx_HAL_Driver/Src/stm32l4xx_hal_tim_ex.c ****       tmporx = htim->Instance->OR3;
1858:Drivers/STM32L4xx_HAL_Driver/Src/stm32l4xx_hal_tim_ex.c **** 
1859:Drivers/STM32L4xx_HAL_Driver/Src/stm32l4xx_hal_tim_ex.c ****       /* Enable the break input */
1860:Drivers/STM32L4xx_HAL_Driver/Src/stm32l4xx_hal_tim_ex.c ****       tmporx &= ~bkin_enable_mask;
1861:Drivers/STM32L4xx_HAL_Driver/Src/stm32l4xx_hal_tim_ex.c ****       tmporx |= (sBreakInputConfig->Enable << bkin_enable_bitpos) & bkin_enable_mask;
1862:Drivers/STM32L4xx_HAL_Driver/Src/stm32l4xx_hal_tim_ex.c **** 
1863:Drivers/STM32L4xx_HAL_Driver/Src/stm32l4xx_hal_tim_ex.c ****       /* Set the break input polarity */
1864:Drivers/STM32L4xx_HAL_Driver/Src/stm32l4xx_hal_tim_ex.c **** #if defined(DFSDM1_Channel0)
1865:Drivers/STM32L4xx_HAL_Driver/Src/stm32l4xx_hal_tim_ex.c ****       if (sBreakInputConfig->Source != TIM_BREAKINPUTSOURCE_DFSDM1)
1866:Drivers/STM32L4xx_HAL_Driver/Src/stm32l4xx_hal_tim_ex.c **** #endif /* DFSDM1_Channel0 */
1867:Drivers/STM32L4xx_HAL_Driver/Src/stm32l4xx_hal_tim_ex.c ****       {
1868:Drivers/STM32L4xx_HAL_Driver/Src/stm32l4xx_hal_tim_ex.c ****         tmporx &= ~bkin_polarity_mask;
1869:Drivers/STM32L4xx_HAL_Driver/Src/stm32l4xx_hal_tim_ex.c ****         tmporx |= (sBreakInputConfig->Polarity << bkin_polarity_bitpos) & bkin_polarity_mask;
1870:Drivers/STM32L4xx_HAL_Driver/Src/stm32l4xx_hal_tim_ex.c ****       }
1871:Drivers/STM32L4xx_HAL_Driver/Src/stm32l4xx_hal_tim_ex.c **** 
1872:Drivers/STM32L4xx_HAL_Driver/Src/stm32l4xx_hal_tim_ex.c ****       /* Set TIMx_OR3 */
1873:Drivers/STM32L4xx_HAL_Driver/Src/stm32l4xx_hal_tim_ex.c ****       htim->Instance->OR3 = tmporx;
1874:Drivers/STM32L4xx_HAL_Driver/Src/stm32l4xx_hal_tim_ex.c ****       break;
1875:Drivers/STM32L4xx_HAL_Driver/Src/stm32l4xx_hal_tim_ex.c ****     }
1876:Drivers/STM32L4xx_HAL_Driver/Src/stm32l4xx_hal_tim_ex.c ****     default:
1877:Drivers/STM32L4xx_HAL_Driver/Src/stm32l4xx_hal_tim_ex.c ****       break;
1878:Drivers/STM32L4xx_HAL_Driver/Src/stm32l4xx_hal_tim_ex.c ****   }
1879:Drivers/STM32L4xx_HAL_Driver/Src/stm32l4xx_hal_tim_ex.c **** 
1880:Drivers/STM32L4xx_HAL_Driver/Src/stm32l4xx_hal_tim_ex.c ****   __HAL_UNLOCK(htim);
1881:Drivers/STM32L4xx_HAL_Driver/Src/stm32l4xx_hal_tim_ex.c **** 
1882:Drivers/STM32L4xx_HAL_Driver/Src/stm32l4xx_hal_tim_ex.c ****   return HAL_OK;
1883:Drivers/STM32L4xx_HAL_Driver/Src/stm32l4xx_hal_tim_ex.c **** }
1884:Drivers/STM32L4xx_HAL_Driver/Src/stm32l4xx_hal_tim_ex.c **** 
1885:Drivers/STM32L4xx_HAL_Driver/Src/stm32l4xx_hal_tim_ex.c **** /**
1886:Drivers/STM32L4xx_HAL_Driver/Src/stm32l4xx_hal_tim_ex.c ****   * @brief  Configures the TIMx Remapping input capabilities.
1887:Drivers/STM32L4xx_HAL_Driver/Src/stm32l4xx_hal_tim_ex.c ****   * @param  htim TIM handle.
1888:Drivers/STM32L4xx_HAL_Driver/Src/stm32l4xx_hal_tim_ex.c ****   * @param  Remap specifies the TIM remapping source.
1889:Drivers/STM32L4xx_HAL_Driver/Src/stm32l4xx_hal_tim_ex.c ****     @if STM32L422xx
1890:Drivers/STM32L4xx_HAL_Driver/Src/stm32l4xx_hal_tim_ex.c ****   *         For TIM1, the parameter is a combination of 2 fields (field1 | field2):
1891:Drivers/STM32L4xx_HAL_Driver/Src/stm32l4xx_hal_tim_ex.c ****   *
1892:Drivers/STM32L4xx_HAL_Driver/Src/stm32l4xx_hal_tim_ex.c ****   *                   field1 can have the following values:
1893:Drivers/STM32L4xx_HAL_Driver/Src/stm32l4xx_hal_tim_ex.c ****   *            @arg TIM_TIM1_ETR_ADC1_NONE:           TIM1_ETR is not connected to any ADC1 AWD (an
1894:Drivers/STM32L4xx_HAL_Driver/Src/stm32l4xx_hal_tim_ex.c ****   *            @arg TIM_TIM1_ETR_ADC1_AWD1:           TIM1_ETR is connected to ADC1 AWD1
1895:Drivers/STM32L4xx_HAL_Driver/Src/stm32l4xx_hal_tim_ex.c ****   *            @arg TIM_TIM1_ETR_ADC1_AWD2:           TIM1_ETR is connected to ADC1 AWD2
1896:Drivers/STM32L4xx_HAL_Driver/Src/stm32l4xx_hal_tim_ex.c ****   *            @arg TIM_TIM1_ETR_ADC1_AWD3:           TIM1_ETR is connected to ADC1 AWD3
1897:Drivers/STM32L4xx_HAL_Driver/Src/stm32l4xx_hal_tim_ex.c ****   *
1898:Drivers/STM32L4xx_HAL_Driver/Src/stm32l4xx_hal_tim_ex.c ****   *                   field2 can have the following values:
1899:Drivers/STM32L4xx_HAL_Driver/Src/stm32l4xx_hal_tim_ex.c ****   *            @arg TIM_TIM1_TI1_GPIO:                TIM1 TI1 is connected to GPIO
1900:Drivers/STM32L4xx_HAL_Driver/Src/stm32l4xx_hal_tim_ex.c ****   *            @arg TIM_TIM1_TI1_COMP1:               TIM1 TI1 is connected to COMP1 output
1901:Drivers/STM32L4xx_HAL_Driver/Src/stm32l4xx_hal_tim_ex.c ****   *
1902:Drivers/STM32L4xx_HAL_Driver/Src/stm32l4xx_hal_tim_ex.c ****   @endif
1903:Drivers/STM32L4xx_HAL_Driver/Src/stm32l4xx_hal_tim_ex.c **** @if STM32L486xx
1904:Drivers/STM32L4xx_HAL_Driver/Src/stm32l4xx_hal_tim_ex.c ****   *         For TIM1, the parameter is a combination of 4 fields (field1 | field2 | field3 | field4
1905:Drivers/STM32L4xx_HAL_Driver/Src/stm32l4xx_hal_tim_ex.c ****   *
1906:Drivers/STM32L4xx_HAL_Driver/Src/stm32l4xx_hal_tim_ex.c ****   *                   field1 can have the following values:
1907:Drivers/STM32L4xx_HAL_Driver/Src/stm32l4xx_hal_tim_ex.c ****   *            @arg TIM_TIM1_ETR_ADC1_NONE:           TIM1_ETR is not connected to any ADC1 AWD (an
1908:Drivers/STM32L4xx_HAL_Driver/Src/stm32l4xx_hal_tim_ex.c ****   *            @arg TIM_TIM1_ETR_ADC1_AWD1:           TIM1_ETR is connected to ADC1 AWD1
1909:Drivers/STM32L4xx_HAL_Driver/Src/stm32l4xx_hal_tim_ex.c ****   *            @arg TIM_TIM1_ETR_ADC1_AWD2:           TIM1_ETR is connected to ADC1 AWD2
1910:Drivers/STM32L4xx_HAL_Driver/Src/stm32l4xx_hal_tim_ex.c ****   *            @arg TIM_TIM1_ETR_ADC1_AWD3:           TIM1_ETR is connected to ADC1 AWD3
1911:Drivers/STM32L4xx_HAL_Driver/Src/stm32l4xx_hal_tim_ex.c ****   *
1912:Drivers/STM32L4xx_HAL_Driver/Src/stm32l4xx_hal_tim_ex.c ****   *                   field2 can have the following values:
ARM GAS  /tmp/ccByjmRO.s 			page 57


1913:Drivers/STM32L4xx_HAL_Driver/Src/stm32l4xx_hal_tim_ex.c ****   *            @arg TIM_TIM1_ETR_ADC3_NONE:           TIM1_ETR is not connected to any ADC3 AWD (an
1914:Drivers/STM32L4xx_HAL_Driver/Src/stm32l4xx_hal_tim_ex.c ****   *            @arg TIM_TIM1_ETR_ADC3_AWD1:           TIM1_ETR is connected to ADC3 AWD1
1915:Drivers/STM32L4xx_HAL_Driver/Src/stm32l4xx_hal_tim_ex.c ****   *            @arg TIM_TIM1_ETR_ADC3_AWD2:           TIM1_ETR is connected to ADC3 AWD2
1916:Drivers/STM32L4xx_HAL_Driver/Src/stm32l4xx_hal_tim_ex.c ****   *            @arg TIM_TIM1_ETR_ADC3_AWD3:           TIM1_ETR is connected to ADC3 AWD3
1917:Drivers/STM32L4xx_HAL_Driver/Src/stm32l4xx_hal_tim_ex.c ****   *
1918:Drivers/STM32L4xx_HAL_Driver/Src/stm32l4xx_hal_tim_ex.c ****   *                   field3 can have the following values:
1919:Drivers/STM32L4xx_HAL_Driver/Src/stm32l4xx_hal_tim_ex.c ****   *            @arg TIM_TIM1_TI1_GPIO:                TIM1 TI1 is connected to GPIO
1920:Drivers/STM32L4xx_HAL_Driver/Src/stm32l4xx_hal_tim_ex.c ****   *            @arg TIM_TIM1_TI1_COMP1:               TIM1 TI1 is connected to COMP1 output
1921:Drivers/STM32L4xx_HAL_Driver/Src/stm32l4xx_hal_tim_ex.c ****   *
1922:Drivers/STM32L4xx_HAL_Driver/Src/stm32l4xx_hal_tim_ex.c ****   *                   field4 can have the following values:
1923:Drivers/STM32L4xx_HAL_Driver/Src/stm32l4xx_hal_tim_ex.c ****   *            @arg TIM_TIM1_ETR_COMP1:               TIM1_ETR is connected to COMP1 output
1924:Drivers/STM32L4xx_HAL_Driver/Src/stm32l4xx_hal_tim_ex.c ****   *            @arg TIM_TIM1_ETR_COMP2:               TIM1_ETR is connected to COMP2 output
1925:Drivers/STM32L4xx_HAL_Driver/Src/stm32l4xx_hal_tim_ex.c ****   *            @note  When field4 is set to TIM_TIM1_ETR_COMP1 or TIM_TIM1_ETR_COMP2 field1 and fie
1926:Drivers/STM32L4xx_HAL_Driver/Src/stm32l4xx_hal_tim_ex.c ****   @endif
1927:Drivers/STM32L4xx_HAL_Driver/Src/stm32l4xx_hal_tim_ex.c ****   @if STM32L443xx
1928:Drivers/STM32L4xx_HAL_Driver/Src/stm32l4xx_hal_tim_ex.c ****   *         For TIM1, the parameter is a combination of 3 fields (field1 | field2 | field3):
1929:Drivers/STM32L4xx_HAL_Driver/Src/stm32l4xx_hal_tim_ex.c ****   *
1930:Drivers/STM32L4xx_HAL_Driver/Src/stm32l4xx_hal_tim_ex.c ****   *                   field1 can have the following values:
1931:Drivers/STM32L4xx_HAL_Driver/Src/stm32l4xx_hal_tim_ex.c ****   *            @arg TIM_TIM1_ETR_ADC1_NONE:           TIM1_ETR is not connected to any ADC1 AWD (an
1932:Drivers/STM32L4xx_HAL_Driver/Src/stm32l4xx_hal_tim_ex.c ****   *            @arg TIM_TIM1_ETR_ADC1_AWD1:           TIM1_ETR is connected to ADC1 AWD1
1933:Drivers/STM32L4xx_HAL_Driver/Src/stm32l4xx_hal_tim_ex.c ****   *            @arg TIM_TIM1_ETR_ADC1_AWD2:           TIM1_ETR is connected to ADC1 AWD2
1934:Drivers/STM32L4xx_HAL_Driver/Src/stm32l4xx_hal_tim_ex.c ****   *            @arg TIM_TIM1_ETR_ADC1_AWD3:           TIM1_ETR is connected to ADC1 AWD3
1935:Drivers/STM32L4xx_HAL_Driver/Src/stm32l4xx_hal_tim_ex.c ****   *
1936:Drivers/STM32L4xx_HAL_Driver/Src/stm32l4xx_hal_tim_ex.c ****   *                   field2 can have the following values:
1937:Drivers/STM32L4xx_HAL_Driver/Src/stm32l4xx_hal_tim_ex.c ****   *            @arg TIM_TIM1_TI1_GPIO:                TIM1 TI1 is connected to GPIO
1938:Drivers/STM32L4xx_HAL_Driver/Src/stm32l4xx_hal_tim_ex.c ****   *            @arg TIM_TIM1_TI1_COMP1:               TIM1 TI1 is connected to COMP1 output
1939:Drivers/STM32L4xx_HAL_Driver/Src/stm32l4xx_hal_tim_ex.c ****   *
1940:Drivers/STM32L4xx_HAL_Driver/Src/stm32l4xx_hal_tim_ex.c ****   *                   field3 can have the following values:
1941:Drivers/STM32L4xx_HAL_Driver/Src/stm32l4xx_hal_tim_ex.c ****   *            @arg TIM_TIM1_ETR_COMP1:               TIM1_ETR is connected to COMP1 output
1942:Drivers/STM32L4xx_HAL_Driver/Src/stm32l4xx_hal_tim_ex.c ****   *            @arg TIM_TIM1_ETR_COMP2:               TIM1_ETR is connected to COMP2 output
1943:Drivers/STM32L4xx_HAL_Driver/Src/stm32l4xx_hal_tim_ex.c ****   *
1944:Drivers/STM32L4xx_HAL_Driver/Src/stm32l4xx_hal_tim_ex.c ****   *            @note  When field3 is set to TIM_TIM1_ETR_COMP1 or TIM_TIM1_ETR_COMP2 field1 values 
1945:Drivers/STM32L4xx_HAL_Driver/Src/stm32l4xx_hal_tim_ex.c ****   *
1946:Drivers/STM32L4xx_HAL_Driver/Src/stm32l4xx_hal_tim_ex.c ****   @endif
1947:Drivers/STM32L4xx_HAL_Driver/Src/stm32l4xx_hal_tim_ex.c ****   @if STM32L486xx
1948:Drivers/STM32L4xx_HAL_Driver/Src/stm32l4xx_hal_tim_ex.c ****   *         For TIM2, the parameter is a combination of 3 fields (field1 | field2 | field3):
1949:Drivers/STM32L4xx_HAL_Driver/Src/stm32l4xx_hal_tim_ex.c ****   *
1950:Drivers/STM32L4xx_HAL_Driver/Src/stm32l4xx_hal_tim_ex.c ****   *                   field1 can have the following values:
1951:Drivers/STM32L4xx_HAL_Driver/Src/stm32l4xx_hal_tim_ex.c ****   *            @arg TIM_TIM2_ITR1_TIM8_TRGO:          TIM2_ITR1 is connected to TIM8_TRGO
1952:Drivers/STM32L4xx_HAL_Driver/Src/stm32l4xx_hal_tim_ex.c ****   *            @arg TIM_TIM2_ITR1_OTG_FS_SOF:         TIM2_ITR1 is connected to OTG_FS SOF
1953:Drivers/STM32L4xx_HAL_Driver/Src/stm32l4xx_hal_tim_ex.c ****   *
1954:Drivers/STM32L4xx_HAL_Driver/Src/stm32l4xx_hal_tim_ex.c ****   *                   field2 can have the following values:
1955:Drivers/STM32L4xx_HAL_Driver/Src/stm32l4xx_hal_tim_ex.c ****   *            @arg TIM_TIM2_ETR_GPIO:                TIM2_ETR is connected to GPIO
1956:Drivers/STM32L4xx_HAL_Driver/Src/stm32l4xx_hal_tim_ex.c ****   *            @arg TIM_TIM2_ETR_LSE:                 TIM2_ETR is connected to LSE
1957:Drivers/STM32L4xx_HAL_Driver/Src/stm32l4xx_hal_tim_ex.c ****   *            @arg TIM_TIM2_ETR_COMP1:               TIM2_ETR is connected to COMP1 output
1958:Drivers/STM32L4xx_HAL_Driver/Src/stm32l4xx_hal_tim_ex.c ****   *            @arg TIM_TIM2_ETR_COMP2:               TIM2_ETR is connected to COMP2 output
1959:Drivers/STM32L4xx_HAL_Driver/Src/stm32l4xx_hal_tim_ex.c ****   *
1960:Drivers/STM32L4xx_HAL_Driver/Src/stm32l4xx_hal_tim_ex.c ****   *                   field3 can have the following values:
1961:Drivers/STM32L4xx_HAL_Driver/Src/stm32l4xx_hal_tim_ex.c ****   *            @arg TIM_TIM2_TI4_GPIO:                TIM2 TI4 is connected to GPIO
1962:Drivers/STM32L4xx_HAL_Driver/Src/stm32l4xx_hal_tim_ex.c ****   *            @arg TIM_TIM2_TI4_COMP1:               TIM2 TI4 is connected to COMP1 output
1963:Drivers/STM32L4xx_HAL_Driver/Src/stm32l4xx_hal_tim_ex.c ****   *            @arg TIM_TIM2_TI4_COMP2:               TIM2 TI4 is connected to COMP2 output
1964:Drivers/STM32L4xx_HAL_Driver/Src/stm32l4xx_hal_tim_ex.c ****   *            @arg TIM_TIM2_TI4_COMP1_COMP2:         TIM2 TI4 is connected to logical OR between C
1965:Drivers/STM32L4xx_HAL_Driver/Src/stm32l4xx_hal_tim_ex.c ****   @endif
1966:Drivers/STM32L4xx_HAL_Driver/Src/stm32l4xx_hal_tim_ex.c ****   @if STM32L422xx
1967:Drivers/STM32L4xx_HAL_Driver/Src/stm32l4xx_hal_tim_ex.c ****   *         For TIM2, the parameter is a combination of 3 fields (field1 | field2 | field3):
1968:Drivers/STM32L4xx_HAL_Driver/Src/stm32l4xx_hal_tim_ex.c ****   *
1969:Drivers/STM32L4xx_HAL_Driver/Src/stm32l4xx_hal_tim_ex.c ****   *                   field1 can have the following values:
ARM GAS  /tmp/ccByjmRO.s 			page 58


1970:Drivers/STM32L4xx_HAL_Driver/Src/stm32l4xx_hal_tim_ex.c ****   *            @arg TIM_TIM2_ITR1_NONE:               No internal trigger on TIM2_ITR1
1971:Drivers/STM32L4xx_HAL_Driver/Src/stm32l4xx_hal_tim_ex.c ****   *            @arg TIM_TIM2_ITR1_USB_SOF:            TIM2_ITR1 is connected to USB SOF
1972:Drivers/STM32L4xx_HAL_Driver/Src/stm32l4xx_hal_tim_ex.c ****   *
1973:Drivers/STM32L4xx_HAL_Driver/Src/stm32l4xx_hal_tim_ex.c ****   *                   field2 can have the following values:
1974:Drivers/STM32L4xx_HAL_Driver/Src/stm32l4xx_hal_tim_ex.c ****   *            @arg TIM_TIM2_ETR_GPIO:                TIM2_ETR is connected to GPIO
1975:Drivers/STM32L4xx_HAL_Driver/Src/stm32l4xx_hal_tim_ex.c ****   *            @arg TIM_TIM2_ETR_LSE:                 TIM2_ETR is connected to LSE
1976:Drivers/STM32L4xx_HAL_Driver/Src/stm32l4xx_hal_tim_ex.c ****   *            @arg TIM_TIM2_ETR_COMP1:               TIM2_ETR is connected to COMP1 output
1977:Drivers/STM32L4xx_HAL_Driver/Src/stm32l4xx_hal_tim_ex.c ****   *
